ccopy_reg
_reconstructor
p0
(cmlx
tree_
p1
c__builtin__
object
p2
Ntp3
Rp4
(dp5
S'decision_rules_'
p6
(dp7
I2
S'P40 %in% c("A", "D", "H", "I", "T")'
p8
sI3
S'P40 %in% c("N", "V")'
p9
ssS'significant_feature_weight_'
p10
(dp11
S'P40'
p12
F0.9999999973971836
ssS'children_left'
p13
(dp14
I1
I2
sI2
NsI3
NssS'ACCx_'
p15
F0.9897959183673469
sS'ACC_'
p16
F0.9897959183673469
sS'value'
p17
(dp18
I1
(dp19
S'AVIAN'
p20
F98.0
sS'HUMAN'
p21
F98.0
ssI2
(dp22
S'AVIAN'
p23
F97.0
sS'HUMAN'
p24
F1.0
ssI3
(dp25
S'AVIAN'
p26
F1.0
sS'HUMAN'
p27
F97.0
sssS'tprob_'
p28
(dp29
I2
F0.5
sI3
F0.5
ssS'threshold'
p30
(dp31
I1
F1.0343649421362599e-37
ssS'children'
p32
(dp33
I1
c__builtin__
set
p34
((lp35
I2
aI3
atp36
Rp37
sI2
g34
((lp38
tp39
Rp40
sI3
g34
((lp41
tp42
Rp43
ssS'children_right'
p44
(dp45
I1
I3
sI2
NsI3
NssS'feature'
p46
(dp47
I1
g12
sI2
S'2'
p48
sI3
S'3'
p49
ssS'nodes'
p50
crpy2.robjects.robject
_reduce_robjectmixin
p51
(S'X\n\x00\x00\x00\x02\x00\x03\x05\x01\x00\x02\x03\x00\x00\x00\x00\r\x00\x00\x00\x03\x00\x00\x00\x01\x00\x00\x00\x02\x00\x00\x00\x03'
p52
I13
crpy2.rinterface._rinterface
unserialize
p53
crpy2.robjects.vectors
IntVector
p54
tp55
Rp56
(dp57
S'ro'
p58
g0
(crpy2.robjects.vectors
VectorOperationsDelegator
p59
g2
Ntp60
Rp61
(dp62
S'_parent'
p63
g56
sbsS'rx'
p64
g0
(crpy2.robjects.vectors
ExtractDelegator
p65
g2
Ntp66
Rp67
(dp68
g63
g56
sbsS'rx2'
p69
g0
(crpy2.robjects.vectors
DoubleExtractDelegator
p70
g2
Ntp71
Rp72
(dp73
g63
g56
sbsbsS'response_var_'
p74
S'SPECIES'
p75
sS'edge_cond_'
p76
(dp77
(I1
I2
tp78
(lp79
S'A'
p80
aS'H'
p81
aS'I'
p82
aS'D'
p83
aS'T'
p84
as(I1
I3
tp85
(lp86
S'N'
p87
aS'V'
p88
assS'class_pred_'
p89
g18
sS'CLASSES'
p90
cnumpy.core.multiarray
_reconstruct
p91
(cnumpy
ndarray
p92
(I0
tp93
S'b'
p94
tp95
Rp96
(I1
(I2
tp97
cnumpy
dtype
p98
(S'O8'
p99
I0
I1
tp100
Rp101
(I3
S'|'
p102
NNNI-1
I-1
I63
tp103
bI00
(lp104
S'AVIAN'
p105
aS'HUMAN'
p106
atp107
bsS'TREE_LEAF'
p108
(dp109
I1
I00
sI2
I01
sI3
I01
ssS'num_pass_'
p110
(dp111
I1
F196.0
sI2
F98.0
sI3
F98.0
ssS'error'
p112
(dp113
I1
F50.0
sI2
F1.0204081632653061
sI3
F1.0204081632653061
ssS'pvalue'
p114
g31
sS'class_names'
p115
g96
sS'n_node_samples'
p116
g111
sb.