ccopy_reg
_reconstructor
p0
(cmlx
tree_
p1
c__builtin__
object
p2
Ntp3
Rp4
(dp5
S'decision_rules_'
p6
(dp7
I8
S'P49 %in% c("A", "G", "T") & P332 %in% c("C", "G", "T")'
p8
sI9
S'P49 %in% c("C")'
p9
sI4
S'P49 %in% c("A", "G", "T") & P332 %in% c("A") & P100 %in% c("A", "T")'
p10
sI6
S'P49 %in% c("A", "G", "T") & P332 %in% c("A") & P100 %in% c("C", "G") & P320 %in% c("A", "C", "NA")'
p11
sI7
S'P49 %in% c("A", "G", "T") & P332 %in% c("A") & P100 %in% c("C", "G") & P320 %in% c("NA", "T")'
p12
ssS'significant_feature_weight_'
p13
(dp14
S'P332'
p15
F0.5185185007432603
sS'P100'
p16
F0.35978833940190325
sS'P49'
p17
F0.7499999855364254
sS'P320'
p18
F0.0
ssS'children_left'
p19
(dp20
I1
I9
sI2
I8
sI3
I4
sI4
NsI5
I6
sI6
NsI7
NsI8
NsI9
NssS'ACCx_'
p21
F0.7083333333333333
sS'ACC_'
p22
F0.8194444444444444
sS'value'
p23
(dp24
I1
(dp25
S'A'
p26
F18.0
sS'C'
p27
F37.0
sS'T'
p28
F13.0
sS'G'
p29
F4.0
ssI2
(dp30
g26
F3.0
sg27
F35.0
sg28
F12.0
sg29
F4.0
ssI3
(dp31
g26
F0.0
sg27
F34.0
sg28
F6.0
sg29
F2.0
ssI4
(dp32
g26
F0.0
sg27
F1.0
sg28
F5.0
sg29
F2.0
ssI5
(dp33
g26
F0.0
sg27
F33.0
sg28
F1.0
sg29
F0.0
ssI6
(dp34
g26
F0.0
sg27
F9.0
sg28
F1.0
sg29
F0.0
ssI7
(dp35
g26
F0.0
sg27
F24.0
sg28
F0.0
sg29
F0.0
ssI8
(dp36
g26
F3.0
sg27
F1.0
sg28
F6.0
sg29
F2.0
ssI9
(dp37
g26
F15.0
sg27
F2.0
sg28
F1.0
sg29
F0.0
sssS'tprob_'
p38
(dp39
I8
F0.16666666666666666
sI9
F0.25
sI4
F0.1111111111111111
sI6
F0.1388888888888889
sI7
F0.3333333333333333
ssS'threshold'
p40
(dp41
I1
F5.3043458514423505e-11
sI2
F7.528361933850649e-09
sI3
F1.9725680533433403e-08
sI5
F2.7233787554648e-05
ssS'children'
p42
(dp43
I1
c__builtin__
set
p44
((lp45
I9
aI2
atp46
Rp47
sI2
g44
((lp48
I8
aI3
atp49
Rp50
sI3
g44
((lp51
I4
aI5
atp52
Rp53
sI4
g44
((lp54
tp55
Rp56
sI5
g44
((lp57
I6
aI7
atp58
Rp59
sI6
g44
((lp60
tp61
Rp62
sI7
g44
((lp63
tp64
Rp65
sI8
g44
((lp66
tp67
Rp68
sI9
g44
((lp69
tp70
Rp71
ssS'children_right'
p72
(dp73
I1
I2
sI2
I3
sI3
I5
sI4
NsI5
I7
sI6
NsI7
NsI8
NsI9
NssS'feature'
p74
(dp75
I1
g17
sI2
g15
sI3
g16
sI4
S'4'
p76
sI5
g18
sI6
S'6'
p77
sI7
S'7'
p78
sI8
S'8'
p79
sI9
S'9'
p80
ssS'nodes'
p81
crpy2.robjects.robject
_reduce_robjectmixin
p82
(S'X\n\x00\x00\x00\x02\x00\x03\x04\x04\x00\x02\x03\x00\x00\x00\x00\r\x00\x00\x00\t\x00\x00\x00\x01\x00\x00\x00\x02\x00\x00\x00\x03\x00\x00\x00\x04\x00\x00\x00\x05\x00\x00\x00\x06\x00\x00\x00\x07\x00\x00\x00\x08\x00\x00\x00\t'
p83
I13
crpy2.rinterface._rinterface
unserialize
p84
crpy2.robjects.vectors
IntVector
p85
tp86
Rp87
(dp88
S'ro'
p89
g0
(crpy2.robjects.vectors
VectorOperationsDelegator
p90
g2
Ntp91
Rp92
(dp93
S'_parent'
p94
g87
sbsS'rx'
p95
g0
(crpy2.robjects.vectors
ExtractDelegator
p96
g2
Ntp97
Rp98
(dp99
g94
g87
sbsS'rx2'
p100
g0
(crpy2.robjects.vectors
DoubleExtractDelegator
p101
g2
Ntp102
Rp103
(dp104
g94
g87
sbsbsS'response_var_'
p105
S'P327'
p106
sS'edge_cond_'
p107
(dp108
(I1
I2
tp109
(lp110
g26
ag28
ag29
as(I5
I6
tp111
(lp112
g26
ag27
as(I2
I8
tp113
(lp114
g27
ag28
ag29
as(I5
I7
tp115
(lp116
g28
as(I2
I3
tp117
(lp118
S'A'
p119
as(I1
I9
tp120
(lp121
S'C'
p122
as(I3
I4
tp123
(lp124
g26
ag28
as(I3
I5
tp125
(lp126
g27
ag29
assS'class_pred_'
p127
g24
sS'CLASSES'
p128
cnumpy.core.multiarray
_reconstruct
p129
(cnumpy
ndarray
p130
(I0
tp131
S'b'
p132
tp133
Rp134
(I1
(I4
tp135
cnumpy
dtype
p136
(S'O8'
p137
I0
I1
tp138
Rp139
(I3
S'|'
p140
NNNI-1
I-1
I63
tp141
bI00
(lp142
g26
ag27
ag29
ag28
atp143
bsS'TREE_LEAF'
p144
(dp145
I1
I00
sI2
I00
sI3
I00
sI4
I01
sI5
I00
sI6
I01
sI7
I01
sI8
I01
sI9
I01
ssS'num_pass_'
p146
(dp147
I1
I72
sI2
I54
sI3
I42
sI4
I8
sI5
I34
sI6
I10
sI7
I24
sI8
I12
sI9
I18
ssS'error'
p148
(dp149
I1
F48.61111111111111
sI2
F35.18518518518518
sI3
F19.047619047619047
sI4
F37.5
sI5
F2.941176470588235
sI6
F10.0
sI7
F0.0
sI8
F50.0
sI9
F16.666666666666664
ssS'pvalue'
p150
g41
sS'class_names'
p151
g134
sS'n_node_samples'
p152
g147
sb.