ccopy_reg
_reconstructor
p0
(cmlx
tree_
p1
c__builtin__
object
p2
Ntp3
Rp4
(dp5
S'decision_rules_'
p6
(dp7
I8
S'P44 %in% c("A", "C", "T") & P19 %in% c("C")'
p8
sI9
S'P44 %in% c("G")'
p9
sI4
S'P44 %in% c("A", "C", "T") & P19 %in% c("A", "G", "T") & P200 %in% c("A", "G")'
p10
sI6
S'P44 %in% c("A", "C", "T") & P19 %in% c("A", "G", "T") & P200 %in% c("C", "T") & P368 %in% c("A", "C", "T")'
p11
sI7
S'P44 %in% c("A", "C", "T") & P19 %in% c("A", "G", "T") & P200 %in% c("C", "T") & P368 %in% c("G")'
p12
ssS'significant_feature_weight_'
p13
(dp14
S'P19'
p15
F0.5341735501914575
sS'P44'
p16
F0.43188983879861786
sS'P200'
p17
F0.2836845924867275
sS'P368'
p18
F0.0
ssS'children_left'
p19
(dp20
I1
I9
sI2
I8
sI3
I4
sI4
NsI5
I6
sI6
NsI7
NsI8
NsI9
NssS'ACCx_'
p21
F0.7777777777777778
sS'ACC_'
p22
F0.9027777777777778
sS'value'
p23
(dp24
I1
(dp25
S'A'
p26
F12.0
sS'C'
p27
F6.0
sS'T'
p28
F16.0
sS'G'
p29
F38.0
ssI2
(dp30
g26
F3.0
sg27
F6.0
sg28
F15.0
sg29
F38.0
ssI3
(dp31
g26
F3.0
sg27
F6.0
sg28
F2.0
sg29
F37.0
ssI4
(dp32
g26
F1.0
sg27
F6.0
sg28
F0.0
sg29
F0.0
ssI5
(dp33
g26
F2.0
sg27
F0.0
sg28
F2.0
sg29
F37.0
ssI6
(dp34
g26
F2.0
sg27
F0.0
sg28
F2.0
sg29
F4.0
ssI7
(dp35
g26
F0.0
sg27
F0.0
sg28
F0.0
sg29
F33.0
ssI8
(dp36
g26
F0.0
sg27
F0.0
sg28
F13.0
sg29
F1.0
ssI9
(dp37
g26
F9.0
sg27
F0.0
sg28
F1.0
sg29
F0.0
sssS'tprob_'
p38
(dp39
I8
F0.19444444444444445
sI9
F0.1388888888888889
sI4
F0.09722222222222222
sI6
F0.1111111111111111
sI7
F0.4583333333333333
ssS'threshold'
p40
(dp41
I1
F1.1102230246251599e-15
sI2
F3.6637359812630205e-15
sI3
F2.4091839634365897e-14
sI5
F1.4255263636187e-12
ssS'children'
p42
(dp43
I1
c__builtin__
set
p44
((lp45
I9
aI2
atp46
Rp47
sI2
g44
((lp48
I8
aI3
atp49
Rp50
sI3
g44
((lp51
I4
aI5
atp52
Rp53
sI4
g44
((lp54
tp55
Rp56
sI5
g44
((lp57
I6
aI7
atp58
Rp59
sI6
g44
((lp60
tp61
Rp62
sI7
g44
((lp63
tp64
Rp65
sI8
g44
((lp66
tp67
Rp68
sI9
g44
((lp69
tp70
Rp71
ssS'children_right'
p72
(dp73
I1
I2
sI2
I3
sI3
I5
sI4
NsI5
I7
sI6
NsI7
NsI8
NsI9
NssS'feature'
p74
(dp75
I1
g16
sI2
g15
sI3
g17
sI4
S'4'
p76
sI5
g18
sI6
S'6'
p77
sI7
S'7'
p78
sI8
S'8'
p79
sI9
S'9'
p80
ssS'nodes'
p81
crpy2.robjects.robject
_reduce_robjectmixin
p82
(S'X\n\x00\x00\x00\x02\x00\x03\x04\x04\x00\x02\x03\x00\x00\x00\x00\r\x00\x00\x00\t\x00\x00\x00\x01\x00\x00\x00\x02\x00\x00\x00\x03\x00\x00\x00\x04\x00\x00\x00\x05\x00\x00\x00\x06\x00\x00\x00\x07\x00\x00\x00\x08\x00\x00\x00\t'
p83
I13
crpy2.rinterface._rinterface
unserialize
p84
crpy2.robjects.vectors
IntVector
p85
tp86
Rp87
(dp88
S'ro'
p89
g0
(crpy2.robjects.vectors
VectorOperationsDelegator
p90
g2
Ntp91
Rp92
(dp93
S'_parent'
p94
g87
sbsS'rx'
p95
g0
(crpy2.robjects.vectors
ExtractDelegator
p96
g2
Ntp97
Rp98
(dp99
g94
g87
sbsS'rx2'
p100
g0
(crpy2.robjects.vectors
DoubleExtractDelegator
p101
g2
Ntp102
Rp103
(dp104
g94
g87
sbsbsS'response_var_'
p105
S'P41'
p106
sS'edge_cond_'
p107
(dp108
(I1
I2
tp109
(lp110
g26
ag27
ag28
as(I5
I6
tp111
(lp112
g26
ag27
ag28
as(I2
I8
tp113
(lp114
S'C'
p115
as(I5
I7
tp116
(lp117
S'G'
p118
as(I2
I3
tp119
(lp120
g26
ag28
ag29
as(I1
I9
tp121
(lp122
S'G'
p123
as(I3
I4
tp124
(lp125
g26
ag29
as(I3
I5
tp126
(lp127
g27
ag28
assS'class_pred_'
p128
g24
sS'CLASSES'
p129
cnumpy.core.multiarray
_reconstruct
p130
(cnumpy
ndarray
p131
(I0
tp132
S'b'
p133
tp134
Rp135
(I1
(I4
tp136
cnumpy
dtype
p137
(S'O8'
p138
I0
I1
tp139
Rp140
(I3
S'|'
p141
NNNI-1
I-1
I63
tp142
bI00
(lp143
g26
ag27
ag29
ag28
atp144
bsS'TREE_LEAF'
p145
(dp146
I1
I00
sI2
I00
sI3
I00
sI4
I01
sI5
I00
sI6
I01
sI7
I01
sI8
I01
sI9
I01
ssS'num_pass_'
p147
(dp148
I1
I72
sI2
I62
sI3
I48
sI4
I7
sI5
I41
sI6
I8
sI7
I33
sI8
I14
sI9
I10
ssS'error'
p149
(dp150
I1
F47.222222222222214
sI2
F38.70967741935484
sI3
F22.916666666666664
sI4
F14.285714285714285
sI5
F9.75609756097561
sI6
F50.0
sI7
F0.0
sI8
F7.142857142857142
sI9
F10.0
ssS'pvalue'
p151
g41
sS'class_names'
p152
g135
sS'n_node_samples'
p153
g148
sb.