ccopy_reg
_reconstructor
p0
(cmlx
tree_
p1
c__builtin__
object
p2
Ntp3
Rp4
(dp5
S'decision_rules_'
p6
(dp7
I8
S'P383 %in% c("C", "G", "T") & P160 %in% c("C", "G", "T") & P239 %in% c("A")'
p8
sI9
S'P383 %in% c("C", "G", "T") & P160 %in% c("C", "G", "T") & P239 %in% c("C", "G", "T")'
p9
sI3
S'P383 %in% c("A") & P55 %in% c("NA", "G", "T")'
p10
sI4
S'P383 %in% c("A") & P55 %in% c("NA", "C")'
p11
sI6
S'P383 %in% c("C", "G", "T") & P160 %in% c("A")'
p12
ssS'significant_feature_weight_'
p13
(dp14
S'P55'
p15
F0.2646353741065692
sS'P239'
p16
F0.2954544844656749
sS'P160'
p17
F0.38194440716848344
sS'P383'
p18
F0.8916350224545068
ssS'children_left'
p19
(dp20
I1
I2
sI2
I3
sI3
NsI4
NsI5
I6
sI6
NsI7
I8
sI8
NsI9
NssS'ACCx_'
p21
F0.625
sS'ACC_'
p22
F0.8194444444444444
sS'value'
p23
(dp24
I1
(dp25
S'A'
p26
F41.0
sS'C'
p27
F8.0
sS'T'
p28
F6.0
sS'G'
p29
F17.0
ssI2
(dp30
g26
F34.0
sg27
F0.0
sg28
F0.0
sg29
F6.0
ssI3
(dp31
g26
F1.0
sg27
F0.0
sg28
F0.0
sg29
F6.0
ssI4
(dp32
g26
F33.0
sg27
F0.0
sg28
F0.0
sg29
F0.0
ssI5
(dp33
g26
F7.0
sg27
F8.0
sg28
F6.0
sg29
F11.0
ssI6
(dp34
g26
F1.0
sg27
F1.0
sg28
F0.0
sg29
F8.0
ssI7
(dp35
g26
F6.0
sg27
F7.0
sg28
F6.0
sg29
F3.0
ssI8
(dp36
g26
F2.0
sg27
F1.0
sg28
F6.0
sg29
F0.0
ssI9
(dp37
g26
F4.0
sg27
F6.0
sg28
F0.0
sg29
F3.0
sssS'tprob_'
p38
(dp39
I8
F0.125
sI9
F0.18055555555555555
sI3
F0.09722222222222222
sI4
F0.4583333333333333
sI6
F0.1388888888888889
ssS'threshold'
p40
(dp41
I1
F1.09038111872906e-10
sI2
F1.7348098959368803e-05
sI5
F3.9472413437380296e-05
sI7
F0.0025740909138934898
ssS'children'
p42
(dp43
I1
c__builtin__
set
p44
((lp45
I2
aI5
atp46
Rp47
sI2
g44
((lp48
I3
aI4
atp49
Rp50
sI3
g44
((lp51
tp52
Rp53
sI4
g44
((lp54
tp55
Rp56
sI5
g44
((lp57
I6
aI7
atp58
Rp59
sI6
g44
((lp60
tp61
Rp62
sI7
g44
((lp63
I8
aI9
atp64
Rp65
sI8
g44
((lp66
tp67
Rp68
sI9
g44
((lp69
tp70
Rp71
ssS'children_right'
p72
(dp73
I1
I5
sI2
I4
sI3
NsI4
NsI5
I7
sI6
NsI7
I9
sI8
NsI9
NssS'feature'
p74
(dp75
I1
g18
sI2
g15
sI3
S'3'
p76
sI4
S'4'
p77
sI5
g17
sI6
S'6'
p78
sI7
g16
sI8
S'8'
p79
sI9
S'9'
p80
ssS'nodes'
p81
crpy2.robjects.robject
_reduce_robjectmixin
p82
(S'X\n\x00\x00\x00\x02\x00\x03\x04\x04\x00\x02\x03\x00\x00\x00\x00\r\x00\x00\x00\t\x00\x00\x00\x01\x00\x00\x00\x02\x00\x00\x00\x03\x00\x00\x00\x04\x00\x00\x00\x05\x00\x00\x00\x06\x00\x00\x00\x07\x00\x00\x00\x08\x00\x00\x00\t'
p83
I13
crpy2.rinterface._rinterface
unserialize
p84
crpy2.robjects.vectors
IntVector
p85
tp86
Rp87
(dp88
S'ro'
p89
g0
(crpy2.robjects.vectors
VectorOperationsDelegator
p90
g2
Ntp91
Rp92
(dp93
S'_parent'
p94
g87
sbsS'rx'
p95
g0
(crpy2.robjects.vectors
ExtractDelegator
p96
g2
Ntp97
Rp98
(dp99
g94
g87
sbsS'rx2'
p100
g0
(crpy2.robjects.vectors
DoubleExtractDelegator
p101
g2
Ntp102
Rp103
(dp104
g94
g87
sbsbsS'response_var_'
p105
S'P244'
p106
sS'edge_cond_'
p107
(dp108
(I1
I2
tp109
(lp110
S'A'
p111
as(I5
I6
tp112
(lp113
S'A'
p114
as(I5
I7
tp115
(lp116
g27
ag28
ag29
as(I1
I5
tp117
(lp118
g27
ag28
ag29
as(I2
I3
tp119
(lp120
g28
ag29
as(I7
I8
tp121
(lp122
S'A'
p123
as(I2
I4
tp124
(lp125
g27
as(I7
I9
tp126
(lp127
g27
ag28
ag29
assS'class_pred_'
p128
g24
sS'CLASSES'
p129
cnumpy.core.multiarray
_reconstruct
p130
(cnumpy
ndarray
p131
(I0
tp132
S'b'
p133
tp134
Rp135
(I1
(I4
tp136
cnumpy
dtype
p137
(S'O8'
p138
I0
I1
tp139
Rp140
(I3
S'|'
p141
NNNI-1
I-1
I63
tp142
bI00
(lp143
g26
ag27
ag29
ag28
atp144
bsS'TREE_LEAF'
p145
(dp146
I1
I00
sI2
I00
sI3
I01
sI4
I01
sI5
I00
sI6
I01
sI7
I00
sI8
I01
sI9
I01
ssS'num_pass_'
p147
(dp148
I1
I72
sI2
I40
sI3
I7
sI4
I33
sI5
I32
sI6
I10
sI7
I22
sI8
I9
sI9
I13
ssS'error'
p149
(dp150
I1
F43.05555555555556
sI2
F15.0
sI3
F14.285714285714285
sI4
F0.0
sI5
F65.625
sI6
F20.0
sI7
F68.18181818181817
sI8
F33.33333333333333
sI9
F53.84615384615385
ssS'pvalue'
p151
g41
sS'class_names'
p152
g135
sS'n_node_samples'
p153
g148
sb.