ccopy_reg
_reconstructor
p0
(cmlx
tree_
p1
c__builtin__
object
p2
Ntp3
Rp4
(dp5
S'decision_rules_'
p6
(dp7
I8
S'P216 %in% c("T") & P241 %in% c("A", "NA")'
p8
sI9
S'P216 %in% c("T") & P241 %in% c("NA", "G", "T")'
p9
sI4
S'P216 %in% c("A", "C", "G") & P19 %in% c("A", "C", "G") & P83 %in% c("A", "C", "T")'
p10
sI5
S'P216 %in% c("A", "C", "G") & P19 %in% c("A", "C", "G") & P83 %in% c("G")'
p11
sI6
S'P216 %in% c("A", "C", "G") & P19 %in% c("T")'
p12
ssS'significant_feature_weight_'
p13
(dp14
S'P83'
p15
F0.2857142209881245
sS'P19'
p16
F0.32183904221753024
sS'P241'
p17
F0.0
sS'P216'
p18
F0.9621913394690559
ssS'children_left'
p19
(dp20
I1
I2
sI2
I3
sI3
I4
sI4
NsI5
NsI6
NsI7
I8
sI8
NsI9
NssS'ACCx_'
p21
F0.7222222222222222
sS'ACC_'
p22
F0.875
sS'value'
p23
(dp24
I1
(dp25
S'A'
p26
F11.0
sS'C'
p27
F4.0
sS'T'
p28
F46.0
sS'G'
p29
F11.0
ssI2
(dp30
g26
F11.0
sg27
F4.0
sg28
F4.0
sg29
F10.0
ssI3
(dp31
g26
F3.0
sg27
F4.0
sg28
F4.0
sg29
F10.0
ssI4
(dp32
g26
F3.0
sg27
F4.0
sg28
F4.0
sg29
F1.0
ssI5
(dp33
g26
F0.0
sg27
F0.0
sg28
F0.0
sg29
F9.0
ssI6
(dp34
g26
F8.0
sg27
F0.0
sg28
F0.0
sg29
F0.0
ssI7
(dp35
g26
F0.0
sg27
F0.0
sg28
F42.0
sg29
F1.0
ssI8
(dp36
g26
F0.0
sg27
F0.0
sg28
F34.0
sg29
F0.0
ssI9
(dp37
g26
F0.0
sg27
F0.0
sg28
F8.0
sg29
F1.0
sssS'tprob_'
p38
(dp39
I8
F0.4722222222222222
sI9
F0.125
sI4
F0.16666666666666666
sI5
F0.125
sI6
F0.1111111111111111
ssS'threshold'
p40
(dp41
I1
F2.03170813506404e-14
sI2
F0.00111456457747772
sI3
F0.0035018812837472896
sI7
F3.02544115426961e-07
ssS'children'
p42
(dp43
I1
c__builtin__
set
p44
((lp45
I2
aI7
atp46
Rp47
sI2
g44
((lp48
I3
aI6
atp49
Rp50
sI3
g44
((lp51
I4
aI5
atp52
Rp53
sI4
g44
((lp54
tp55
Rp56
sI5
g44
((lp57
tp58
Rp59
sI6
g44
((lp60
tp61
Rp62
sI7
g44
((lp63
I8
aI9
atp64
Rp65
sI8
g44
((lp66
tp67
Rp68
sI9
g44
((lp69
tp70
Rp71
ssS'children_right'
p72
(dp73
I1
I7
sI2
I6
sI3
I5
sI4
NsI5
NsI6
NsI7
I9
sI8
NsI9
NssS'feature'
p74
(dp75
I1
g18
sI2
g16
sI3
g15
sI4
S'4'
p76
sI5
S'5'
p77
sI6
S'6'
p78
sI7
g17
sI8
S'8'
p79
sI9
S'9'
p80
ssS'nodes'
p81
crpy2.robjects.robject
_reduce_robjectmixin
p82
(S'X\n\x00\x00\x00\x02\x00\x03\x04\x04\x00\x02\x03\x00\x00\x00\x00\r\x00\x00\x00\t\x00\x00\x00\x01\x00\x00\x00\x02\x00\x00\x00\x03\x00\x00\x00\x04\x00\x00\x00\x05\x00\x00\x00\x06\x00\x00\x00\x07\x00\x00\x00\x08\x00\x00\x00\t'
p83
I13
crpy2.rinterface._rinterface
unserialize
p84
crpy2.robjects.vectors
IntVector
p85
tp86
Rp87
(dp88
S'ro'
p89
g0
(crpy2.robjects.vectors
VectorOperationsDelegator
p90
g2
Ntp91
Rp92
(dp93
S'_parent'
p94
g87
sbsS'rx'
p95
g0
(crpy2.robjects.vectors
ExtractDelegator
p96
g2
Ntp97
Rp98
(dp99
g94
g87
sbsS'rx2'
p100
g0
(crpy2.robjects.vectors
DoubleExtractDelegator
p101
g2
Ntp102
Rp103
(dp104
g94
g87
sbsbsS'response_var_'
p105
S'P200'
p106
sS'edge_cond_'
p107
(dp108
(I1
I2
tp109
(lp110
g26
ag27
ag29
as(I2
I6
tp111
(lp112
S'T'
p113
as(I7
I8
tp114
(lp115
g26
as(I2
I3
tp116
(lp117
g26
ag27
ag29
as(I1
I7
tp118
(lp119
S'T'
p120
as(I7
I9
tp121
(lp122
g28
ag29
as(I3
I4
tp123
(lp124
g26
ag27
ag28
as(I3
I5
tp125
(lp126
S'G'
p127
assS'class_pred_'
p128
g24
sS'CLASSES'
p129
cnumpy.core.multiarray
_reconstruct
p130
(cnumpy
ndarray
p131
(I0
tp132
S'b'
p133
tp134
Rp135
(I1
(I4
tp136
cnumpy
dtype
p137
(S'O8'
p138
I0
I1
tp139
Rp140
(I3
S'|'
p141
NNNI-1
I-1
I63
tp142
bI00
(lp143
g26
ag27
ag29
ag28
atp144
bsS'TREE_LEAF'
p145
(dp146
I1
I00
sI2
I00
sI3
I00
sI4
I01
sI5
I01
sI6
I01
sI7
I00
sI8
I01
sI9
I01
ssS'num_pass_'
p147
(dp148
I1
I72
sI2
I29
sI3
I21
sI4
I12
sI5
I9
sI6
I8
sI7
I43
sI8
I34
sI9
I9
ssS'error'
p149
(dp150
I1
F36.111111111111114
sI2
F62.06896551724138
sI3
F52.38095238095238
sI4
F66.66666666666666
sI5
F0.0
sI6
F0.0
sI7
F2.3255813953488373
sI8
F0.0
sI9
F11.11111111111111
ssS'pvalue'
p151
g41
sS'class_names'
p152
g135
sS'n_node_samples'
p153
g148
sb.