ccopy_reg
_reconstructor
p0
(cmlx
tree_
p1
c__builtin__
object
p2
Ntp3
Rp4
(dp5
S'decision_rules_'
p6
(dp7
I8
S'P157 %in% c("G", "T") & P379 %in% c("A", "T")'
p8
sI9
S'P157 %in% c("G", "T") & P379 %in% c("C", "G")'
p9
sI3
S'P157 %in% c("A", "C") & P51 %in% c("A", "T")'
p10
sI5
S'P157 %in% c("A", "C") & P51 %in% c("C", "G") & P76 %in% c("A", "C")'
p11
sI6
S'P157 %in% c("A", "C") & P51 %in% c("C", "G") & P76 %in% c("G", "T")'
p12
ssS'significant_feature_weight_'
p13
(dp14
S'P76'
p15
F0.47222218139656763
sS'P157'
p16
F0.7900152325868477
sS'P51'
p17
F0.26738161696234797
sS'P379'
p18
F0.23303728086937173
ssS'children_left'
p19
(dp20
I1
I2
sI2
I3
sI3
NsI4
I5
sI5
NsI6
NsI7
I8
sI8
NsI9
NssS'ACCx_'
p21
F0.6388888888888888
sS'ACC_'
p22
F0.8472222222222222
sS'value'
p23
(dp24
I1
(dp25
S'A'
p26
F28.0
sS'C'
p27
F19.0
sS'T'
p28
F21.0
sS'G'
p29
F4.0
ssI2
(dp30
g26
F3.0
sg27
F16.0
sg28
F18.0
sg29
F4.0
ssI3
(dp31
g26
F0.0
sg27
F0.0
sg28
F3.0
sg29
F4.0
ssI4
(dp32
g26
F3.0
sg27
F16.0
sg28
F15.0
sg29
F0.0
ssI5
(dp33
g26
F0.0
sg27
F16.0
sg28
F1.0
sg29
F0.0
ssI6
(dp34
g26
F3.0
sg27
F0.0
sg28
F14.0
sg29
F0.0
ssI7
(dp35
g26
F25.0
sg27
F3.0
sg28
F3.0
sg29
F0.0
ssI8
(dp36
g26
F24.0
sg27
F0.0
sg28
F0.0
sg29
F0.0
ssI9
(dp37
g26
F1.0
sg27
F3.0
sg28
F3.0
sg29
F0.0
sssS'tprob_'
p38
(dp39
I8
F0.3333333333333333
sI9
F0.09722222222222222
sI3
F0.09722222222222222
sI5
F0.2361111111111111
sI6
F0.2361111111111111
ssS'threshold'
p40
(dp41
I1
F5.77315972805081e-14
sI2
F1.33248967415511e-11
sI4
F2.92899826614956e-09
sI7
F0.0130767697690495
ssS'children'
p42
(dp43
I1
c__builtin__
set
p44
((lp45
I2
aI7
atp46
Rp47
sI2
g44
((lp48
I3
aI4
atp49
Rp50
sI3
g44
((lp51
tp52
Rp53
sI4
g44
((lp54
I5
aI6
atp55
Rp56
sI5
g44
((lp57
tp58
Rp59
sI6
g44
((lp60
tp61
Rp62
sI7
g44
((lp63
I8
aI9
atp64
Rp65
sI8
g44
((lp66
tp67
Rp68
sI9
g44
((lp69
tp70
Rp71
ssS'children_right'
p72
(dp73
I1
I7
sI2
I4
sI3
NsI4
I6
sI5
NsI6
NsI7
I9
sI8
NsI9
NssS'feature'
p74
(dp75
I1
g16
sI2
g17
sI3
S'3'
p76
sI4
g15
sI5
S'5'
p77
sI6
S'6'
p78
sI7
g18
sI8
S'8'
p79
sI9
S'9'
p80
ssS'nodes'
p81
crpy2.robjects.robject
_reduce_robjectmixin
p82
(S'X\n\x00\x00\x00\x02\x00\x03\x04\x04\x00\x02\x03\x00\x00\x00\x00\r\x00\x00\x00\t\x00\x00\x00\x01\x00\x00\x00\x02\x00\x00\x00\x03\x00\x00\x00\x04\x00\x00\x00\x05\x00\x00\x00\x06\x00\x00\x00\x07\x00\x00\x00\x08\x00\x00\x00\t'
p83
I13
crpy2.rinterface._rinterface
unserialize
p84
crpy2.robjects.vectors
IntVector
p85
tp86
Rp87
(dp88
S'ro'
p89
g0
(crpy2.robjects.vectors
VectorOperationsDelegator
p90
g2
Ntp91
Rp92
(dp93
S'_parent'
p94
g87
sbsS'rx'
p95
g0
(crpy2.robjects.vectors
ExtractDelegator
p96
g2
Ntp97
Rp98
(dp99
g94
g87
sbsS'rx2'
p100
g0
(crpy2.robjects.vectors
DoubleExtractDelegator
p101
g2
Ntp102
Rp103
(dp104
g94
g87
sbsbsS'response_var_'
p105
S'P391'
p106
sS'edge_cond_'
p107
(dp108
(I1
I2
tp109
(lp110
g26
ag27
as(I4
I6
tp111
(lp112
g28
ag29
as(I4
I5
tp113
(lp114
g26
ag27
as(I2
I3
tp115
(lp116
g26
ag28
as(I1
I7
tp117
(lp118
g28
ag29
as(I7
I8
tp119
(lp120
g26
ag28
as(I2
I4
tp121
(lp122
g27
ag29
as(I7
I9
tp123
(lp124
g27
ag29
assS'class_pred_'
p125
g24
sS'CLASSES'
p126
cnumpy.core.multiarray
_reconstruct
p127
(cnumpy
ndarray
p128
(I0
tp129
S'b'
p130
tp131
Rp132
(I1
(I4
tp133
cnumpy
dtype
p134
(S'O8'
p135
I0
I1
tp136
Rp137
(I3
S'|'
p138
NNNI-1
I-1
I63
tp139
bI00
(lp140
g26
ag27
ag29
ag28
atp141
bsS'TREE_LEAF'
p142
(dp143
I1
I00
sI2
I00
sI3
I01
sI4
I00
sI5
I01
sI6
I01
sI7
I00
sI8
I01
sI9
I01
ssS'num_pass_'
p144
(dp145
I1
I72
sI2
I41
sI3
I7
sI4
I34
sI5
I17
sI6
I17
sI7
I31
sI8
I24
sI9
I7
ssS'error'
p146
(dp147
I1
F61.111111111111114
sI2
F56.09756097560975
sI3
F42.857142857142854
sI4
F52.94117647058823
sI5
F5.88235294117647
sI6
F17.647058823529413
sI7
F19.35483870967742
sI8
F0.0
sI9
F57.14285714285714
ssS'pvalue'
p148
g41
sS'class_names'
p149
g132
sS'n_node_samples'
p150
g145
sb.