ccopy_reg
_reconstructor
p0
(cmlx
tree_
p1
c__builtin__
object
p2
Ntp3
Rp4
(dp5
S'decision_rules_'
p6
(dp7
I8
S'P340 %in% c("A", "C", "G") & P357 %in% c("G") & P349 %in% c("NA", "T")'
p8
sI9
S'P340 %in% c("T")'
p9
sI4
S'P340 %in% c("A", "C", "G") & P357 %in% c("A", "C", "T") & P305 %in% c("A")'
p10
sI5
S'P340 %in% c("A", "C", "G") & P357 %in% c("A", "C", "T") & P305 %in% c("C", "G", "T")'
p11
sI7
S'P340 %in% c("A", "C", "G") & P357 %in% c("G") & P349 %in% c("NA", "C", "G")'
p12
ssS'significant_feature_weight_'
p13
(dp14
S'P349'
p15
F0.0
sS'P340'
p16
F0.43749999156291475
sS'P305'
p17
F0.2954544844656749
sS'P357'
p18
F0.7954144420468126
ssS'children_left'
p19
(dp20
I1
I9
sI2
I3
sI3
I4
sI4
NsI5
NsI6
I8
sI7
NsI8
NsI9
NssS'ACCx_'
p21
F0.6805555555555556
sS'ACC_'
p22
F0.8472222222222222
sS'value'
p23
(dp24
I1
(dp25
S'A'
p26
F6.0
sS'C'
p27
F15.0
sS'T'
p28
F40.0
sS'G'
p29
F11.0
ssI2
(dp30
g26
F6.0
sg27
F15.0
sg28
F39.0
sg29
F3.0
ssI3
(dp31
g26
F4.0
sg27
F13.0
sg28
F2.0
sg29
F3.0
ssI4
(dp32
g26
F0.0
sg27
F12.0
sg28
F1.0
sg29
F0.0
ssI5
(dp33
g26
F4.0
sg27
F1.0
sg28
F1.0
sg29
F3.0
ssI6
(dp34
g26
F2.0
sg27
F2.0
sg28
F37.0
sg29
F0.0
ssI7
(dp35
g26
F2.0
sg27
F2.0
sg28
F4.0
sg29
F0.0
ssI8
(dp36
g26
F0.0
sg27
F0.0
sg28
F33.0
sg29
F0.0
ssI9
(dp37
g26
F0.0
sg27
F0.0
sg28
F1.0
sg29
F8.0
sssS'tprob_'
p38
(dp39
I8
F0.4583333333333333
sI9
F0.125
sI4
F0.18055555555555555
sI5
F0.125
sI7
F0.1111111111111111
ssS'threshold'
p40
(dp41
I1
F1.55431223447522e-14
sI2
F2.06169525895916e-11
sI3
F0.00825661566980163
sI6
F5.7980928391820896e-08
ssS'children'
p42
(dp43
I1
c__builtin__
set
p44
((lp45
I9
aI2
atp46
Rp47
sI2
g44
((lp48
I3
aI6
atp49
Rp50
sI3
g44
((lp51
I4
aI5
atp52
Rp53
sI4
g44
((lp54
tp55
Rp56
sI5
g44
((lp57
tp58
Rp59
sI6
g44
((lp60
I8
aI7
atp61
Rp62
sI7
g44
((lp63
tp64
Rp65
sI8
g44
((lp66
tp67
Rp68
sI9
g44
((lp69
tp70
Rp71
ssS'children_right'
p72
(dp73
I1
I2
sI2
I6
sI3
I5
sI4
NsI5
NsI6
I7
sI7
NsI8
NsI9
NssS'feature'
p74
(dp75
I1
g16
sI2
g18
sI3
g17
sI4
S'4'
p76
sI5
S'5'
p77
sI6
g15
sI7
S'7'
p78
sI8
S'8'
p79
sI9
S'9'
p80
ssS'nodes'
p81
crpy2.robjects.robject
_reduce_robjectmixin
p82
(S'X\n\x00\x00\x00\x02\x00\x03\x04\x04\x00\x02\x03\x00\x00\x00\x00\r\x00\x00\x00\t\x00\x00\x00\x01\x00\x00\x00\x02\x00\x00\x00\x03\x00\x00\x00\x04\x00\x00\x00\x05\x00\x00\x00\x06\x00\x00\x00\x07\x00\x00\x00\x08\x00\x00\x00\t'
p83
I13
crpy2.rinterface._rinterface
unserialize
p84
crpy2.robjects.vectors
IntVector
p85
tp86
Rp87
(dp88
S'ro'
p89
g0
(crpy2.robjects.vectors
VectorOperationsDelegator
p90
g2
Ntp91
Rp92
(dp93
S'_parent'
p94
g87
sbsS'rx'
p95
g0
(crpy2.robjects.vectors
ExtractDelegator
p96
g2
Ntp97
Rp98
(dp99
g94
g87
sbsS'rx2'
p100
g0
(crpy2.robjects.vectors
DoubleExtractDelegator
p101
g2
Ntp102
Rp103
(dp104
g94
g87
sbsbsS'response_var_'
p105
S'P37'
p106
sS'edge_cond_'
p107
(dp108
(I1
I2
tp109
(lp110
g26
ag27
ag29
as(I2
I6
tp111
(lp112
S'G'
p113
as(I6
I7
tp114
(lp115
g27
ag29
as(I6
I8
tp116
(lp117
g28
as(I2
I3
tp118
(lp119
g26
ag27
ag28
as(I1
I9
tp120
(lp121
S'T'
p122
as(I3
I4
tp123
(lp124
S'A'
p125
as(I3
I5
tp126
(lp127
g27
ag28
ag29
assS'class_pred_'
p128
g24
sS'CLASSES'
p129
cnumpy.core.multiarray
_reconstruct
p130
(cnumpy
ndarray
p131
(I0
tp132
S'b'
p133
tp134
Rp135
(I1
(I4
tp136
cnumpy
dtype
p137
(S'O8'
p138
I0
I1
tp139
Rp140
(I3
S'|'
p141
NNNI-1
I-1
I63
tp142
bI00
(lp143
g26
ag27
ag29
ag28
atp144
bsS'TREE_LEAF'
p145
(dp146
I1
I00
sI2
I00
sI3
I00
sI4
I01
sI5
I01
sI6
I00
sI7
I01
sI8
I01
sI9
I01
ssS'num_pass_'
p147
(dp148
I1
I72
sI2
I63
sI3
I22
sI4
I13
sI5
I9
sI6
I41
sI7
I8
sI8
I33
sI9
I9
ssS'error'
p149
(dp150
I1
F44.44444444444444
sI2
F38.095238095238095
sI3
F40.90909090909091
sI4
F7.6923076923076925
sI5
F55.55555555555555
sI6
F9.75609756097561
sI7
F50.0
sI8
F0.0
sI9
F11.11111111111111
ssS'pvalue'
p151
g41
sS'class_names'
p152
g135
sS'n_node_samples'
p153
g148
sb.