ccopy_reg
_reconstructor
p0
(cmlx
tree_
p1
c__builtin__
object
p2
Ntp3
Rp4
(dp5
S'decision_rules_'
p6
(dp7
I8
S'P102 %in% c("T") & P115 %in% c("A", "T") & P64 %in% c("C", "T")'
p8
sI9
S'P102 %in% c("T") & P115 %in% c("C", "G")'
p9
sI3
S'P102 %in% c("A", "C", "G") & P230 %in% c("A")'
p10
sI4
S'P102 %in% c("A", "C", "G") & P230 %in% c("C", "G", "T")'
p11
sI7
S'P102 %in% c("T") & P115 %in% c("A", "T") & P64 %in% c("A", "G", "R")'
p12
ssS'significant_feature_weight_'
p13
(dp14
S'P230'
p15
F0.2666666000666167
sS'P102'
p16
F0.7244579555230679
sS'P64'
p17
F0.2725287171716391
sS'P115'
p18
F0.35781170120176775
ssS'children_left'
p19
(dp20
I1
I2
sI2
I3
sI3
NsI4
NsI5
I9
sI6
I8
sI7
NsI8
NsI9
NssS'ACCx_'
p21
F0.5138888888888888
sS'ACC_'
p22
F0.875
sS'value'
p23
(dp24
I1
(dp25
S'A'
p26
F22.0
sS'C'
p27
F42.0
sS'T'
p28
F6.0
sS'G'
p29
F2.0
ssI2
(dp30
g26
F11.0
sg27
F2.0
sg28
F5.0
sg29
F2.0
ssI3
(dp31
g26
F11.0
sg27
F0.0
sg28
F0.0
sg29
F1.0
ssI4
(dp32
g26
F0.0
sg27
F2.0
sg28
F5.0
sg29
F1.0
ssI5
(dp33
g26
F11.0
sg27
F40.0
sg28
F1.0
sg29
F0.0
ssI6
(dp34
g26
F4.0
sg27
F39.0
sg28
F0.0
sg29
F0.0
ssI7
(dp35
g26
F4.0
sg27
F3.0
sg28
F0.0
sg29
F0.0
ssI8
(dp36
g26
F0.0
sg27
F36.0
sg28
F0.0
sg29
F0.0
ssI9
(dp37
g26
F7.0
sg27
F1.0
sg28
F1.0
sg29
F0.0
sssS'tprob_'
p38
(dp39
I8
F0.5
sI9
F0.125
sI3
F0.16666666666666666
sI4
F0.1111111111111111
sI7
F0.09722222222222222
ssS'threshold'
p40
(dp41
I1
F4.44089209850063e-16
sI2
F0.000177433713011377
sI5
F5.35016475566863e-12
sI6
F0.00472158495893316
ssS'children'
p42
(dp43
I1
c__builtin__
set
p44
((lp45
I2
aI5
atp46
Rp47
sI2
g44
((lp48
I3
aI4
atp49
Rp50
sI3
g44
((lp51
tp52
Rp53
sI4
g44
((lp54
tp55
Rp56
sI5
g44
((lp57
I9
aI6
atp58
Rp59
sI6
g44
((lp60
I8
aI7
atp61
Rp62
sI7
g44
((lp63
tp64
Rp65
sI8
g44
((lp66
tp67
Rp68
sI9
g44
((lp69
tp70
Rp71
ssS'children_right'
p72
(dp73
I1
I5
sI2
I4
sI3
NsI4
NsI5
I6
sI6
I7
sI7
NsI8
NsI9
NssS'feature'
p74
(dp75
I1
g16
sI2
g15
sI3
S'3'
p76
sI4
S'4'
p77
sI5
g18
sI6
g17
sI7
S'7'
p78
sI8
S'8'
p79
sI9
S'9'
p80
ssS'nodes'
p81
crpy2.robjects.robject
_reduce_robjectmixin
p82
(S'X\n\x00\x00\x00\x02\x00\x03\x04\x04\x00\x02\x03\x00\x00\x00\x00\r\x00\x00\x00\t\x00\x00\x00\x01\x00\x00\x00\x02\x00\x00\x00\x03\x00\x00\x00\x04\x00\x00\x00\x05\x00\x00\x00\x06\x00\x00\x00\x07\x00\x00\x00\x08\x00\x00\x00\t'
p83
I13
crpy2.rinterface._rinterface
unserialize
p84
crpy2.robjects.vectors
IntVector
p85
tp86
Rp87
(dp88
S'ro'
p89
g0
(crpy2.robjects.vectors
VectorOperationsDelegator
p90
g2
Ntp91
Rp92
(dp93
S'_parent'
p94
g87
sbsS'rx'
p95
g0
(crpy2.robjects.vectors
ExtractDelegator
p96
g2
Ntp97
Rp98
(dp99
g94
g87
sbsS'rx2'
p100
g0
(crpy2.robjects.vectors
DoubleExtractDelegator
p101
g2
Ntp102
Rp103
(dp104
g94
g87
sbsbsS'response_var_'
p105
S'P343'
p106
sS'edge_cond_'
p107
(dp108
(I1
I2
tp109
(lp110
g26
ag27
ag29
as(I5
I9
tp111
(lp112
g27
ag29
as(I6
I7
tp113
(lp114
g26
aS'R'
p115
ag29
as(I6
I8
tp116
(lp117
g27
ag28
as(I5
I6
tp118
(lp119
g26
ag28
as(I1
I5
tp120
(lp121
S'T'
p122
as(I2
I3
tp123
(lp124
S'A'
p125
as(I2
I4
tp126
(lp127
g27
ag28
ag29
assS'class_pred_'
p128
g24
sS'CLASSES'
p129
cnumpy.core.multiarray
_reconstruct
p130
(cnumpy
ndarray
p131
(I0
tp132
S'b'
p133
tp134
Rp135
(I1
(I4
tp136
cnumpy
dtype
p137
(S'O8'
p138
I0
I1
tp139
Rp140
(I3
S'|'
p141
NNNI-1
I-1
I63
tp142
bI00
(lp143
g26
ag27
ag29
ag28
atp144
bsS'TREE_LEAF'
p145
(dp146
I1
I00
sI2
I00
sI3
I01
sI4
I01
sI5
I00
sI6
I00
sI7
I01
sI8
I01
sI9
I01
ssS'num_pass_'
p147
(dp148
I1
I72
sI2
I20
sI3
I12
sI4
I8
sI5
I52
sI6
I43
sI7
I7
sI8
I36
sI9
I9
ssS'error'
p149
(dp150
I1
F41.666666666666664
sI2
F45.0
sI3
F8.333333333333332
sI4
F37.5
sI5
F23.076923076923077
sI6
F9.30232558139535
sI7
F42.857142857142854
sI8
F0.0
sI9
F22.22222222222222
ssS'pvalue'
p151
g41
sS'class_names'
p152
g135
sS'n_node_samples'
p153
g148
sb.