ccopy_reg
_reconstructor
p0
(cmlx
tree_
p1
c__builtin__
object
p2
Ntp3
Rp4
(dp5
S'decision_rules_'
p6
(dp7
I3
S'P310 %in% c("A") & P201 %in% c("A", "NA")'
p8
sI4
S'P310 %in% c("A") & P201 %in% c("NA", "G", "T")'
p9
sI6
S'P310 %in% c("C", "G", "T") & P139 %in% c("A", "G")'
p10
sI7
S'P310 %in% c("C", "G", "T") & P139 %in% c("C", "T")'
p11
ssS'significant_feature_weight_'
p12
(dp13
S'P310'
p14
F0.7460295735875276
sS'P139'
p15
F0.4466230765174421
sS'P201'
p16
F0.1727983539187877
ssS'children_left'
p17
(dp18
I1
I2
sI2
I3
sI3
NsI4
NsI5
I6
sI6
NsI7
NssS'ACCx_'
p19
F0.7083333333333333
sS'ACC_'
p20
F0.9166666666666666
sS'value'
p21
(dp22
I1
(dp23
S'A'
p24
F14.0
sS'C'
p25
F11.0
sS'T'
p26
F46.0
sS'G'
p27
F1.0
ssI2
(dp28
g24
F3.0
sg25
F11.0
sg26
F7.0
sg27
F0.0
ssI3
(dp29
g24
F0.0
sg25
F0.0
sg26
F7.0
sg27
F0.0
ssI4
(dp30
g24
F3.0
sg25
F11.0
sg26
F0.0
sg27
F0.0
ssI5
(dp31
g24
F11.0
sg25
F0.0
sg26
F39.0
sg27
F1.0
ssI6
(dp32
g24
F2.0
sg25
F0.0
sg26
F39.0
sg27
F0.0
ssI7
(dp33
g24
F9.0
sg25
F0.0
sg26
F0.0
sg27
F1.0
sssS'tprob_'
p34
(dp35
I3
F0.09722222222222222
sI4
F0.19444444444444445
sI6
F0.5694444444444444
sI7
F0.1388888888888889
ssS'threshold'
p36
(dp37
I1
F5.551115123125781e-16
sI2
F0.00937792896319656
sI5
F4.107825191113079e-15
ssS'children'
p38
(dp39
I1
c__builtin__
set
p40
((lp41
I2
aI5
atp42
Rp43
sI2
g40
((lp44
I3
aI4
atp45
Rp46
sI3
g40
((lp47
tp48
Rp49
sI4
g40
((lp50
tp51
Rp52
sI5
g40
((lp53
I6
aI7
atp54
Rp55
sI6
g40
((lp56
tp57
Rp58
sI7
g40
((lp59
tp60
Rp61
ssS'children_right'
p62
(dp63
I1
I5
sI2
I4
sI3
NsI4
NsI5
I7
sI6
NsI7
NssS'feature'
p64
(dp65
I1
g14
sI2
g16
sI3
S'3'
p66
sI4
S'4'
p67
sI5
g15
sI6
S'6'
p68
sI7
S'7'
p69
ssS'nodes'
p70
crpy2.robjects.robject
_reduce_robjectmixin
p71
(S'X\n\x00\x00\x00\x02\x00\x03\x04\x04\x00\x02\x03\x00\x00\x00\x00\r\x00\x00\x00\x07\x00\x00\x00\x01\x00\x00\x00\x02\x00\x00\x00\x03\x00\x00\x00\x04\x00\x00\x00\x05\x00\x00\x00\x06\x00\x00\x00\x07'
p72
I13
crpy2.rinterface._rinterface
unserialize
p73
crpy2.robjects.vectors
IntVector
p74
tp75
Rp76
(dp77
S'ro'
p78
g0
(crpy2.robjects.vectors
VectorOperationsDelegator
p79
g2
Ntp80
Rp81
(dp82
S'_parent'
p83
g76
sbsS'rx'
p84
g0
(crpy2.robjects.vectors
ExtractDelegator
p85
g2
Ntp86
Rp87
(dp88
g83
g76
sbsS'rx2'
p89
g0
(crpy2.robjects.vectors
DoubleExtractDelegator
p90
g2
Ntp91
Rp92
(dp93
g83
g76
sbsbsS'response_var_'
p94
S'P99'
p95
sS'edge_cond_'
p96
(dp97
(I1
I2
tp98
(lp99
S'A'
p100
as(I5
I6
tp101
(lp102
g24
ag27
as(I5
I7
tp103
(lp104
g25
ag26
as(I1
I5
tp105
(lp106
g25
ag26
ag27
as(I2
I3
tp107
(lp108
g24
as(I2
I4
tp109
(lp110
g26
ag27
assS'class_pred_'
p111
g22
sS'CLASSES'
p112
cnumpy.core.multiarray
_reconstruct
p113
(cnumpy
ndarray
p114
(I0
tp115
S'b'
p116
tp117
Rp118
(I1
(I4
tp119
cnumpy
dtype
p120
(S'O8'
p121
I0
I1
tp122
Rp123
(I3
S'|'
p124
NNNI-1
I-1
I63
tp125
bI00
(lp126
g24
ag25
ag27
ag26
atp127
bsS'TREE_LEAF'
p128
(dp129
I1
I00
sI2
I00
sI3
I01
sI4
I01
sI5
I00
sI6
I01
sI7
I01
ssS'num_pass_'
p130
(dp131
I1
I72
sI2
I21
sI3
I7
sI4
I14
sI5
I51
sI6
I41
sI7
I10
ssS'error'
p132
(dp133
I1
F36.111111111111114
sI2
F47.61904761904761
sI3
F0.0
sI4
F21.428571428571427
sI5
F23.529411764705884
sI6
F4.878048780487805
sI7
F10.0
ssS'pvalue'
p134
g37
sS'class_names'
p135
g118
sS'n_node_samples'
p136
g131
sb.