ccopy_reg
_reconstructor
p0
(cmlx
tree_
p1
c__builtin__
object
p2
Ntp3
Rp4
(dp5
S'decision_rules_'
p6
(dp7
I7
S'P300 %in% c("A", "G", "T") & P147 %in% c("A", "C", "T") & P276 %in% c("A", "G") & P112 %in% c("A", "C") & P76 %in% c("A", "NA", "T") & P55 %in% c("NA", "NA", "T")'
p8
sI8
S'P300 %in% c("A", "G", "T") & P147 %in% c("A", "C", "T") & P276 %in% c("A", "G") & P112 %in% c("A", "C") & P76 %in% c("A", "NA", "T") & P55 %in% c("NA", "C", "NA")'
p9
sI9
S'P300 %in% c("A", "G", "T") & P147 %in% c("A", "C", "T") & P276 %in% c("A", "G") & P112 %in% c("A", "C") & P76 %in% c("C", "NA")'
p10
sI10
S'P300 %in% c("A", "G", "T") & P147 %in% c("A", "C", "T") & P276 %in% c("A", "G") & P112 %in% c("G", "T")'
p11
sI11
S'P300 %in% c("A", "G", "T") & P147 %in% c("A", "C", "T") & P276 %in% c("C", "T")'
p12
sI12
S'P300 %in% c("A", "G", "T") & P147 %in% c("G")'
p13
sI13
S'P300 %in% c("C")'
p14
ssS'significant_feature_weight_'
p15
(dp16
S'P76'
p17
F0.4418181049942761
sS'P112'
p18
F0.37901831261817875
sS'P276'
p19
F0.37143997992844385
sS'P147'
p20
F0.27223141742032625
sS'P55'
p21
F0.1727983539187877
sS'P300'
p22
F0.2486510257827489
ssS'children_left'
p23
(dp24
I1
I2
sI2
I3
sI3
I11
sI4
I10
sI5
I9
sI6
I8
sI7
NsI8
NsI9
NsI10
NsI11
NsI12
NsI13
NssS'ACCx_'
p25
F0.5416666666666667
sS'ACC_'
p26
F0.875
sS'value'
p27
(dp28
I1
(dp29
S'A'
p30
F27.0
sS'C'
p31
F10.0
sS'T'
p32
F7.0
sS'G'
p33
F28.0
ssI2
(dp34
g30
F27.0
sg31
F3.0
sg32
F7.0
sg33
F28.0
ssI3
(dp35
g30
F26.0
sg31
F3.0
sg32
F2.0
sg33
F27.0
ssI4
(dp36
g30
F21.0
sg31
F0.0
sg32
F2.0
sg33
F26.0
ssI5
(dp37
g30
F14.0
sg31
F0.0
sg32
F0.0
sg33
F25.0
ssI6
(dp38
g30
F14.0
sg31
F0.0
sg32
F0.0
sg33
F7.0
ssI7
(dp39
g30
F0.0
sg31
F0.0
sg32
F0.0
sg33
F7.0
ssI8
(dp40
g30
F14.0
sg31
F0.0
sg32
F0.0
sg33
F0.0
ssI9
(dp41
g30
F0.0
sg31
F0.0
sg32
F0.0
sg33
F18.0
ssI10
(dp42
g30
F7.0
sg31
F0.0
sg32
F2.0
sg33
F1.0
ssI11
(dp43
g30
F5.0
sg31
F3.0
sg32
F0.0
sg33
F1.0
ssI12
(dp44
g30
F1.0
sg31
F0.0
sg32
F5.0
sg33
F1.0
ssI13
(dp45
g30
F0.0
sg31
F7.0
sg32
F0.0
sg33
F0.0
sssS'tprob_'
p46
(dp47
I7
F0.09722222222222222
sI8
F0.19444444444444445
sI9
F0.25
sI10
F0.1388888888888889
sI11
F0.125
sI12
F0.09722222222222222
sI13
F0.09722222222222222
ssS'threshold'
p48
(dp49
I1
F1.5413226250871002e-12
sI2
F1.29058985720576e-11
sI3
F3.41101429324198e-08
sI4
F1.92990105007951e-08
sI5
F0.0256308018928796
sI6
F0.0030851853250450896
ssS'children'
p50
(dp51
I1
c__builtin__
set
p52
((lp53
I2
aI13
atp54
Rp55
sI2
g52
((lp56
I3
aI12
atp57
Rp58
sI3
g52
((lp59
I11
aI4
atp60
Rp61
sI4
g52
((lp62
I10
aI5
atp63
Rp64
sI5
g52
((lp65
I9
aI6
atp66
Rp67
sI6
g52
((lp68
I8
aI7
atp69
Rp70
sI7
g52
((lp71
tp72
Rp73
sI8
g52
((lp74
tp75
Rp76
sI9
g52
((lp77
tp78
Rp79
sI10
g52
((lp80
tp81
Rp82
sI11
g52
((lp83
tp84
Rp85
sI12
g52
((lp86
tp87
Rp88
sI13
g52
((lp89
tp90
Rp91
ssS'children_right'
p92
(dp93
I1
I13
sI2
I12
sI3
I4
sI4
I5
sI5
I6
sI6
I7
sI7
NsI8
NsI9
NsI10
NsI11
NsI12
NsI13
NssS'feature'
p94
(dp95
I1
g22
sI2
g20
sI3
g19
sI4
g18
sI5
g17
sI6
g21
sI7
S'7'
p96
sI8
S'8'
p97
sI9
S'9'
p98
sI10
S'10'
p99
sI11
S'11'
p100
sI12
S'12'
p101
sI13
S'13'
p102
ssS'nodes'
p103
crpy2.robjects.robject
_reduce_robjectmixin
p104
(S'X\n\x00\x00\x00\x02\x00\x03\x04\x04\x00\x02\x03\x00\x00\x00\x00\r\x00\x00\x00\r\x00\x00\x00\x01\x00\x00\x00\x02\x00\x00\x00\x03\x00\x00\x00\x04\x00\x00\x00\x05\x00\x00\x00\x06\x00\x00\x00\x07\x00\x00\x00\x08\x00\x00\x00\t\x00\x00\x00\n\x00\x00\x00\x0b\x00\x00\x00\x0c\x00\x00\x00\r'
p105
I13
crpy2.rinterface._rinterface
unserialize
p106
crpy2.robjects.vectors
IntVector
p107
tp108
Rp109
(dp110
S'ro'
p111
g0
(crpy2.robjects.vectors
VectorOperationsDelegator
p112
g2
Ntp113
Rp114
(dp115
S'_parent'
p116
g109
sbsS'rx'
p117
g0
(crpy2.robjects.vectors
ExtractDelegator
p118
g2
Ntp119
Rp120
(dp121
g116
g109
sbsS'rx2'
p122
g0
(crpy2.robjects.vectors
DoubleExtractDelegator
p123
g2
Ntp124
Rp125
(dp126
g116
g109
sbsbsS'response_var_'
p127
S'P10'
p128
sS'edge_cond_'
p129
(dp130
(I1
I2
tp131
(lp132
g30
ag32
ag33
as(I5
I9
tp133
(lp134
g31
as(I6
I7
tp135
(lp136
g32
as(I6
I8
tp137
(lp138
g31
as(I4
I10
tp139
(lp140
g32
ag33
as(I5
I6
tp141
(lp142
g30
ag32
as(I1
I13
tp143
(lp144
S'C'
p145
as(I3
I11
tp146
(lp147
g31
ag32
as(I4
I5
tp148
(lp149
g30
ag31
as(I2
I3
tp150
(lp151
g30
ag31
ag32
as(I2
I12
tp152
(lp153
S'G'
p154
as(I3
I4
tp155
(lp156
g30
ag33
assS'class_pred_'
p157
g28
sS'CLASSES'
p158
cnumpy.core.multiarray
_reconstruct
p159
(cnumpy
ndarray
p160
(I0
tp161
S'b'
p162
tp163
Rp164
(I1
(I4
tp165
cnumpy
dtype
p166
(S'O8'
p167
I0
I1
tp168
Rp169
(I3
S'|'
p170
NNNI-1
I-1
I63
tp171
bI00
(lp172
g30
ag31
ag33
ag32
atp173
bsS'TREE_LEAF'
p174
(dp175
I1
I00
sI2
I00
sI3
I00
sI4
I00
sI5
I00
sI6
I00
sI7
I01
sI8
I01
sI9
I01
sI10
I01
sI11
I01
sI12
I01
sI13
I01
ssS'num_pass_'
p176
(dp177
I1
I72
sI2
I65
sI3
I58
sI4
I49
sI5
I39
sI6
I21
sI7
I7
sI8
I14
sI9
I18
sI10
I10
sI11
I9
sI12
I7
sI13
I7
ssS'error'
p178
(dp179
I1
F61.111111111111114
sI2
F56.92307692307693
sI3
F53.44827586206897
sI4
F46.93877551020408
sI5
F35.8974358974359
sI6
F33.33333333333333
sI7
F0.0
sI8
F0.0
sI9
F0.0
sI10
F30.0
sI11
F44.44444444444444
sI12
F28.57142857142857
sI13
F0.0
ssS'pvalue'
p180
g49
sS'class_names'
p181
g164
sS'n_node_samples'
p182
g177
sb.