ccopy_reg
_reconstructor
p0
(cmlx
tree_
p1
c__builtin__
object
p2
Ntp3
Rp4
(dp5
S'decision_rules_'
p6
(dp7
I4
S'P168 %in% c("A", "C", "T") & P205 %in% c("A", "C", "T", "Y") & P274 %in% c("A", "R")'
p8
sI6
S'P168 %in% c("A", "C", "T") & P205 %in% c("A", "C", "T", "Y") & P274 %in% c("C", "G", "T") & P224 %in% c("A", "NA", "T")'
p9
sI8
S'P168 %in% c("A", "C", "T") & P205 %in% c("A", "C", "T", "Y") & P274 %in% c("C", "G", "T") & P224 %in% c("C", "NA") & P76 %in% c("A", "C", "NA")'
p10
sI9
S'P168 %in% c("A", "C", "T") & P205 %in% c("A", "C", "T", "Y") & P274 %in% c("C", "G", "T") & P224 %in% c("C", "NA") & P76 %in% c("NA", "T")'
p11
sI10
S'P168 %in% c("A", "C", "T") & P205 %in% c("G")'
p12
sI11
S'P168 %in% c("G")'
p13
ssS'significant_feature_weight_'
p14
(dp15
S'P76'
p16
F0.3999999555851703
sS'P224'
p17
F0.5038759417536494
sS'P205'
p18
F0.4687499885594837
sS'P274'
p19
F0.4866254977213535
sS'P168'
p20
F0.39506172077638874
ssS'children_left'
p21
(dp22
I1
I2
sI2
I10
sI3
I4
sI4
NsI5
I6
sI6
NsI7
I8
sI8
NsI9
NsI10
NsI11
NssS'ACCx_'
p23
F0.4305555555555556
sS'ACC_'
p24
F0.7916666666666666
sS'value'
p25
(dp26
I1
(dp27
S'A'
p28
F32.0
sS'C'
p29
F9.0
sS'T'
p30
F8.0
sS'G'
p31
F23.0
ssI2
(dp32
g28
F31.0
sg29
F9.0
sg30
F1.0
sg31
F23.0
ssI3
(dp33
g28
F27.0
sg29
F4.0
sg30
F1.0
sg31
F22.0
ssI4
(dp34
g28
F7.0
sg29
F0.0
sg30
F1.0
sg31
F3.0
ssI5
(dp35
g28
F20.0
sg29
F4.0
sg30
F0.0
sg31
F19.0
ssI6
(dp36
g28
F8.0
sg29
F4.0
sg30
F0.0
sg31
F1.0
ssI7
(dp37
g28
F12.0
sg29
F0.0
sg30
F0.0
sg31
F18.0
ssI8
(dp38
g28
F0.0
sg29
F0.0
sg30
F0.0
sg31
F18.0
ssI9
(dp39
g28
F12.0
sg29
F0.0
sg30
F0.0
sg31
F0.0
ssI10
(dp40
g28
F4.0
sg29
F5.0
sg30
F0.0
sg31
F1.0
ssI11
(dp41
g28
F1.0
sg29
F0.0
sg30
F7.0
sg31
F0.0
sssS'tprob_'
p42
(dp43
I4
F0.1527777777777778
sI6
F0.18055555555555555
sI8
F0.25
sI9
F0.16666666666666666
sI10
F0.1388888888888889
sI11
F0.1111111111111111
ssS'threshold'
p44
(dp45
I1
F9.70604707717371e-11
sI2
F2.88262747005774e-10
sI3
F1.68928593335949e-09
sI5
F2.1858764398530197e-07
sI7
F0.000201214521752924
ssS'children'
p46
(dp47
I1
c__builtin__
set
p48
((lp49
I2
aI11
atp50
Rp51
sI2
g48
((lp52
I10
aI3
atp53
Rp54
sI3
g48
((lp55
I4
aI5
atp56
Rp57
sI4
g48
((lp58
tp59
Rp60
sI5
g48
((lp61
I6
aI7
atp62
Rp63
sI6
g48
((lp64
tp65
Rp66
sI7
g48
((lp67
I8
aI9
atp68
Rp69
sI8
g48
((lp70
tp71
Rp72
sI9
g48
((lp73
tp74
Rp75
sI10
g48
((lp76
tp77
Rp78
sI11
g48
((lp79
tp80
Rp81
ssS'children_right'
p82
(dp83
I1
I11
sI2
I3
sI3
I5
sI4
NsI5
I7
sI6
NsI7
I9
sI8
NsI9
NsI10
NsI11
NssS'feature'
p84
(dp85
I1
g20
sI2
g18
sI3
g19
sI4
S'4'
p86
sI5
g17
sI6
S'6'
p87
sI7
g16
sI8
S'8'
p88
sI9
S'9'
p89
sI10
S'10'
p90
sI11
S'11'
p91
ssS'nodes'
p92
crpy2.robjects.robject
_reduce_robjectmixin
p93
(S'X\n\x00\x00\x00\x02\x00\x03\x04\x04\x00\x02\x03\x00\x00\x00\x00\r\x00\x00\x00\x0b\x00\x00\x00\x01\x00\x00\x00\x02\x00\x00\x00\x03\x00\x00\x00\x04\x00\x00\x00\x05\x00\x00\x00\x06\x00\x00\x00\x07\x00\x00\x00\x08\x00\x00\x00\t\x00\x00\x00\n\x00\x00\x00\x0b'
p94
I13
crpy2.rinterface._rinterface
unserialize
p95
crpy2.robjects.vectors
IntVector
p96
tp97
Rp98
(dp99
S'ro'
p100
g0
(crpy2.robjects.vectors
VectorOperationsDelegator
p101
g2
Ntp102
Rp103
(dp104
S'_parent'
p105
g98
sbsS'rx'
p106
g0
(crpy2.robjects.vectors
ExtractDelegator
p107
g2
Ntp108
Rp109
(dp110
g105
g98
sbsS'rx2'
p111
g0
(crpy2.robjects.vectors
DoubleExtractDelegator
p112
g2
Ntp113
Rp114
(dp115
g105
g98
sbsbsS'response_var_'
p116
S'P322'
p117
sS'edge_cond_'
p118
(dp119
(I1
I2
tp120
(lp121
g28
ag29
ag30
as(I1
I11
tp122
(lp123
S'G'
p124
as(I5
I6
tp125
(lp126
g28
ag30
as(I7
I8
tp127
(lp128
g28
ag29
as(I5
I7
tp129
(lp130
g29
as(I2
I10
tp131
(lp132
S'G'
p133
as(I2
I3
tp134
(lp135
g28
aS'Y'
p136
ag29
ag30
as(I7
I9
tp137
(lp138
g30
as(I3
I4
tp139
(lp140
g28
aS'R'
p141
as(I3
I5
tp142
(lp143
g29
ag30
ag31
assS'class_pred_'
p144
g26
sS'CLASSES'
p145
cnumpy.core.multiarray
_reconstruct
p146
(cnumpy
ndarray
p147
(I0
tp148
S'b'
p149
tp150
Rp151
(I1
(I4
tp152
cnumpy
dtype
p153
(S'O8'
p154
I0
I1
tp155
Rp156
(I3
S'|'
p157
NNNI-1
I-1
I63
tp158
bI00
(lp159
g28
ag29
ag31
ag30
atp160
bsS'TREE_LEAF'
p161
(dp162
I1
I00
sI2
I00
sI3
I00
sI4
I01
sI5
I00
sI6
I01
sI7
I00
sI8
I01
sI9
I01
sI10
I01
sI11
I01
ssS'num_pass_'
p163
(dp164
I1
I72
sI2
I64
sI3
I54
sI4
I11
sI5
I43
sI6
I13
sI7
I30
sI8
I18
sI9
I12
sI10
I10
sI11
I8
ssS'error'
p165
(dp166
I1
F55.55555555555556
sI2
F51.5625
sI3
F50.0
sI4
F36.36363636363636
sI5
F53.48837209302326
sI6
F38.46153846153846
sI7
F40.0
sI8
F0.0
sI9
F0.0
sI10
F50.0
sI11
F12.5
ssS'pvalue'
p167
g45
sS'class_names'
p168
g151
sS'n_node_samples'
p169
g164
sb.