ccopy_reg
_reconstructor
p0
(cmlx
tree_
p1
c__builtin__
object
p2
Ntp3
Rp4
(dp5
S'decision_rules_'
p6
(dp7
I3
S'P181 %in% c("A", "C", "T") & P12 %in% c("A")'
p8
sI5
S'P181 %in% c("A", "C", "T") & P12 %in% c("C", "G", "R", "T") & P84 %in% c("A", "G")'
p9
sI6
S'P181 %in% c("A", "C", "T") & P12 %in% c("C", "G", "R", "T") & P84 %in% c("C", "T")'
p10
sI7
S'P181 %in% c("G")'
p11
ssS'significant_feature_weight_'
p12
(dp13
S'P12'
p14
F0.7664783207380788
sS'P181'
p15
F0.5918209762411916
sS'P84'
p16
F0.3030302404776153
ssS'children_left'
p17
(dp18
I1
I2
sI2
I3
sI3
NsI4
I5
sI5
NsI6
NsI7
NssS'ACCx_'
p19
F0.6805555555555556
sS'ACC_'
p20
F0.9027777777777778
sS'value'
p21
(dp22
I1
(dp23
S'A'
p24
F12.0
sS'C'
p25
F35.0
sS'T'
p26
F14.0
sS'G'
p27
F11.0
ssI2
(dp28
g24
F12.0
sg25
F35.0
sg26
F2.0
sg27
F10.0
ssI3
(dp29
g24
F1.0
sg25
F35.0
sg26
F1.0
sg27
F0.0
ssI4
(dp30
g24
F11.0
sg25
F0.0
sg26
F1.0
sg27
F10.0
ssI5
(dp31
g24
F2.0
sg25
F0.0
sg26
F1.0
sg27
F9.0
ssI6
(dp32
g24
F9.0
sg25
F0.0
sg26
F0.0
sg27
F1.0
ssI7
(dp33
g24
F0.0
sg25
F0.0
sg26
F12.0
sg27
F1.0
sssS'tprob_'
p34
(dp35
I3
F0.5138888888888888
sI5
F0.16666666666666666
sI6
F0.1388888888888889
sI7
F0.18055555555555555
ssS'threshold'
p36
(dp37
I1
F1.1102230246251599e-15
sI2
F1.2212453270876698e-15
sI4
F0.00585853887250576
ssS'children'
p38
(dp39
I1
c__builtin__
set
p40
((lp41
I2
aI7
atp42
Rp43
sI2
g40
((lp44
I3
aI4
atp45
Rp46
sI3
g40
((lp47
tp48
Rp49
sI4
g40
((lp50
I5
aI6
atp51
Rp52
sI5
g40
((lp53
tp54
Rp55
sI6
g40
((lp56
tp57
Rp58
sI7
g40
((lp59
tp60
Rp61
ssS'children_right'
p62
(dp63
I1
I7
sI2
I4
sI3
NsI4
I6
sI5
NsI6
NsI7
NssS'feature'
p64
(dp65
I1
g15
sI2
g14
sI3
S'3'
p66
sI4
g16
sI5
S'5'
p67
sI6
S'6'
p68
sI7
S'7'
p69
ssS'nodes'
p70
crpy2.robjects.robject
_reduce_robjectmixin
p71
(S'X\n\x00\x00\x00\x02\x00\x03\x04\x04\x00\x02\x03\x00\x00\x00\x00\r\x00\x00\x00\x07\x00\x00\x00\x01\x00\x00\x00\x02\x00\x00\x00\x03\x00\x00\x00\x04\x00\x00\x00\x05\x00\x00\x00\x06\x00\x00\x00\x07'
p72
I13
crpy2.rinterface._rinterface
unserialize
p73
crpy2.robjects.vectors
IntVector
p74
tp75
Rp76
(dp77
S'ro'
p78
g0
(crpy2.robjects.vectors
VectorOperationsDelegator
p79
g2
Ntp80
Rp81
(dp82
S'_parent'
p83
g76
sbsS'rx'
p84
g0
(crpy2.robjects.vectors
ExtractDelegator
p85
g2
Ntp86
Rp87
(dp88
g83
g76
sbsS'rx2'
p89
g0
(crpy2.robjects.vectors
DoubleExtractDelegator
p90
g2
Ntp91
Rp92
(dp93
g83
g76
sbsbsS'response_var_'
p94
S'P95'
p95
sS'edge_cond_'
p96
(dp97
(I1
I2
tp98
(lp99
g24
ag25
ag26
as(I4
I6
tp100
(lp101
g25
ag26
as(I4
I5
tp102
(lp103
g24
ag27
as(I2
I3
tp104
(lp105
S'A'
p106
as(I1
I7
tp107
(lp108
S'G'
p109
as(I2
I4
tp110
(lp111
g25
aS'R'
p112
ag26
ag27
assS'class_pred_'
p113
g22
sS'CLASSES'
p114
cnumpy.core.multiarray
_reconstruct
p115
(cnumpy
ndarray
p116
(I0
tp117
S'b'
p118
tp119
Rp120
(I1
(I4
tp121
cnumpy
dtype
p122
(S'O8'
p123
I0
I1
tp124
Rp125
(I3
S'|'
p126
NNNI-1
I-1
I63
tp127
bI00
(lp128
g24
ag25
ag27
ag26
atp129
bsS'TREE_LEAF'
p130
(dp131
I1
I00
sI2
I00
sI3
I01
sI4
I00
sI5
I01
sI6
I01
sI7
I01
ssS'num_pass_'
p132
(dp133
I1
I72
sI2
I59
sI3
I37
sI4
I22
sI5
I12
sI6
I10
sI7
I13
ssS'error'
p134
(dp135
I1
F51.388888888888886
sI2
F40.67796610169491
sI3
F5.405405405405405
sI4
F50.0
sI5
F24.999999999999996
sI6
F10.0
sI7
F7.6923076923076925
ssS'pvalue'
p136
g37
sS'class_names'
p137
g120
sS'n_node_samples'
p138
g133
sb.