ccopy_reg
_reconstructor
p0
(cmlx
tree_
p1
c__builtin__
object
p2
Ntp3
Rp4
(dp5
S'decision_rules_'
p6
(dp7
I3
S'P347 %in% c("A", "G", "T") & P12 %in% c("A")'
p8
sI5
S'P347 %in% c("A", "G", "T") & P12 %in% c("C", "G", "R", "T") & P161 %in% c("A", "C", "G")'
p9
sI6
S'P347 %in% c("A", "G", "T") & P12 %in% c("C", "G", "R", "T") & P161 %in% c("T")'
p10
sI7
S'P347 %in% c("C")'
p11
ssS'significant_feature_weight_'
p12
(dp13
S'P12'
p14
F0.8467741715270263
sS'P347'
p15
F0.4783950525026582
sS'P161'
p16
F0.0
ssS'children_left'
p17
(dp18
I1
I2
sI2
I3
sI3
NsI4
I5
sI5
NsI6
NsI7
NssS'ACCx_'
p19
F0.5138888888888888
sS'ACC_'
p20
F0.8472222222222222
sS'value'
p21
(dp22
I1
(dp23
S'A'
p24
F20.0
sS'C'
p25
F4.0
sS'T'
p26
F9.0
sS'G'
p27
F39.0
ssI2
(dp28
g24
F20.0
sg25
F2.0
sg26
F1.0
sg27
F39.0
ssI3
(dp29
g24
F1.0
sg25
F0.0
sg26
F0.0
sg27
F34.0
ssI4
(dp30
g24
F19.0
sg25
F2.0
sg26
F1.0
sg27
F5.0
ssI5
(dp31
g24
F11.0
sg25
F2.0
sg26
F1.0
sg27
F1.0
ssI6
(dp32
g24
F8.0
sg25
F0.0
sg26
F0.0
sg27
F4.0
ssI7
(dp33
g24
F0.0
sg25
F2.0
sg26
F8.0
sg27
F0.0
sssS'tprob_'
p34
(dp35
I3
F0.4861111111111111
sI5
F0.20833333333333334
sI6
F0.16666666666666666
sI7
F0.1388888888888889
ssS'threshold'
p36
(dp37
I1
F1.3544720900426902e-14
sI2
F4.08562073062058e-14
sI4
F0.0017085745174045801
ssS'children'
p38
(dp39
I1
c__builtin__
set
p40
((lp41
I2
aI7
atp42
Rp43
sI2
g40
((lp44
I3
aI4
atp45
Rp46
sI3
g40
((lp47
tp48
Rp49
sI4
g40
((lp50
I5
aI6
atp51
Rp52
sI5
g40
((lp53
tp54
Rp55
sI6
g40
((lp56
tp57
Rp58
sI7
g40
((lp59
tp60
Rp61
ssS'children_right'
p62
(dp63
I1
I7
sI2
I4
sI3
NsI4
I6
sI5
NsI6
NsI7
NssS'feature'
p64
(dp65
I1
g15
sI2
g14
sI3
S'3'
p66
sI4
g16
sI5
S'5'
p67
sI6
S'6'
p68
sI7
S'7'
p69
ssS'nodes'
p70
crpy2.robjects.robject
_reduce_robjectmixin
p71
(S'X\n\x00\x00\x00\x02\x00\x03\x04\x04\x00\x02\x03\x00\x00\x00\x00\r\x00\x00\x00\x07\x00\x00\x00\x01\x00\x00\x00\x02\x00\x00\x00\x03\x00\x00\x00\x04\x00\x00\x00\x05\x00\x00\x00\x06\x00\x00\x00\x07'
p72
I13
crpy2.rinterface._rinterface
unserialize
p73
crpy2.robjects.vectors
IntVector
p74
tp75
Rp76
(dp77
S'ro'
p78
g0
(crpy2.robjects.vectors
VectorOperationsDelegator
p79
g2
Ntp80
Rp81
(dp82
S'_parent'
p83
g76
sbsS'rx'
p84
g0
(crpy2.robjects.vectors
ExtractDelegator
p85
g2
Ntp86
Rp87
(dp88
g83
g76
sbsS'rx2'
p89
g0
(crpy2.robjects.vectors
DoubleExtractDelegator
p90
g2
Ntp91
Rp92
(dp93
g83
g76
sbsbsS'response_var_'
p94
S'P384'
p95
sS'edge_cond_'
p96
(dp97
(I1
I2
tp98
(lp99
g24
ag26
ag27
as(I4
I6
tp100
(lp101
S'T'
p102
as(I4
I5
tp103
(lp104
g24
ag25
ag27
as(I2
I3
tp105
(lp106
S'A'
p107
as(I1
I7
tp108
(lp109
S'C'
p110
as(I2
I4
tp111
(lp112
g25
aS'R'
p113
ag26
ag27
assS'class_pred_'
p114
g22
sS'CLASSES'
p115
cnumpy.core.multiarray
_reconstruct
p116
(cnumpy
ndarray
p117
(I0
tp118
S'b'
p119
tp120
Rp121
(I1
(I4
tp122
cnumpy
dtype
p123
(S'O8'
p124
I0
I1
tp125
Rp126
(I3
S'|'
p127
NNNI-1
I-1
I63
tp128
bI00
(lp129
g24
ag25
ag27
ag26
atp130
bsS'TREE_LEAF'
p131
(dp132
I1
I00
sI2
I00
sI3
I01
sI4
I00
sI5
I01
sI6
I01
sI7
I01
ssS'num_pass_'
p133
(dp134
I1
I72
sI2
I62
sI3
I35
sI4
I27
sI5
I15
sI6
I12
sI7
I10
ssS'error'
p135
(dp136
I1
F45.833333333333336
sI2
F37.096774193548384
sI3
F2.857142857142857
sI4
F29.62962962962963
sI5
F26.666666666666668
sI6
F33.33333333333333
sI7
F20.0
ssS'pvalue'
p137
g37
sS'class_names'
p138
g121
sS'n_node_samples'
p139
g134
sb.