ccopy_reg
_reconstructor
p0
(cmlx
tree_
p1
c__builtin__
object
p2
Ntp3
Rp4
(dp5
S'decision_rules_'
p6
(dp7
I8
S'P158 %in% c("C", "G", "T") & P276 %in% c("G") & P226 %in% c("A", "C", "G")'
p8
sI9
S'P158 %in% c("C", "G", "T") & P276 %in% c("G") & P226 %in% c("T")'
p9
sI2
S'P158 %in% c("A")'
p10
sI5
S'P158 %in% c("C", "G", "T") & P276 %in% c("A", "C", "T") & P388 %in% c("A", "C", "G")'
p11
sI6
S'P158 %in% c("C", "G", "T") & P276 %in% c("A", "C", "T") & P388 %in% c("T")'
p12
ssS'significant_feature_weight_'
p13
(dp14
S'P276'
p15
F0.7504873063437754
sS'P158'
p16
F0.6597222094996332
sS'P226'
p17
F0.3714285411251904
sS'P388'
p18
F0.3030302404776153
ssS'children_left'
p19
(dp20
I1
I2
sI2
NsI3
I4
sI4
I5
sI5
NsI6
NsI7
I8
sI8
NsI9
NssS'ACCx_'
p21
F0.6666666666666667
sS'ACC_'
p22
F0.875
sS'value'
p23
(dp24
I1
(dp25
S'A'
p26
F13.0
sS'C'
p27
F27.0
sS'T'
p28
F16.0
sS'G'
p29
F16.0
ssI2
(dp30
g26
F0.0
sg27
F1.0
sg28
F1.0
sg29
F13.0
ssI3
(dp31
g26
F13.0
sg27
F26.0
sg28
F15.0
sg29
F3.0
ssI4
(dp32
g26
F9.0
sg27
F0.0
sg28
F10.0
sg29
F3.0
ssI5
(dp33
g26
F9.0
sg27
F0.0
sg28
F0.0
sg29
F3.0
ssI6
(dp34
g26
F0.0
sg27
F0.0
sg28
F10.0
sg29
F0.0
ssI7
(dp35
g26
F4.0
sg27
F26.0
sg28
F5.0
sg29
F0.0
ssI8
(dp36
g26
F4.0
sg27
F0.0
sg28
F5.0
sg29
F0.0
ssI9
(dp37
g26
F0.0
sg27
F26.0
sg28
F0.0
sg29
F0.0
sssS'tprob_'
p38
(dp39
I8
F0.125
sI9
F0.3611111111111111
sI2
F0.20833333333333334
sI5
F0.16666666666666666
sI6
F0.1388888888888889
ssS'threshold'
p40
(dp41
I1
F3.4416913763379896e-15
sI3
F1.11288755988426e-12
sI4
F0.00171801763842849
sI7
F4.19199674972504e-10
ssS'children'
p42
(dp43
I1
c__builtin__
set
p44
((lp45
I2
aI3
atp46
Rp47
sI2
g44
((lp48
tp49
Rp50
sI3
g44
((lp51
I4
aI7
atp52
Rp53
sI4
g44
((lp54
I5
aI6
atp55
Rp56
sI5
g44
((lp57
tp58
Rp59
sI6
g44
((lp60
tp61
Rp62
sI7
g44
((lp63
I8
aI9
atp64
Rp65
sI8
g44
((lp66
tp67
Rp68
sI9
g44
((lp69
tp70
Rp71
ssS'children_right'
p72
(dp73
I1
I3
sI2
NsI3
I7
sI4
I6
sI5
NsI6
NsI7
I9
sI8
NsI9
NssS'feature'
p74
(dp75
I1
g16
sI2
S'2'
p76
sI3
g15
sI4
g18
sI5
S'5'
p77
sI6
S'6'
p78
sI7
g17
sI8
S'8'
p79
sI9
S'9'
p80
ssS'nodes'
p81
crpy2.robjects.robject
_reduce_robjectmixin
p82
(S'X\n\x00\x00\x00\x02\x00\x03\x04\x04\x00\x02\x03\x00\x00\x00\x00\r\x00\x00\x00\t\x00\x00\x00\x01\x00\x00\x00\x02\x00\x00\x00\x03\x00\x00\x00\x04\x00\x00\x00\x05\x00\x00\x00\x06\x00\x00\x00\x07\x00\x00\x00\x08\x00\x00\x00\t'
p83
I13
crpy2.rinterface._rinterface
unserialize
p84
crpy2.robjects.vectors
IntVector
p85
tp86
Rp87
(dp88
S'ro'
p89
g0
(crpy2.robjects.vectors
VectorOperationsDelegator
p90
g2
Ntp91
Rp92
(dp93
S'_parent'
p94
g87
sbsS'rx'
p95
g0
(crpy2.robjects.vectors
ExtractDelegator
p96
g2
Ntp97
Rp98
(dp99
g94
g87
sbsS'rx2'
p100
g0
(crpy2.robjects.vectors
DoubleExtractDelegator
p101
g2
Ntp102
Rp103
(dp104
g94
g87
sbsbsS'response_var_'
p105
S'P229'
p106
sS'edge_cond_'
p107
(dp108
(I1
I2
tp109
(lp110
S'A'
p111
as(I1
I3
tp112
(lp113
g27
ag28
ag29
as(I4
I6
tp114
(lp115
S'T'
p116
as(I4
I5
tp117
(lp118
g26
ag27
ag29
as(I7
I8
tp119
(lp120
g26
ag27
ag29
as(I3
I7
tp121
(lp122
S'G'
p123
as(I3
I4
tp124
(lp125
g26
ag27
ag28
as(I7
I9
tp126
(lp127
S'T'
p128
assS'class_pred_'
p129
g24
sS'CLASSES'
p130
cnumpy.core.multiarray
_reconstruct
p131
(cnumpy
ndarray
p132
(I0
tp133
S'b'
p134
tp135
Rp136
(I1
(I4
tp137
cnumpy
dtype
p138
(S'O8'
p139
I0
I1
tp140
Rp141
(I3
S'|'
p142
NNNI-1
I-1
I63
tp143
bI00
(lp144
g26
ag27
ag29
ag28
atp145
bsS'TREE_LEAF'
p146
(dp147
I1
I00
sI2
I01
sI3
I00
sI4
I00
sI5
I01
sI6
I01
sI7
I00
sI8
I01
sI9
I01
ssS'num_pass_'
p148
(dp149
I1
I72
sI2
I15
sI3
I57
sI4
I22
sI5
I12
sI6
I10
sI7
I35
sI8
I9
sI9
I26
ssS'error'
p150
(dp151
I1
F62.5
sI2
F13.333333333333334
sI3
F54.3859649122807
sI4
F54.54545454545455
sI5
F25.0
sI6
F0.0
sI7
F25.714285714285715
sI8
F44.44444444444444
sI9
F0.0
ssS'pvalue'
p152
g41
sS'class_names'
p153
g136
sS'n_node_samples'
p154
g149
sb.