ccopy_reg
_reconstructor
p0
(cmlx
tree_
p1
c__builtin__
object
p2
Ntp3
Rp4
(dp5
S'decision_rules_'
p6
(dp7
I2
S'P70 %in% c("A")'
p8
sI5
S'P70 %in% c("C", "G", "T") & P0 %in% c("A", "C") & P327 %in% c("A", "G", "T")'
p9
sI6
S'P70 %in% c("C", "G", "T") & P0 %in% c("A", "C") & P327 %in% c("C")'
p10
sI7
S'P70 %in% c("C", "G", "T") & P0 %in% c("G", "T")'
p11
ssS'significant_feature_weight_'
p12
(dp13
S'P327'
p14
F0.0
sS'P0'
p15
F0.5483538906669797
sS'P70'
p16
F0.7499999855364254
ssS'children_left'
p17
(dp18
I1
I2
sI2
NsI3
I4
sI4
I5
sI5
NsI6
NsI7
NssS'ACCx_'
p19
F0.7361111111111112
sS'ACC_'
p20
F0.8888888888888888
sS'value'
p21
(dp22
I1
(dp23
S'A'
p24
F36.0
sS'C'
p25
F17.0
sS'T'
p26
F14.0
sS'G'
p27
F5.0
ssI2
(dp28
g24
F0.0
sg25
F16.0
sg26
F2.0
sg27
F0.0
ssI3
(dp29
g24
F36.0
sg25
F1.0
sg26
F12.0
sg27
F5.0
ssI4
(dp30
g24
F36.0
sg25
F1.0
sg26
F0.0
sg27
F4.0
ssI5
(dp31
g24
F6.0
sg25
F1.0
sg26
F0.0
sg27
F4.0
ssI6
(dp32
g24
F30.0
sg25
F0.0
sg26
F0.0
sg27
F0.0
ssI7
(dp33
g24
F0.0
sg25
F0.0
sg26
F12.0
sg27
F1.0
sssS'tprob_'
p34
(dp35
I2
F0.25
sI5
F0.1527777777777778
sI6
F0.4166666666666667
sI7
F0.18055555555555555
ssS'threshold'
p36
(dp37
I1
I0
sI3
F2.7755575615628898e-15
sI4
F1.30284893984367e-10
ssS'children'
p38
(dp39
I1
c__builtin__
set
p40
((lp41
I2
aI3
atp42
Rp43
sI2
g40
((lp44
tp45
Rp46
sI3
g40
((lp47
I4
aI7
atp48
Rp49
sI4
g40
((lp50
I5
aI6
atp51
Rp52
sI5
g40
((lp53
tp54
Rp55
sI6
g40
((lp56
tp57
Rp58
sI7
g40
((lp59
tp60
Rp61
ssS'children_right'
p62
(dp63
I1
I3
sI2
NsI3
I7
sI4
I6
sI5
NsI6
NsI7
NssS'feature'
p64
(dp65
I1
g16
sI2
S'2'
p66
sI3
g15
sI4
g14
sI5
S'5'
p67
sI6
S'6'
p68
sI7
S'7'
p69
ssS'nodes'
p70
crpy2.robjects.robject
_reduce_robjectmixin
p71
(S'X\n\x00\x00\x00\x02\x00\x03\x04\x04\x00\x02\x03\x00\x00\x00\x00\r\x00\x00\x00\x07\x00\x00\x00\x01\x00\x00\x00\x02\x00\x00\x00\x03\x00\x00\x00\x04\x00\x00\x00\x05\x00\x00\x00\x06\x00\x00\x00\x07'
p72
I13
crpy2.rinterface._rinterface
unserialize
p73
crpy2.robjects.vectors
IntVector
p74
tp75
Rp76
(dp77
S'ro'
p78
g0
(crpy2.robjects.vectors
VectorOperationsDelegator
p79
g2
Ntp80
Rp81
(dp82
S'_parent'
p83
g76
sbsS'rx'
p84
g0
(crpy2.robjects.vectors
ExtractDelegator
p85
g2
Ntp86
Rp87
(dp88
g83
g76
sbsS'rx2'
p89
g0
(crpy2.robjects.vectors
DoubleExtractDelegator
p90
g2
Ntp91
Rp92
(dp93
g83
g76
sbsbsS'response_var_'
p94
S'P59'
p95
sS'edge_cond_'
p96
(dp97
(I1
I2
tp98
(lp99
S'A'
p100
as(I1
I3
tp101
(lp102
g25
ag26
ag27
as(I4
I6
tp103
(lp104
S'C'
p105
as(I4
I5
tp106
(lp107
g24
ag26
ag27
as(I3
I7
tp108
(lp109
g26
ag27
as(I3
I4
tp110
(lp111
g24
ag25
assS'class_pred_'
p112
g22
sS'CLASSES'
p113
cnumpy.core.multiarray
_reconstruct
p114
(cnumpy
ndarray
p115
(I0
tp116
S'b'
p117
tp118
Rp119
(I1
(I4
tp120
cnumpy
dtype
p121
(S'O8'
p122
I0
I1
tp123
Rp124
(I3
S'|'
p125
NNNI-1
I-1
I63
tp126
bI00
(lp127
g24
ag25
ag27
ag26
atp128
bsS'TREE_LEAF'
p129
(dp130
I1
I00
sI2
I01
sI3
I00
sI4
I00
sI5
I01
sI6
I01
sI7
I01
ssS'num_pass_'
p131
(dp132
I1
I72
sI2
I18
sI3
I54
sI4
I41
sI5
I11
sI6
I30
sI7
I13
ssS'error'
p133
(dp134
I1
F50.0
sI2
F11.11111111111111
sI3
F33.333333333333336
sI4
F12.195121951219512
sI5
F45.45454545454546
sI6
F0.0
sI7
F7.6923076923076925
ssS'pvalue'
p135
g37
sS'class_names'
p136
g119
sS'n_node_samples'
p137
g132
sb.