ccopy_reg
_reconstructor
p0
(cmlx
tree_
p1
c__builtin__
object
p2
Ntp3
Rp4
(dp5
S'decision_rules_'
p6
(dp7
I3
S'P247 %in% c("A", "C", "G", "R") & P131 %in% c("A", "C", "G")'
p8
sI4
S'P247 %in% c("A", "C", "G", "R") & P131 %in% c("T")'
p9
sI6
S'P247 %in% c("T") & P90 %in% c("A", "C", "T")'
p10
sI7
S'P247 %in% c("T") & P90 %in% c("G")'
p11
ssS'significant_feature_weight_'
p12
(dp13
S'P90'
p14
F0.0
sS'P131'
p15
F0.43749995730208097
sS'P247'
p16
F0.9876543019409716
ssS'children_left'
p17
(dp18
I1
I2
sI2
I3
sI3
NsI4
NsI5
I6
sI6
NsI7
NssS'ACCx_'
p19
F0.5277777777777778
sS'ACC_'
p20
F0.8888888888888888
sS'value'
p21
(dp22
I1
(dp23
S'A'
p24
F17.0
sS'C'
p25
F36.0
sS'T'
p26
F2.0
sS'G'
p27
F17.0
ssI2
(dp28
g24
F15.0
sg25
F1.0
sg26
F2.0
sg27
F14.0
ssI3
(dp29
g24
F15.0
sg25
F1.0
sg26
F2.0
sg27
F0.0
ssI4
(dp30
g24
F0.0
sg25
F0.0
sg26
F0.0
sg27
F14.0
ssI5
(dp31
g24
F2.0
sg25
F35.0
sg26
F0.0
sg27
F3.0
ssI6
(dp32
g24
F2.0
sg25
F4.0
sg26
F0.0
sg27
F3.0
ssI7
(dp33
g24
F0.0
sg25
F31.0
sg26
F0.0
sg27
F0.0
sssS'tprob_'
p34
(dp35
I3
F0.25
sI4
F0.19444444444444445
sI6
F0.125
sI7
F0.4305555555555556
ssS'threshold'
p36
(dp37
I1
F2.7755575615628898e-15
sI2
F1.2468178056668198e-07
sI5
F3.688493954712161e-12
ssS'children'
p38
(dp39
I1
c__builtin__
set
p40
((lp41
I2
aI5
atp42
Rp43
sI2
g40
((lp44
I3
aI4
atp45
Rp46
sI3
g40
((lp47
tp48
Rp49
sI4
g40
((lp50
tp51
Rp52
sI5
g40
((lp53
I6
aI7
atp54
Rp55
sI6
g40
((lp56
tp57
Rp58
sI7
g40
((lp59
tp60
Rp61
ssS'children_right'
p62
(dp63
I1
I5
sI2
I4
sI3
NsI4
NsI5
I7
sI6
NsI7
NssS'feature'
p64
(dp65
I1
g16
sI2
g15
sI3
S'3'
p66
sI4
S'4'
p67
sI5
g14
sI6
S'6'
p68
sI7
S'7'
p69
ssS'nodes'
p70
crpy2.robjects.robject
_reduce_robjectmixin
p71
(S'X\n\x00\x00\x00\x02\x00\x03\x04\x04\x00\x02\x03\x00\x00\x00\x00\r\x00\x00\x00\x07\x00\x00\x00\x01\x00\x00\x00\x02\x00\x00\x00\x03\x00\x00\x00\x04\x00\x00\x00\x05\x00\x00\x00\x06\x00\x00\x00\x07'
p72
I13
crpy2.rinterface._rinterface
unserialize
p73
crpy2.robjects.vectors
IntVector
p74
tp75
Rp76
(dp77
S'ro'
p78
g0
(crpy2.robjects.vectors
VectorOperationsDelegator
p79
g2
Ntp80
Rp81
(dp82
S'_parent'
p83
g76
sbsS'rx'
p84
g0
(crpy2.robjects.vectors
ExtractDelegator
p85
g2
Ntp86
Rp87
(dp88
g83
g76
sbsS'rx2'
p89
g0
(crpy2.robjects.vectors
DoubleExtractDelegator
p90
g2
Ntp91
Rp92
(dp93
g83
g76
sbsbsS'response_var_'
p94
S'P294'
p95
sS'edge_cond_'
p96
(dp97
(I1
I2
tp98
(lp99
g24
ag25
aS'R'
p100
ag27
as(I5
I6
tp101
(lp102
g24
ag25
ag26
as(I5
I7
tp103
(lp104
S'G'
p105
as(I1
I5
tp106
(lp107
S'T'
p108
as(I2
I3
tp109
(lp110
g24
ag25
ag27
as(I2
I4
tp111
(lp112
S'T'
p113
assS'class_pred_'
p114
g22
sS'CLASSES'
p115
cnumpy.core.multiarray
_reconstruct
p116
(cnumpy
ndarray
p117
(I0
tp118
S'b'
p119
tp120
Rp121
(I1
(I4
tp122
cnumpy
dtype
p123
(S'O8'
p124
I0
I1
tp125
Rp126
(I3
S'|'
p127
NNNI-1
I-1
I63
tp128
bI00
(lp129
g24
ag25
ag27
ag26
atp130
bsS'TREE_LEAF'
p131
(dp132
I1
I00
sI2
I00
sI3
I01
sI4
I01
sI5
I00
sI6
I01
sI7
I01
ssS'num_pass_'
p133
(dp134
I1
I72
sI2
I32
sI3
I18
sI4
I14
sI5
I40
sI6
I9
sI7
I31
ssS'error'
p135
(dp136
I1
F50.0
sI2
F53.125
sI3
F16.666666666666664
sI4
F0.0
sI5
F12.5
sI6
F55.55555555555555
sI7
F0.0
ssS'pvalue'
p137
g37
sS'class_names'
p138
g121
sS'n_node_samples'
p139
g134
sb.