ccopy_reg
_reconstructor
p0
(cmlx
tree_
p1
c__builtin__
object
p2
Ntp3
Rp4
(dp5
S'decision_rules_'
p6
(dp7
I8
S'P235 %in% c("C", "G", "T", "Y") & P156 %in% c("C", "G") & P265 %in% c("A")'
p8
sI9
S'P235 %in% c("C", "G", "T", "Y") & P156 %in% c("C", "G") & P265 %in% c("C", "G", "T")'
p9
sI3
S'P235 %in% c("A") & P123 %in% c("A", "NA")'
p10
sI4
S'P235 %in% c("A") & P123 %in% c("NA", "G", "T")'
p11
sI6
S'P235 %in% c("C", "G", "T", "Y") & P156 %in% c("A", "T")'
p12
ssS'significant_feature_weight_'
p13
(dp14
S'P156'
p15
F0.6100217630482134
sS'P265'
p16
F0.0
sS'P123'
p17
F0.0
sS'P235'
p18
F0.8263888729521723
ssS'children_left'
p19
(dp20
I1
I2
sI2
I3
sI3
NsI4
NsI5
I6
sI6
NsI7
I8
sI8
NsI9
NssS'ACCx_'
p21
F0.7083333333333333
sS'ACC_'
p22
F0.8333333333333334
sS'value'
p23
(dp24
I1
(dp25
S'A'
p26
F16.0
sS'C'
p27
F4.0
sS'T'
p28
F19.0
sS'G'
p29
F33.0
ssI2
(dp30
g26
F3.0
sg27
F0.0
sg28
F18.0
sg29
F0.0
ssI3
(dp31
g26
F0.0
sg27
F0.0
sg28
F10.0
sg29
F0.0
ssI4
(dp32
g26
F3.0
sg27
F0.0
sg28
F8.0
sg29
F0.0
ssI5
(dp33
g26
F13.0
sg27
F4.0
sg28
F1.0
sg29
F33.0
ssI6
(dp34
g26
F10.0
sg27
F4.0
sg28
F1.0
sg29
F1.0
ssI7
(dp35
g26
F3.0
sg27
F0.0
sg28
F0.0
sg29
F32.0
ssI8
(dp36
g26
F0.0
sg27
F0.0
sg28
F0.0
sg29
F27.0
ssI9
(dp37
g26
F3.0
sg27
F0.0
sg28
F0.0
sg29
F5.0
sssS'tprob_'
p38
(dp39
I8
F0.375
sI9
F0.1111111111111111
sI3
F0.1388888888888889
sI4
F0.1527777777777778
sI6
F0.2222222222222222
ssS'threshold'
p40
(dp41
I1
F1.8873791418627697e-15
sI2
F0.0179518931557652
sI5
F2.9572677640032894e-11
sI7
F7.90462713109452e-05
ssS'children'
p42
(dp43
I1
c__builtin__
set
p44
((lp45
I2
aI5
atp46
Rp47
sI2
g44
((lp48
I3
aI4
atp49
Rp50
sI3
g44
((lp51
tp52
Rp53
sI4
g44
((lp54
tp55
Rp56
sI5
g44
((lp57
I6
aI7
atp58
Rp59
sI6
g44
((lp60
tp61
Rp62
sI7
g44
((lp63
I8
aI9
atp64
Rp65
sI8
g44
((lp66
tp67
Rp68
sI9
g44
((lp69
tp70
Rp71
ssS'children_right'
p72
(dp73
I1
I5
sI2
I4
sI3
NsI4
NsI5
I7
sI6
NsI7
I9
sI8
NsI9
NssS'feature'
p74
(dp75
I1
g18
sI2
g17
sI3
S'3'
p76
sI4
S'4'
p77
sI5
g15
sI6
S'6'
p78
sI7
g16
sI8
S'8'
p79
sI9
S'9'
p80
ssS'nodes'
p81
crpy2.robjects.robject
_reduce_robjectmixin
p82
(S'X\n\x00\x00\x00\x02\x00\x03\x04\x04\x00\x02\x03\x00\x00\x00\x00\r\x00\x00\x00\t\x00\x00\x00\x01\x00\x00\x00\x02\x00\x00\x00\x03\x00\x00\x00\x04\x00\x00\x00\x05\x00\x00\x00\x06\x00\x00\x00\x07\x00\x00\x00\x08\x00\x00\x00\t'
p83
I13
crpy2.rinterface._rinterface
unserialize
p84
crpy2.robjects.vectors
IntVector
p85
tp86
Rp87
(dp88
S'ro'
p89
g0
(crpy2.robjects.vectors
VectorOperationsDelegator
p90
g2
Ntp91
Rp92
(dp93
S'_parent'
p94
g87
sbsS'rx'
p95
g0
(crpy2.robjects.vectors
ExtractDelegator
p96
g2
Ntp97
Rp98
(dp99
g94
g87
sbsS'rx2'
p100
g0
(crpy2.robjects.vectors
DoubleExtractDelegator
p101
g2
Ntp102
Rp103
(dp104
g94
g87
sbsbsS'response_var_'
p105
S'P214'
p106
sS'edge_cond_'
p107
(dp108
(I1
I2
tp109
(lp110
S'A'
p111
as(I5
I6
tp112
(lp113
g26
ag28
as(I5
I7
tp114
(lp115
g27
ag29
as(I1
I5
tp116
(lp117
S'Y'
p118
ag27
ag28
ag29
as(I2
I3
tp119
(lp120
g26
as(I7
I8
tp121
(lp122
S'A'
p123
as(I2
I4
tp124
(lp125
g28
ag29
as(I7
I9
tp126
(lp127
g27
ag28
ag29
assS'class_pred_'
p128
g24
sS'CLASSES'
p129
cnumpy.core.multiarray
_reconstruct
p130
(cnumpy
ndarray
p131
(I0
tp132
S'b'
p133
tp134
Rp135
(I1
(I4
tp136
cnumpy
dtype
p137
(S'O8'
p138
I0
I1
tp139
Rp140
(I3
S'|'
p141
NNNI-1
I-1
I63
tp142
bI00
(lp143
g26
ag27
ag29
ag28
atp144
bsS'TREE_LEAF'
p145
(dp146
I1
I00
sI2
I00
sI3
I01
sI4
I01
sI5
I00
sI6
I01
sI7
I00
sI8
I01
sI9
I01
ssS'num_pass_'
p147
(dp148
I1
I72
sI2
I21
sI3
I10
sI4
I11
sI5
I51
sI6
I16
sI7
I35
sI8
I27
sI9
I8
ssS'error'
p149
(dp150
I1
F54.166666666666664
sI2
F14.285714285714285
sI3
F0.0
sI4
F27.27272727272727
sI5
F35.29411764705882
sI6
F37.5
sI7
F8.571428571428571
sI8
F0.0
sI9
F37.5
ssS'pvalue'
p151
g41
sS'class_names'
p152
g135
sS'n_node_samples'
p153
g148
sb.