ccopy_reg
_reconstructor
p0
(cmlx
tree_
p1
c__builtin__
object
p2
Ntp3
Rp4
(dp5
S'decision_rules_'
p6
(dp7
I8
S'P295 %in% c("A", "C", "T") & P131 %in% c("C", "G", "T") & P112 %in% c("C", "G", "T")'
p8
sI9
S'P295 %in% c("G")'
p9
sI4
S'P295 %in% c("A", "C", "T") & P131 %in% c("A") & P269 %in% c("A", "G", "T")'
p10
sI5
S'P295 %in% c("A", "C", "T") & P131 %in% c("A") & P269 %in% c("C")'
p11
sI7
S'P295 %in% c("A", "C", "T") & P131 %in% c("C", "G", "T") & P112 %in% c("A")'
p12
ssS'significant_feature_weight_'
p13
(dp14
S'P112'
p15
F0.2910052250804972
sS'P295'
p16
F0.5918209762411917
sS'P131'
p17
F0.7514124077997383
sS'P269'
p18
F0.43421049626162844
ssS'children_left'
p19
(dp20
I1
I9
sI2
I3
sI3
I4
sI4
NsI5
NsI6
I8
sI7
NsI8
NsI9
NssS'ACCx_'
p21
F0.7083333333333333
sS'ACC_'
p22
F0.8888888888888888
sS'value'
p23
(dp24
I1
(dp25
S'A'
p26
F31.0
sS'C'
p27
F12.0
sS'T'
p28
F12.0
sS'G'
p29
F17.0
ssI2
(dp30
g26
F30.0
sg27
F11.0
sg28
F1.0
sg29
F17.0
ssI3
(dp31
g26
F30.0
sg27
F1.0
sg28
F0.0
sg29
F7.0
ssI4
(dp32
g26
F3.0
sg27
F1.0
sg28
F0.0
sg29
F7.0
ssI5
(dp33
g26
F27.0
sg27
F0.0
sg28
F0.0
sg29
F0.0
ssI6
(dp34
g26
F0.0
sg27
F10.0
sg28
F1.0
sg29
F10.0
ssI7
(dp35
g26
F0.0
sg27
F10.0
sg28
F0.0
sg29
F1.0
ssI8
(dp36
g26
F0.0
sg27
F0.0
sg28
F1.0
sg29
F9.0
ssI9
(dp37
g26
F1.0
sg27
F1.0
sg28
F11.0
sg29
F0.0
sssS'tprob_'
p38
(dp39
I8
F0.1388888888888889
sI9
F0.18055555555555555
sI4
F0.1527777777777778
sI5
F0.375
sI7
F0.1527777777777778
ssS'threshold'
p40
(dp41
I1
F1.11022302462516e-16
sI2
I0
sI3
F2.48181797335434e-09
sI6
F0.0009341904822169901
ssS'children'
p42
(dp43
I1
c__builtin__
set
p44
((lp45
I9
aI2
atp46
Rp47
sI2
g44
((lp48
I3
aI6
atp49
Rp50
sI3
g44
((lp51
I4
aI5
atp52
Rp53
sI4
g44
((lp54
tp55
Rp56
sI5
g44
((lp57
tp58
Rp59
sI6
g44
((lp60
I8
aI7
atp61
Rp62
sI7
g44
((lp63
tp64
Rp65
sI8
g44
((lp66
tp67
Rp68
sI9
g44
((lp69
tp70
Rp71
ssS'children_right'
p72
(dp73
I1
I2
sI2
I6
sI3
I5
sI4
NsI5
NsI6
I7
sI7
NsI8
NsI9
NssS'feature'
p74
(dp75
I1
g16
sI2
g17
sI3
g18
sI4
S'4'
p76
sI5
S'5'
p77
sI6
g15
sI7
S'7'
p78
sI8
S'8'
p79
sI9
S'9'
p80
ssS'nodes'
p81
crpy2.robjects.robject
_reduce_robjectmixin
p82
(S'X\n\x00\x00\x00\x02\x00\x03\x04\x04\x00\x02\x03\x00\x00\x00\x00\r\x00\x00\x00\t\x00\x00\x00\x01\x00\x00\x00\x02\x00\x00\x00\x03\x00\x00\x00\x04\x00\x00\x00\x05\x00\x00\x00\x06\x00\x00\x00\x07\x00\x00\x00\x08\x00\x00\x00\t'
p83
I13
crpy2.rinterface._rinterface
unserialize
p84
crpy2.robjects.vectors
IntVector
p85
tp86
Rp87
(dp88
S'ro'
p89
g0
(crpy2.robjects.vectors
VectorOperationsDelegator
p90
g2
Ntp91
Rp92
(dp93
S'_parent'
p94
g87
sbsS'rx'
p95
g0
(crpy2.robjects.vectors
ExtractDelegator
p96
g2
Ntp97
Rp98
(dp99
g94
g87
sbsS'rx2'
p100
g0
(crpy2.robjects.vectors
DoubleExtractDelegator
p101
g2
Ntp102
Rp103
(dp104
g94
g87
sbsbsS'response_var_'
p105
S'P359'
p106
sS'edge_cond_'
p107
(dp108
(I1
I2
tp109
(lp110
g26
ag27
ag28
as(I2
I6
tp111
(lp112
g27
ag28
ag29
as(I6
I7
tp113
(lp114
S'A'
p115
as(I6
I8
tp116
(lp117
g27
ag28
ag29
as(I2
I3
tp118
(lp119
S'A'
p120
as(I1
I9
tp121
(lp122
S'G'
p123
as(I3
I4
tp124
(lp125
g26
ag28
ag29
as(I3
I5
tp126
(lp127
S'C'
p128
assS'class_pred_'
p129
g24
sS'CLASSES'
p130
cnumpy.core.multiarray
_reconstruct
p131
(cnumpy
ndarray
p132
(I0
tp133
S'b'
p134
tp135
Rp136
(I1
(I4
tp137
cnumpy
dtype
p138
(S'O8'
p139
I0
I1
tp140
Rp141
(I3
S'|'
p142
NNNI-1
I-1
I63
tp143
bI00
(lp144
g26
ag27
ag29
ag28
atp145
bsS'TREE_LEAF'
p146
(dp147
I1
I00
sI2
I00
sI3
I00
sI4
I01
sI5
I01
sI6
I00
sI7
I01
sI8
I01
sI9
I01
ssS'num_pass_'
p148
(dp149
I1
I72
sI2
I59
sI3
I38
sI4
I11
sI5
I27
sI6
I21
sI7
I11
sI8
I10
sI9
I13
ssS'error'
p150
(dp151
I1
F56.94444444444444
sI2
F49.152542372881356
sI3
F21.052631578947366
sI4
F36.36363636363636
sI5
F0.0
sI6
F52.38095238095237
sI7
F9.090909090909092
sI8
F10.0
sI9
F15.384615384615385
ssS'pvalue'
p152
g41
sS'class_names'
p153
g136
sS'n_node_samples'
p154
g149
sb.