ccopy_reg
_reconstructor
p0
(cmlx
tree_
p1
c__builtin__
object
p2
Ntp3
Rp4
(dp5
S'decision_rules_'
p6
(dp7
I8
S'P364 %in% c("C", "G", "T") & P225 %in% c("T") & P236 %in% c("A", "C", "NA")'
p8
sI9
S'P364 %in% c("C", "G", "T") & P225 %in% c("T") & P236 %in% c("G", "NA")'
p9
sI2
S'P364 %in% c("A")'
p10
sI5
S'P364 %in% c("C", "G", "T") & P225 %in% c("A", "C", "G") & P370 %in% c("A", "C", "NA")'
p11
sI6
S'P364 %in% c("C", "G", "T") & P225 %in% c("A", "C", "G") & P370 %in% c("G", "NA")'
p12
ssS'significant_feature_weight_'
p13
(dp14
S'P370'
p15
F0.3055554924815954
sS'P236'
p16
F0.0
sS'P364'
p17
F0.4783950525026581
sS'P225'
p18
F0.7885304454431569
ssS'children_left'
p19
(dp20
I1
I2
sI2
NsI3
I4
sI4
I5
sI5
NsI6
NsI7
I8
sI8
NsI9
NssS'ACCx_'
p21
F0.48611111111111116
sS'ACC_'
p22
F0.8611111111111112
sS'value'
p23
(dp24
I1
(dp25
S'A'
p26
F13.0
sS'C'
p27
F38.0
sS'T'
p28
F13.0
sS'G'
p29
F8.0
ssI2
(dp30
g26
F0.0
sg27
F1.0
sg28
F1.0
sg29
F8.0
ssI3
(dp31
g26
F13.0
sg27
F37.0
sg28
F12.0
sg29
F0.0
ssI4
(dp32
g26
F12.0
sg27
F1.0
sg28
F9.0
sg29
F0.0
ssI5
(dp33
g26
F2.0
sg27
F1.0
sg28
F8.0
sg29
F0.0
ssI6
(dp34
g26
F10.0
sg27
F0.0
sg28
F1.0
sg29
F0.0
ssI7
(dp35
g26
F1.0
sg27
F36.0
sg28
F3.0
sg29
F0.0
ssI8
(dp36
g26
F1.0
sg27
F4.0
sg28
F3.0
sg29
F0.0
ssI9
(dp37
g26
F0.0
sg27
F32.0
sg28
F0.0
sg29
F0.0
sssS'tprob_'
p38
(dp39
I8
F0.1111111111111111
sI9
F0.4444444444444444
sI2
F0.1388888888888889
sI5
F0.1527777777777778
sI6
F0.1527777777777778
ssS'threshold'
p40
(dp41
I1
F1.11022302462516e-16
sI3
F2.07334149848748e-12
sI4
F0.000856401985537936
sI7
F2.2495292073543302e-08
ssS'children'
p42
(dp43
I1
c__builtin__
set
p44
((lp45
I2
aI3
atp46
Rp47
sI2
g44
((lp48
tp49
Rp50
sI3
g44
((lp51
I4
aI7
atp52
Rp53
sI4
g44
((lp54
I5
aI6
atp55
Rp56
sI5
g44
((lp57
tp58
Rp59
sI6
g44
((lp60
tp61
Rp62
sI7
g44
((lp63
I8
aI9
atp64
Rp65
sI8
g44
((lp66
tp67
Rp68
sI9
g44
((lp69
tp70
Rp71
ssS'children_right'
p72
(dp73
I1
I3
sI2
NsI3
I7
sI4
I6
sI5
NsI6
NsI7
I9
sI8
NsI9
NssS'feature'
p74
(dp75
I1
g17
sI2
S'2'
p76
sI3
g18
sI4
g15
sI5
S'5'
p77
sI6
S'6'
p78
sI7
g16
sI8
S'8'
p79
sI9
S'9'
p80
ssS'nodes'
p81
crpy2.robjects.robject
_reduce_robjectmixin
p82
(S'X\n\x00\x00\x00\x02\x00\x03\x04\x04\x00\x02\x03\x00\x00\x00\x00\r\x00\x00\x00\t\x00\x00\x00\x01\x00\x00\x00\x02\x00\x00\x00\x03\x00\x00\x00\x04\x00\x00\x00\x05\x00\x00\x00\x06\x00\x00\x00\x07\x00\x00\x00\x08\x00\x00\x00\t'
p83
I13
crpy2.rinterface._rinterface
unserialize
p84
crpy2.robjects.vectors
IntVector
p85
tp86
Rp87
(dp88
S'ro'
p89
g0
(crpy2.robjects.vectors
VectorOperationsDelegator
p90
g2
Ntp91
Rp92
(dp93
S'_parent'
p94
g87
sbsS'rx'
p95
g0
(crpy2.robjects.vectors
ExtractDelegator
p96
g2
Ntp97
Rp98
(dp99
g94
g87
sbsS'rx2'
p100
g0
(crpy2.robjects.vectors
DoubleExtractDelegator
p101
g2
Ntp102
Rp103
(dp104
g94
g87
sbsbsS'response_var_'
p105
S'P387'
p106
sS'edge_cond_'
p107
(dp108
(I1
I2
tp109
(lp110
S'A'
p111
as(I1
I3
tp112
(lp113
g27
ag28
ag29
as(I4
I6
tp114
(lp115
g29
as(I4
I5
tp116
(lp117
g26
ag27
as(I7
I8
tp118
(lp119
g26
ag27
as(I3
I7
tp120
(lp121
S'T'
p122
as(I3
I4
tp123
(lp124
g26
ag27
ag29
as(I7
I9
tp125
(lp126
g29
assS'class_pred_'
p127
g24
sS'CLASSES'
p128
cnumpy.core.multiarray
_reconstruct
p129
(cnumpy
ndarray
p130
(I0
tp131
S'b'
p132
tp133
Rp134
(I1
(I4
tp135
cnumpy
dtype
p136
(S'O8'
p137
I0
I1
tp138
Rp139
(I3
S'|'
p140
NNNI-1
I-1
I63
tp141
bI00
(lp142
g26
ag27
ag29
ag28
atp143
bsS'TREE_LEAF'
p144
(dp145
I1
I00
sI2
I01
sI3
I00
sI4
I00
sI5
I01
sI6
I01
sI7
I00
sI8
I01
sI9
I01
ssS'num_pass_'
p146
(dp147
I1
I72
sI2
I10
sI3
I62
sI4
I22
sI5
I11
sI6
I11
sI7
I40
sI8
I8
sI9
I32
ssS'error'
p148
(dp149
I1
F47.222222222222214
sI2
F20.0
sI3
F40.322580645161295
sI4
F45.45454545454546
sI5
F27.272727272727273
sI6
F9.090909090909092
sI7
F10.0
sI8
F50.0
sI9
F0.0
ssS'pvalue'
p150
g41
sS'class_names'
p151
g134
sS'n_node_samples'
p152
g147
sb.