ccopy_reg
_reconstructor
p0
(cmlx
tree_
p1
c__builtin__
object
p2
Ntp3
Rp4
(dp5
S'decision_rules_'
p6
(dp7
I8
S'P359 %in% c("C", "G", "T") & P158 %in% c("A", "C", "G") & P145 %in% c("G")'
p8
sI9
S'P359 %in% c("C", "G", "T") & P158 %in% c("T")'
p9
sI2
S'P359 %in% c("A")'
p10
sI6
S'P359 %in% c("C", "G", "T") & P158 %in% c("A", "C", "G") & P145 %in% c("A", "C", "T") & P269 %in% c("A")'
p11
sI7
S'P359 %in% c("C", "G", "T") & P158 %in% c("A", "C", "G") & P145 %in% c("A", "C", "T") & P269 %in% c("C", "G", "T")'
p12
ssS'significant_feature_weight_'
p13
(dp14
S'P359'
p15
F0.8853662949242995
sS'P145'
p16
F0.24135049085490057
sS'P269'
p17
F0.0
sS'P158'
p18
F0.29666008206757
ssS'children_left'
p19
(dp20
I1
I2
sI2
NsI3
I9
sI4
I8
sI5
I6
sI6
NsI7
NsI8
NsI9
NssS'ACCx_'
p21
F0.6388888888888888
sS'ACC_'
p22
F0.7916666666666666
sS'value'
p23
(dp24
I1
(dp25
S'A'
p26
F42.0
sS'C'
p27
F14.0
sS'T'
p28
F7.0
sS'G'
p29
F9.0
ssI2
(dp30
g26
F31.0
sg27
F0.0
sg28
F0.0
sg29
F0.0
ssI3
(dp31
g26
F11.0
sg27
F14.0
sg28
F7.0
sg29
F9.0
ssI4
(dp32
g26
F4.0
sg27
F14.0
sg28
F7.0
sg29
F8.0
ssI5
(dp33
g26
F4.0
sg27
F13.0
sg28
F7.0
sg29
F2.0
ssI6
(dp34
g26
F4.0
sg27
F5.0
sg28
F0.0
sg29
F0.0
ssI7
(dp35
g26
F0.0
sg27
F8.0
sg28
F7.0
sg29
F2.0
ssI8
(dp36
g26
F0.0
sg27
F1.0
sg28
F0.0
sg29
F6.0
ssI9
(dp37
g26
F7.0
sg27
F0.0
sg28
F0.0
sg29
F1.0
sssS'tprob_'
p38
(dp39
I8
F0.09722222222222222
sI9
F0.1111111111111111
sI2
F0.4305555555555556
sI6
F0.125
sI7
F0.2361111111111111
ssS'threshold'
p40
(dp41
I1
F1.0547118733939001e-14
sI3
F1.2480623086452699e-05
sI4
F1.8809042594547501e-06
sI5
F0.00039241203520867796
ssS'children'
p42
(dp43
I1
c__builtin__
set
p44
((lp45
I2
aI3
atp46
Rp47
sI2
g44
((lp48
tp49
Rp50
sI3
g44
((lp51
I9
aI4
atp52
Rp53
sI4
g44
((lp54
I8
aI5
atp55
Rp56
sI5
g44
((lp57
I6
aI7
atp58
Rp59
sI6
g44
((lp60
tp61
Rp62
sI7
g44
((lp63
tp64
Rp65
sI8
g44
((lp66
tp67
Rp68
sI9
g44
((lp69
tp70
Rp71
ssS'children_right'
p72
(dp73
I1
I3
sI2
NsI3
I4
sI4
I5
sI5
I7
sI6
NsI7
NsI8
NsI9
NssS'feature'
p74
(dp75
I1
g15
sI2
S'2'
p76
sI3
g18
sI4
g16
sI5
g17
sI6
S'6'
p77
sI7
S'7'
p78
sI8
S'8'
p79
sI9
S'9'
p80
ssS'nodes'
p81
crpy2.robjects.robject
_reduce_robjectmixin
p82
(S'X\n\x00\x00\x00\x02\x00\x03\x04\x04\x00\x02\x03\x00\x00\x00\x00\r\x00\x00\x00\t\x00\x00\x00\x01\x00\x00\x00\x02\x00\x00\x00\x03\x00\x00\x00\x04\x00\x00\x00\x05\x00\x00\x00\x06\x00\x00\x00\x07\x00\x00\x00\x08\x00\x00\x00\t'
p83
I13
crpy2.rinterface._rinterface
unserialize
p84
crpy2.robjects.vectors
IntVector
p85
tp86
Rp87
(dp88
S'ro'
p89
g0
(crpy2.robjects.vectors
VectorOperationsDelegator
p90
g2
Ntp91
Rp92
(dp93
S'_parent'
p94
g87
sbsS'rx'
p95
g0
(crpy2.robjects.vectors
ExtractDelegator
p96
g2
Ntp97
Rp98
(dp99
g94
g87
sbsS'rx2'
p100
g0
(crpy2.robjects.vectors
DoubleExtractDelegator
p101
g2
Ntp102
Rp103
(dp104
g94
g87
sbsbsS'response_var_'
p105
S'P192'
p106
sS'edge_cond_'
p107
(dp108
(I1
I2
tp109
(lp110
S'A'
p111
as(I1
I3
tp112
(lp113
g27
ag28
ag29
as(I4
I8
tp114
(lp115
S'G'
p116
as(I4
I5
tp117
(lp118
g26
ag27
ag28
as(I5
I7
tp119
(lp120
g27
ag28
ag29
as(I5
I6
tp121
(lp122
S'A'
p123
as(I3
I9
tp124
(lp125
S'T'
p126
as(I3
I4
tp127
(lp128
g26
ag27
ag29
assS'class_pred_'
p129
g24
sS'CLASSES'
p130
cnumpy.core.multiarray
_reconstruct
p131
(cnumpy
ndarray
p132
(I0
tp133
S'b'
p134
tp135
Rp136
(I1
(I4
tp137
cnumpy
dtype
p138
(S'O8'
p139
I0
I1
tp140
Rp141
(I3
S'|'
p142
NNNI-1
I-1
I63
tp143
bI00
(lp144
g26
ag27
ag29
ag28
atp145
bsS'TREE_LEAF'
p146
(dp147
I1
I00
sI2
I01
sI3
I00
sI4
I00
sI5
I00
sI6
I01
sI7
I01
sI8
I01
sI9
I01
ssS'num_pass_'
p148
(dp149
I1
I72
sI2
I31
sI3
I41
sI4
I33
sI5
I26
sI6
I9
sI7
I17
sI8
I7
sI9
I8
ssS'error'
p150
(dp151
I1
F41.66666666666667
sI2
F0.0
sI3
F65.85365853658537
sI4
F57.57575757575758
sI5
F50.0
sI6
F44.44444444444444
sI7
F52.94117647058823
sI8
F14.285714285714285
sI9
F12.5
ssS'pvalue'
p152
g41
sS'class_names'
p153
g136
sS'n_node_samples'
p154
g149
sb.