ccopy_reg
_reconstructor
p0
(cmlx
tree_
p1
c__builtin__
object
p2
Ntp3
Rp4
(dp5
S'decision_rules_'
p6
(dp7
I8
S'P175 %in% c("A", "C", "R", "T") & P274 %in% c("C")'
p8
sI9
S'P175 %in% c("G")'
p9
sI5
S'P175 %in% c("A", "C", "R", "T") & P274 %in% c("A", "G", "R", "T") & P171 %in% c("A", "C", "G") & P35 %in% c("A", "C")'
p10
sI6
S'P175 %in% c("A", "C", "R", "T") & P274 %in% c("A", "G", "R", "T") & P171 %in% c("A", "C", "G") & P35 %in% c("G", "T")'
p11
sI7
S'P175 %in% c("A", "C", "R", "T") & P274 %in% c("A", "G", "R", "T") & P171 %in% c("T")'
p12
ssS'significant_feature_weight_'
p13
(dp14
S'P171'
p15
F0.6205320404697378
sS'P274'
p16
F0.3809586681739062
sS'P175'
p17
F0.3949703324120936
sS'P35'
p18
F0.1727983539187877
ssS'children_left'
p19
(dp20
I1
I9
sI2
I8
sI3
I4
sI4
I5
sI5
NsI6
NsI7
NsI8
NsI9
NssS'ACCx_'
p21
F0.5833333333333333
sS'ACC_'
p22
F0.8472222222222222
sS'value'
p23
(dp24
I1
(dp25
S'A'
p26
F37.0
sS'Y'
p27
F1.0
sS'C'
p28
F10.0
sS'T'
p29
F12.0
sS'G'
p30
F12.0
ssI2
(dp31
g26
F37.0
sg27
F1.0
sg28
F3.0
sg29
F12.0
sg30
F10.0
ssI3
(dp32
g26
F37.0
sg27
F1.0
sg28
F3.0
sg29
F11.0
sg30
F2.0
ssI4
(dp33
g26
F5.0
sg27
F1.0
sg28
F3.0
sg29
F10.0
sg30
F2.0
ssI5
(dp34
g26
F0.0
sg27
F1.0
sg28
F2.0
sg29
F9.0
sg30
F2.0
ssI6
(dp35
g26
F5.0
sg27
F0.0
sg28
F1.0
sg29
F1.0
sg30
F0.0
ssI7
(dp36
g26
F32.0
sg27
F0.0
sg28
F0.0
sg29
F1.0
sg30
F0.0
ssI8
(dp37
g26
F0.0
sg27
F0.0
sg28
F0.0
sg29
F1.0
sg30
F8.0
ssI9
(dp38
g26
F0.0
sg27
F0.0
sg28
F7.0
sg29
F0.0
sg30
F2.0
sssS'tprob_'
p39
(dp40
I8
F0.125
sI9
F0.125
sI5
F0.19444444444444445
sI6
F0.09722222222222222
sI7
F0.4583333333333333
ssS'threshold'
p41
(dp42
I1
I0
sI2
F8.93729534823251e-14
sI3
F1.0679235273869399e-12
sI4
F0.0189567459468656
ssS'children'
p43
(dp44
I1
c__builtin__
set
p45
((lp46
I9
aI2
atp47
Rp48
sI2
g45
((lp49
I8
aI3
atp50
Rp51
sI3
g45
((lp52
I4
aI7
atp53
Rp54
sI4
g45
((lp55
I5
aI6
atp56
Rp57
sI5
g45
((lp58
tp59
Rp60
sI6
g45
((lp61
tp62
Rp63
sI7
g45
((lp64
tp65
Rp66
sI8
g45
((lp67
tp68
Rp69
sI9
g45
((lp70
tp71
Rp72
ssS'children_right'
p73
(dp74
I1
I2
sI2
I3
sI3
I7
sI4
I6
sI5
NsI6
NsI7
NsI8
NsI9
NssS'feature'
p75
(dp76
I1
g17
sI2
g16
sI3
g15
sI4
g18
sI5
S'5'
p77
sI6
S'6'
p78
sI7
S'7'
p79
sI8
S'8'
p80
sI9
S'9'
p81
ssS'nodes'
p82
crpy2.robjects.robject
_reduce_robjectmixin
p83
(S'X\n\x00\x00\x00\x02\x00\x03\x04\x04\x00\x02\x03\x00\x00\x00\x00\r\x00\x00\x00\t\x00\x00\x00\x01\x00\x00\x00\x02\x00\x00\x00\x03\x00\x00\x00\x04\x00\x00\x00\x05\x00\x00\x00\x06\x00\x00\x00\x07\x00\x00\x00\x08\x00\x00\x00\t'
p84
I13
crpy2.rinterface._rinterface
unserialize
p85
crpy2.robjects.vectors
IntVector
p86
tp87
Rp88
(dp89
S'ro'
p90
g0
(crpy2.robjects.vectors
VectorOperationsDelegator
p91
g2
Ntp92
Rp93
(dp94
S'_parent'
p95
g88
sbsS'rx'
p96
g0
(crpy2.robjects.vectors
ExtractDelegator
p97
g2
Ntp98
Rp99
(dp100
g95
g88
sbsS'rx2'
p101
g0
(crpy2.robjects.vectors
DoubleExtractDelegator
p102
g2
Ntp103
Rp104
(dp105
g95
g88
sbsbsS'response_var_'
p106
S'P205'
p107
sS'edge_cond_'
p108
(dp109
(I1
I2
tp110
(lp111
g26
ag28
aS'R'
p112
ag29
as(I4
I6
tp113
(lp114
g29
ag30
as(I4
I5
tp115
(lp116
g26
ag28
as(I2
I8
tp117
(lp118
S'C'
p119
as(I2
I3
tp120
(lp121
g26
ag112
ag29
ag30
as(I1
I9
tp122
(lp123
S'G'
p124
as(I3
I7
tp125
(lp126
S'T'
p127
as(I3
I4
tp128
(lp129
g26
ag28
ag30
assS'class_pred_'
p130
g24
sS'CLASSES'
p131
cnumpy.core.multiarray
_reconstruct
p132
(cnumpy
ndarray
p133
(I0
tp134
S'b'
p135
tp136
Rp137
(I1
(I5
tp138
cnumpy
dtype
p139
(S'O8'
p140
I0
I1
tp141
Rp142
(I3
S'|'
p143
NNNI-1
I-1
I63
tp144
bI00
(lp145
g26
ag28
ag30
ag29
ag27
atp146
bsS'TREE_LEAF'
p147
(dp148
I1
I00
sI2
I00
sI3
I00
sI4
I00
sI5
I01
sI6
I01
sI7
I01
sI8
I01
sI9
I01
ssS'num_pass_'
p149
(dp150
I1
I72
sI2
I63
sI3
I54
sI4
I21
sI5
I14
sI6
I7
sI7
I33
sI8
I9
sI9
I9
ssS'error'
p151
(dp152
I1
F48.61111111111111
sI2
F41.269841269841265
sI3
F31.48148148148148
sI4
F52.38095238095238
sI5
F35.71428571428571
sI6
F28.57142857142857
sI7
F3.0303030303030303
sI8
F11.11111111111111
sI9
F22.22222222222222
ssS'pvalue'
p153
g42
sS'class_names'
p154
g137
sS'n_node_samples'
p155
g150
sb.