ccopy_reg
_reconstructor
p0
(cmlx
tree_
p1
c__builtin__
object
p2
Ntp3
Rp4
(dp5
S'decision_rules_'
p6
(dp7
I8
S'P348 %in% c("C", "G", "T") & P212 %in% c("C", "T") & P294 %in% c("A", "T")'
p8
sI9
S'P348 %in% c("C", "G", "T") & P212 %in% c("C", "T") & P294 %in% c("C", "G")'
p9
sI3
S'P348 %in% c("A") & P365 %in% c("A", "C", "NA")'
p10
sI4
S'P348 %in% c("A") & P365 %in% c("NA", "T")'
p11
sI6
S'P348 %in% c("C", "G", "T") & P212 %in% c("A", "G")'
p12
ssS'significant_feature_weight_'
p13
(dp14
S'P212'
p15
F0.336700305800762
sS'P365'
p16
F0.0
sS'P294'
p17
F0.33333328004264107
sS'P348'
p18
F0.9930555364047113
ssS'children_left'
p19
(dp20
I1
I2
sI2
I3
sI3
NsI4
NsI5
I6
sI6
NsI7
I8
sI8
NsI9
NssS'ACCx_'
p21
F0.6388888888888888
sS'ACC_'
p22
F0.875
sS'value'
p23
(dp24
I1
(dp25
S'A'
p26
F40.0
sS'C'
p27
F6.0
sS'T'
p28
F12.0
sS'G'
p29
F14.0
ssI2
(dp30
g26
F37.0
sg27
F0.0
sg28
F0.0
sg29
F2.0
ssI3
(dp31
g26
F6.0
sg27
F0.0
sg28
F0.0
sg29
F2.0
ssI4
(dp32
g26
F31.0
sg27
F0.0
sg28
F0.0
sg29
F0.0
ssI5
(dp33
g26
F3.0
sg27
F6.0
sg28
F12.0
sg29
F12.0
ssI6
(dp34
g26
F3.0
sg27
F4.0
sg28
F0.0
sg29
F1.0
ssI7
(dp35
g26
F0.0
sg27
F2.0
sg28
F12.0
sg29
F11.0
ssI8
(dp36
g26
F0.0
sg27
F2.0
sg28
F12.0
sg29
F1.0
ssI9
(dp37
g26
F0.0
sg27
F0.0
sg28
F0.0
sg29
F10.0
sssS'tprob_'
p38
(dp39
I8
F0.20833333333333334
sI9
F0.1388888888888889
sI3
F0.1111111111111111
sI4
F0.4305555555555556
sI6
F0.1111111111111111
ssS'threshold'
p40
(dp41
I1
F2.3314683517128303e-15
sI2
F2.23551328604188e-06
sI5
F1.57340201694112e-05
sI7
F0.00843677208405014
ssS'children'
p42
(dp43
I1
c__builtin__
set
p44
((lp45
I2
aI5
atp46
Rp47
sI2
g44
((lp48
I3
aI4
atp49
Rp50
sI3
g44
((lp51
tp52
Rp53
sI4
g44
((lp54
tp55
Rp56
sI5
g44
((lp57
I6
aI7
atp58
Rp59
sI6
g44
((lp60
tp61
Rp62
sI7
g44
((lp63
I8
aI9
atp64
Rp65
sI8
g44
((lp66
tp67
Rp68
sI9
g44
((lp69
tp70
Rp71
ssS'children_right'
p72
(dp73
I1
I5
sI2
I4
sI3
NsI4
NsI5
I7
sI6
NsI7
I9
sI8
NsI9
NssS'feature'
p74
(dp75
I1
g18
sI2
g16
sI3
S'3'
p76
sI4
S'4'
p77
sI5
g15
sI6
S'6'
p78
sI7
g17
sI8
S'8'
p79
sI9
S'9'
p80
ssS'nodes'
p81
crpy2.robjects.robject
_reduce_robjectmixin
p82
(S'X\n\x00\x00\x00\x02\x00\x03\x04\x04\x00\x02\x03\x00\x00\x00\x00\r\x00\x00\x00\t\x00\x00\x00\x01\x00\x00\x00\x02\x00\x00\x00\x03\x00\x00\x00\x04\x00\x00\x00\x05\x00\x00\x00\x06\x00\x00\x00\x07\x00\x00\x00\x08\x00\x00\x00\t'
p83
I13
crpy2.rinterface._rinterface
unserialize
p84
crpy2.robjects.vectors
IntVector
p85
tp86
Rp87
(dp88
S'ro'
p89
g0
(crpy2.robjects.vectors
VectorOperationsDelegator
p90
g2
Ntp91
Rp92
(dp93
S'_parent'
p94
g87
sbsS'rx'
p95
g0
(crpy2.robjects.vectors
ExtractDelegator
p96
g2
Ntp97
Rp98
(dp99
g94
g87
sbsS'rx2'
p100
g0
(crpy2.robjects.vectors
DoubleExtractDelegator
p101
g2
Ntp102
Rp103
(dp104
g94
g87
sbsbsS'response_var_'
p105
S'P150'
p106
sS'edge_cond_'
p107
(dp108
(I1
I2
tp109
(lp110
S'A'
p111
as(I5
I6
tp112
(lp113
g26
ag29
as(I5
I7
tp114
(lp115
g27
ag28
as(I1
I5
tp116
(lp117
g27
ag28
ag29
as(I2
I3
tp118
(lp119
g26
ag27
as(I7
I8
tp120
(lp121
g26
ag28
as(I2
I4
tp122
(lp123
g28
as(I7
I9
tp124
(lp125
g27
ag29
assS'class_pred_'
p126
g24
sS'CLASSES'
p127
cnumpy.core.multiarray
_reconstruct
p128
(cnumpy
ndarray
p129
(I0
tp130
S'b'
p131
tp132
Rp133
(I1
(I4
tp134
cnumpy
dtype
p135
(S'O8'
p136
I0
I1
tp137
Rp138
(I3
S'|'
p139
NNNI-1
I-1
I63
tp140
bI00
(lp141
g26
ag27
ag29
ag28
atp142
bsS'TREE_LEAF'
p143
(dp144
I1
I00
sI2
I00
sI3
I01
sI4
I01
sI5
I00
sI6
I01
sI7
I00
sI8
I01
sI9
I01
ssS'num_pass_'
p145
(dp146
I1
I72
sI2
I39
sI3
I8
sI4
I31
sI5
I33
sI6
I8
sI7
I25
sI8
I15
sI9
I10
ssS'error'
p147
(dp148
I1
F44.44444444444444
sI2
F5.128205128205128
sI3
F25.0
sI4
F0.0
sI5
F63.63636363636364
sI6
F50.0
sI7
F52.0
sI8
F20.0
sI9
F0.0
ssS'pvalue'
p149
g41
sS'class_names'
p150
g133
sS'n_node_samples'
p151
g146
sb.