ccopy_reg
_reconstructor
p0
(cmlx
tree_
p1
c__builtin__
object
p2
Ntp3
Rp4
(dp5
S'decision_rules_'
p6
(dp7
I3
S'P168 %in% c("A", "C", "G") & P37 %in% c("A", "G")'
p8
sI5
S'P168 %in% c("A", "C", "G") & P37 %in% c("C", "T") & P168 %in% c("A", "NA")'
p9
sI6
S'P168 %in% c("A", "C", "G") & P37 %in% c("C", "T") & P168 %in% c("C", "G", "NA")'
p10
sI7
S'P168 %in% c("T")'
p11
ssS'significant_feature_weight_'
p12
(dp13
S'P168'
p14
F1.3494776114714135
sS'P37'
p15
F0.4561403193051451
ssS'children_left'
p16
(dp17
I1
I2
sI2
I3
sI3
NsI4
I5
sI5
NsI6
NsI7
NssS'ACCx_'
p18
F0.7083333333333333
sS'ACC_'
p19
F0.8611111111111112
sS'value'
p20
(dp21
I1
(dp22
S'A'
p23
F20.0
sS'C'
p24
F2.0
sS'T'
p25
F15.0
sS'G'
p26
F35.0
ssI2
(dp27
g23
F19.0
sg24
F1.0
sg25
F15.0
sg26
F3.0
ssI3
(dp28
g23
F0.0
sg24
F1.0
sg25
F8.0
sg26
F3.0
ssI4
(dp29
g23
F19.0
sg24
F0.0
sg25
F7.0
sg26
F0.0
ssI5
(dp30
g23
F15.0
sg24
F0.0
sg25
F0.0
sg26
F0.0
ssI6
(dp31
g23
F4.0
sg24
F0.0
sg25
F7.0
sg26
F0.0
ssI7
(dp32
g23
F1.0
sg24
F1.0
sg25
F0.0
sg26
F32.0
sssS'tprob_'
p33
(dp34
I3
F0.16666666666666666
sI5
F0.20833333333333334
sI6
F0.1527777777777778
sI7
F0.4722222222222222
ssS'threshold'
p35
(dp36
I1
F5.551115123125781e-16
sI2
F6.95159888062236e-05
sI4
F0.0104475802987101
ssS'children'
p37
(dp38
I1
c__builtin__
set
p39
((lp40
I2
aI7
atp41
Rp42
sI2
g39
((lp43
I3
aI4
atp44
Rp45
sI3
g39
((lp46
tp47
Rp48
sI4
g39
((lp49
I5
aI6
atp50
Rp51
sI5
g39
((lp52
tp53
Rp54
sI6
g39
((lp55
tp56
Rp57
sI7
g39
((lp58
tp59
Rp60
ssS'children_right'
p61
(dp62
I1
I7
sI2
I4
sI3
NsI4
I6
sI5
NsI6
NsI7
NssS'feature'
p63
(dp64
I1
g14
sI2
g15
sI3
S'3'
p65
sI4
S'P168'
p66
sI5
S'5'
p67
sI6
S'6'
p68
sI7
S'7'
p69
ssS'nodes'
p70
crpy2.robjects.robject
_reduce_robjectmixin
p71
(S'X\n\x00\x00\x00\x02\x00\x03\x04\x04\x00\x02\x03\x00\x00\x00\x00\r\x00\x00\x00\x07\x00\x00\x00\x01\x00\x00\x00\x02\x00\x00\x00\x03\x00\x00\x00\x04\x00\x00\x00\x05\x00\x00\x00\x06\x00\x00\x00\x07'
p72
I13
crpy2.rinterface._rinterface
unserialize
p73
crpy2.robjects.vectors
IntVector
p74
tp75
Rp76
(dp77
S'ro'
p78
g0
(crpy2.robjects.vectors
VectorOperationsDelegator
p79
g2
Ntp80
Rp81
(dp82
S'_parent'
p83
g76
sbsS'rx'
p84
g0
(crpy2.robjects.vectors
ExtractDelegator
p85
g2
Ntp86
Rp87
(dp88
g83
g76
sbsS'rx2'
p89
g0
(crpy2.robjects.vectors
DoubleExtractDelegator
p90
g2
Ntp91
Rp92
(dp93
g83
g76
sbsbsS'response_var_'
p94
S'P228'
p95
sS'edge_cond_'
p96
(dp97
(I1
I2
tp98
(lp99
g23
ag24
ag26
as(I4
I6
tp100
(lp101
g24
ag26
as(I4
I5
tp102
(lp103
g23
as(I2
I3
tp104
(lp105
g23
ag26
as(I1
I7
tp106
(lp107
S'T'
p108
as(I2
I4
tp109
(lp110
g24
ag25
assS'class_pred_'
p111
g21
sS'CLASSES'
p112
cnumpy.core.multiarray
_reconstruct
p113
(cnumpy
ndarray
p114
(I0
tp115
S'b'
p116
tp117
Rp118
(I1
(I4
tp119
cnumpy
dtype
p120
(S'O8'
p121
I0
I1
tp122
Rp123
(I3
S'|'
p124
NNNI-1
I-1
I63
tp125
bI00
(lp126
g23
ag24
ag26
ag25
atp127
bsS'TREE_LEAF'
p128
(dp129
I1
I00
sI2
I00
sI3
I01
sI4
I00
sI5
I01
sI6
I01
sI7
I01
ssS'num_pass_'
p130
(dp131
I1
I72
sI2
I38
sI3
I12
sI4
I26
sI5
I15
sI6
I11
sI7
I34
ssS'error'
p132
(dp133
I1
F51.38888888888889
sI2
F50.0
sI3
F33.33333333333333
sI4
F26.923076923076923
sI5
F0.0
sI6
F36.36363636363637
sI7
F5.88235294117647
ssS'pvalue'
p134
g36
sS'class_names'
p135
g118
sS'n_node_samples'
p136
g131
sb.