ccopy_reg
_reconstructor
p0
(cmlx
tree_
p1
c__builtin__
object
p2
Ntp3
Rp4
(dp5
S'decision_rules_'
p6
(dp7
I8
S'P197 %in% c("A", "C", "T") & P171 %in% c("C", "G", "T") & P326 %in% c("C", "T") & P109 %in% c("T")'
p8
sI9
S'P197 %in% c("G")'
p9
sI3
S'P197 %in% c("A", "C", "T") & P171 %in% c("A")'
p10
sI5
S'P197 %in% c("A", "C", "T") & P171 %in% c("C", "G", "T") & P326 %in% c("A", "G")'
p11
sI7
S'P197 %in% c("A", "C", "T") & P171 %in% c("C", "G", "T") & P326 %in% c("C", "T") & P109 %in% c("A", "C", "G")'
p12
ssS'significant_feature_weight_'
p13
(dp14
S'P171'
p15
F0.5125805558451108
sS'P326'
p16
F0.3233026524276273
sS'P109'
p17
F0.0
sS'P197'
p18
F0.35665760880482766
ssS'children_left'
p19
(dp20
I1
I9
sI2
I3
sI3
NsI4
I5
sI5
NsI6
I8
sI7
NsI8
NsI9
NssS'ACCx_'
p21
F0.6527777777777778
sS'ACC_'
p22
F0.8194444444444444
sS'value'
p23
(dp24
I1
(dp25
S'A'
p26
F8.0
sS'C'
p27
F45.0
sS'T'
p28
F11.0
sS'G'
p29
F8.0
ssI2
(dp30
g26
F8.0
sg27
F45.0
sg28
F10.0
sg29
F1.0
ssI3
(dp31
g26
F1.0
sg27
F5.0
sg28
F7.0
sg29
F0.0
ssI4
(dp32
g26
F7.0
sg27
F40.0
sg28
F3.0
sg29
F1.0
ssI5
(dp33
g26
F5.0
sg27
F0.0
sg28
F2.0
sg29
F1.0
ssI6
(dp34
g26
F2.0
sg27
F40.0
sg28
F1.0
sg29
F0.0
ssI7
(dp35
g26
F2.0
sg27
F4.0
sg28
F1.0
sg29
F0.0
ssI8
(dp36
g26
F0.0
sg27
F36.0
sg28
F0.0
sg29
F0.0
ssI9
(dp37
g26
F0.0
sg27
F0.0
sg28
F1.0
sg29
F7.0
sssS'tprob_'
p38
(dp39
I8
F0.5
sI9
F0.1111111111111111
sI3
F0.18055555555555555
sI5
F0.1111111111111111
sI7
F0.09722222222222222
ssS'threshold'
p40
(dp41
I1
F1.01030295240889e-14
sI2
F2.0716761639505398e-13
sI4
F2.19291251823961e-12
sI6
F9.07752983891896e-10
ssS'children'
p42
(dp43
I1
c__builtin__
set
p44
((lp45
I9
aI2
atp46
Rp47
sI2
g44
((lp48
I3
aI4
atp49
Rp50
sI3
g44
((lp51
tp52
Rp53
sI4
g44
((lp54
I5
aI6
atp55
Rp56
sI5
g44
((lp57
tp58
Rp59
sI6
g44
((lp60
I8
aI7
atp61
Rp62
sI7
g44
((lp63
tp64
Rp65
sI8
g44
((lp66
tp67
Rp68
sI9
g44
((lp69
tp70
Rp71
ssS'children_right'
p72
(dp73
I1
I2
sI2
I4
sI3
NsI4
I6
sI5
NsI6
I7
sI7
NsI8
NsI9
NssS'feature'
p74
(dp75
I1
g18
sI2
g15
sI3
S'3'
p76
sI4
g16
sI5
S'5'
p77
sI6
g17
sI7
S'7'
p78
sI8
S'8'
p79
sI9
S'9'
p80
ssS'nodes'
p81
crpy2.robjects.robject
_reduce_robjectmixin
p82
(S'X\n\x00\x00\x00\x02\x00\x03\x04\x04\x00\x02\x03\x00\x00\x00\x00\r\x00\x00\x00\t\x00\x00\x00\x01\x00\x00\x00\x02\x00\x00\x00\x03\x00\x00\x00\x04\x00\x00\x00\x05\x00\x00\x00\x06\x00\x00\x00\x07\x00\x00\x00\x08\x00\x00\x00\t'
p83
I13
crpy2.rinterface._rinterface
unserialize
p84
crpy2.robjects.vectors
IntVector
p85
tp86
Rp87
(dp88
S'ro'
p89
g0
(crpy2.robjects.vectors
VectorOperationsDelegator
p90
g2
Ntp91
Rp92
(dp93
S'_parent'
p94
g87
sbsS'rx'
p95
g0
(crpy2.robjects.vectors
ExtractDelegator
p96
g2
Ntp97
Rp98
(dp99
g94
g87
sbsS'rx2'
p100
g0
(crpy2.robjects.vectors
DoubleExtractDelegator
p101
g2
Ntp102
Rp103
(dp104
g94
g87
sbsbsS'response_var_'
p105
S'P34'
p106
sS'edge_cond_'
p107
(dp108
(I1
I2
tp109
(lp110
g26
ag27
ag28
as(I6
I7
tp111
(lp112
g26
ag27
ag29
as(I4
I6
tp113
(lp114
g27
ag28
as(I4
I5
tp115
(lp116
g26
ag29
as(I2
I3
tp117
(lp118
S'A'
p119
as(I1
I9
tp120
(lp121
S'G'
p122
as(I2
I4
tp123
(lp124
g27
ag28
ag29
as(I6
I8
tp125
(lp126
S'T'
p127
assS'class_pred_'
p128
g24
sS'CLASSES'
p129
cnumpy.core.multiarray
_reconstruct
p130
(cnumpy
ndarray
p131
(I0
tp132
S'b'
p133
tp134
Rp135
(I1
(I4
tp136
cnumpy
dtype
p137
(S'O8'
p138
I0
I1
tp139
Rp140
(I3
S'|'
p141
NNNI-1
I-1
I63
tp142
bI00
(lp143
g26
ag27
ag29
ag28
atp144
bsS'TREE_LEAF'
p145
(dp146
I1
I00
sI2
I00
sI3
I01
sI4
I00
sI5
I01
sI6
I00
sI7
I01
sI8
I01
sI9
I01
ssS'num_pass_'
p147
(dp148
I1
I72
sI2
I64
sI3
I13
sI4
I51
sI5
I8
sI6
I43
sI7
I7
sI8
I36
sI9
I8
ssS'error'
p149
(dp150
I1
F37.5
sI2
F29.6875
sI3
F46.15384615384616
sI4
F21.568627450980394
sI5
F37.5
sI6
F6.976744186046512
sI7
F42.857142857142854
sI8
F0.0
sI9
F12.5
ssS'pvalue'
p151
g41
sS'class_names'
p152
g135
sS'n_node_samples'
p153
g148
sb.