ccopy_reg
_reconstructor
p0
(cmlx
tree_
p1
c__builtin__
object
p2
Ntp3
Rp4
(dp5
S'decision_rules_'
p6
(dp7
I8
S'P305 %in% c("C", "G") & P375 %in% c("A", "NA", "T")'
p8
sI9
S'P305 %in% c("C", "G") & P375 %in% c("C", "NA")'
p9
sI3
S'P305 %in% c("A", "T") & P266 %in% c("A")'
p10
sI5
S'P305 %in% c("A", "T") & P266 %in% c("C", "G", "T") & P216 %in% c("A", "NA")'
p11
sI6
S'P305 %in% c("A", "T") & P266 %in% c("C", "G", "T") & P216 %in% c("NA", "G", "T")'
p12
ssS'significant_feature_weight_'
p13
(dp14
S'P305'
p15
F0.8916350224545067
sS'P375'
p16
F0.0
sS'P266'
p17
F0.4166666260019819
sS'P216'
p18
F0.0
ssS'children_left'
p19
(dp20
I1
I2
sI2
I3
sI3
NsI4
I5
sI5
NsI6
NsI7
I8
sI8
NsI9
NssS'ACCx_'
p21
F0.5555555555555556
sS'ACC_'
p22
F0.9027777777777778
sS'value'
p23
(dp24
I1
(dp25
S'A'
p26
F42.0
sS'T'
p27
F21.0
sS'G'
p28
F9.0
ssI2
(dp29
g26
F3.0
sg27
F20.0
sg28
F9.0
ssI3
(dp30
g26
F0.0
sg27
F3.0
sg28
F9.0
ssI4
(dp31
g26
F3.0
sg27
F17.0
sg28
F0.0
ssI5
(dp32
g26
F0.0
sg27
F9.0
sg28
F0.0
ssI6
(dp33
g26
F3.0
sg27
F8.0
sg28
F0.0
ssI7
(dp34
g26
F39.0
sg27
F1.0
sg28
F0.0
ssI8
(dp35
g26
F6.0
sg27
F1.0
sg28
F0.0
ssI9
(dp36
g26
F33.0
sg27
F0.0
sg28
F0.0
sssS'tprob_'
p37
(dp38
I8
F0.09722222222222222
sI9
F0.4583333333333333
sI3
F0.16666666666666666
sI5
F0.125
sI6
F0.1527777777777778
ssS'threshold'
p39
(dp40
I1
F2.0194956817931603e-13
sI2
F0.000154086413747256
sI4
F0.0294253866115558
sI7
F1.35590794303475e-06
ssS'children'
p41
(dp42
I1
c__builtin__
set
p43
((lp44
I2
aI7
atp45
Rp46
sI2
g43
((lp47
I3
aI4
atp48
Rp49
sI3
g43
((lp50
tp51
Rp52
sI4
g43
((lp53
I5
aI6
atp54
Rp55
sI5
g43
((lp56
tp57
Rp58
sI6
g43
((lp59
tp60
Rp61
sI7
g43
((lp62
I8
aI9
atp63
Rp64
sI8
g43
((lp65
tp66
Rp67
sI9
g43
((lp68
tp69
Rp70
ssS'children_right'
p71
(dp72
I1
I7
sI2
I4
sI3
NsI4
I6
sI5
NsI6
NsI7
I9
sI8
NsI9
NssS'feature'
p73
(dp74
I1
g15
sI2
g17
sI3
S'3'
p75
sI4
g18
sI5
S'5'
p76
sI6
S'6'
p77
sI7
g16
sI8
S'8'
p78
sI9
S'9'
p79
ssS'nodes'
p80
crpy2.robjects.robject
_reduce_robjectmixin
p81
(S'X\n\x00\x00\x00\x02\x00\x03\x04\x04\x00\x02\x03\x00\x00\x00\x00\r\x00\x00\x00\t\x00\x00\x00\x01\x00\x00\x00\x02\x00\x00\x00\x03\x00\x00\x00\x04\x00\x00\x00\x05\x00\x00\x00\x06\x00\x00\x00\x07\x00\x00\x00\x08\x00\x00\x00\t'
p82
I13
crpy2.rinterface._rinterface
unserialize
p83
crpy2.robjects.vectors
IntVector
p84
tp85
Rp86
(dp87
S'ro'
p88
g0
(crpy2.robjects.vectors
VectorOperationsDelegator
p89
g2
Ntp90
Rp91
(dp92
S'_parent'
p93
g86
sbsS'rx'
p94
g0
(crpy2.robjects.vectors
ExtractDelegator
p95
g2
Ntp96
Rp97
(dp98
g93
g86
sbsS'rx2'
p99
g0
(crpy2.robjects.vectors
DoubleExtractDelegator
p100
g2
Ntp101
Rp102
(dp103
g93
g86
sbsbsS'response_var_'
p104
S'P124'
p105
sS'edge_cond_'
p106
(dp107
(I1
I2
tp108
(lp109
g26
ag27
as(I4
I6
tp110
(lp111
g27
ag28
as(I4
I5
tp112
(lp113
g26
as(I2
I3
tp114
(lp115
S'A'
p116
as(I1
I7
tp117
(lp118
S'C'
p119
ag28
as(I7
I8
tp120
(lp121
g26
ag27
as(I2
I4
tp122
(lp123
g119
ag27
ag28
as(I7
I9
tp124
(lp125
g119
assS'class_pred_'
p126
g24
sS'CLASSES'
p127
cnumpy.core.multiarray
_reconstruct
p128
(cnumpy
ndarray
p129
(I0
tp130
S'b'
p131
tp132
Rp133
(I1
(I3
tp134
cnumpy
dtype
p135
(S'O8'
p136
I0
I1
tp137
Rp138
(I3
S'|'
p139
NNNI-1
I-1
I63
tp140
bI00
(lp141
g26
ag28
ag27
atp142
bsS'TREE_LEAF'
p143
(dp144
I1
I00
sI2
I00
sI3
I01
sI4
I00
sI5
I01
sI6
I01
sI7
I00
sI8
I01
sI9
I01
ssS'num_pass_'
p145
(dp146
I1
I72
sI2
I32
sI3
I12
sI4
I20
sI5
I9
sI6
I11
sI7
I40
sI8
I7
sI9
I33
ssS'error'
p147
(dp148
I1
F41.66666666666667
sI2
F37.5
sI3
F25.0
sI4
F15.0
sI5
F0.0
sI6
F27.27272727272727
sI7
F2.5
sI8
F14.285714285714285
sI9
F0.0
ssS'pvalue'
p149
g40
sS'class_names'
p150
g133
sS'n_node_samples'
p151
g146
sb.