ccopy_reg
_reconstructor
p0
(cmlx
tree_
p1
c__builtin__
object
p2
Ntp3
Rp4
(dp5
S'decision_rules_'
p6
(dp7
I4
S'P205 %in% c("A", "C", "G", "Y") & P294 %in% c("A", "G", "T") & P52 %in% c("A", "G", "T")'
p8
sI5
S'P205 %in% c("A", "C", "G", "Y") & P294 %in% c("A", "G", "T") & P52 %in% c("C")'
p9
sI6
S'P205 %in% c("A", "C", "G", "Y") & P294 %in% c("C")'
p10
sI7
S'P205 %in% c("T")'
p11
ssS'significant_feature_weight_'
p12
(dp13
S'P205'
p14
F0.5555555448417965
sS'P294'
p15
F0.7999999777851833
sS'P52'
p16
F0.0
ssS'children_left'
p17
(dp18
I1
I2
sI2
I3
sI3
I4
sI4
NsI5
NsI6
NsI7
NssS'ACCx_'
p19
F0.7916666666666666
sS'ACC_'
p20
F0.8611111111111112
sS'value'
p21
(dp22
I1
(dp23
S'A'
p24
F20.0
sS'C'
p25
F7.0
sS'R'
p26
F1.0
sS'T'
p27
F40.0
sS'G'
p28
F4.0
ssI2
(dp29
g24
F20.0
sg25
F0.0
sg26
F1.0
sg27
F36.0
sg28
F3.0
ssI3
(dp30
g24
F20.0
sg25
F0.0
sg26
F1.0
sg27
F1.0
sg28
F2.0
ssI4
(dp31
g24
F11.0
sg25
F0.0
sg26
F1.0
sg27
F1.0
sg28
F2.0
ssI5
(dp32
g24
F9.0
sg25
F0.0
sg26
F0.0
sg27
F0.0
sg28
F0.0
ssI6
(dp33
g24
F0.0
sg25
F0.0
sg26
F0.0
sg27
F35.0
sg28
F1.0
ssI7
(dp34
g24
F0.0
sg25
F7.0
sg26
F0.0
sg27
F4.0
sg28
F1.0
sssS'tprob_'
p35
(dp36
I4
F0.20833333333333334
sI5
F0.125
sI6
F0.5
sI7
F0.16666666666666666
ssS'threshold'
p37
(dp38
I1
F1.11022302462516e-16
sI2
F1.04360964314765e-14
sI3
F0.0216130539047346
ssS'children'
p39
(dp40
I1
c__builtin__
set
p41
((lp42
I2
aI7
atp43
Rp44
sI2
g41
((lp45
I3
aI6
atp46
Rp47
sI3
g41
((lp48
I4
aI5
atp49
Rp50
sI4
g41
((lp51
tp52
Rp53
sI5
g41
((lp54
tp55
Rp56
sI6
g41
((lp57
tp58
Rp59
sI7
g41
((lp60
tp61
Rp62
ssS'children_right'
p63
(dp64
I1
I7
sI2
I6
sI3
I5
sI4
NsI5
NsI6
NsI7
NssS'feature'
p65
(dp66
I1
g14
sI2
g15
sI3
g16
sI4
S'4'
p67
sI5
S'5'
p68
sI6
S'6'
p69
sI7
S'7'
p70
ssS'nodes'
p71
crpy2.robjects.robject
_reduce_robjectmixin
p72
(S'X\n\x00\x00\x00\x02\x00\x03\x04\x04\x00\x02\x03\x00\x00\x00\x00\r\x00\x00\x00\x07\x00\x00\x00\x01\x00\x00\x00\x02\x00\x00\x00\x03\x00\x00\x00\x04\x00\x00\x00\x05\x00\x00\x00\x06\x00\x00\x00\x07'
p73
I13
crpy2.rinterface._rinterface
unserialize
p74
crpy2.robjects.vectors
IntVector
p75
tp76
Rp77
(dp78
S'ro'
p79
g0
(crpy2.robjects.vectors
VectorOperationsDelegator
p80
g2
Ntp81
Rp82
(dp83
S'_parent'
p84
g77
sbsS'rx'
p85
g0
(crpy2.robjects.vectors
ExtractDelegator
p86
g2
Ntp87
Rp88
(dp89
g84
g77
sbsS'rx2'
p90
g0
(crpy2.robjects.vectors
DoubleExtractDelegator
p91
g2
Ntp92
Rp93
(dp94
g84
g77
sbsbsS'response_var_'
p95
S'P247'
p96
sS'edge_cond_'
p97
(dp98
(I1
I2
tp99
(lp100
g24
aS'Y'
p101
ag25
ag28
as(I2
I6
tp102
(lp103
S'C'
p104
as(I2
I3
tp105
(lp106
g24
ag27
ag28
as(I1
I7
tp107
(lp108
S'T'
p109
as(I3
I4
tp110
(lp111
g24
ag27
ag28
as(I3
I5
tp112
(lp113
S'C'
p114
assS'class_pred_'
p115
g22
sS'CLASSES'
p116
cnumpy.core.multiarray
_reconstruct
p117
(cnumpy
ndarray
p118
(I0
tp119
S'b'
p120
tp121
Rp122
(I1
(I5
tp123
cnumpy
dtype
p124
(S'O8'
p125
I0
I1
tp126
Rp127
(I3
S'|'
p128
NNNI-1
I-1
I63
tp129
bI00
(lp130
g24
ag25
ag28
ag26
ag27
atp131
bsS'TREE_LEAF'
p132
(dp133
I1
I00
sI2
I00
sI3
I00
sI4
I01
sI5
I01
sI6
I01
sI7
I01
ssS'num_pass_'
p134
(dp135
I1
I72
sI2
I60
sI3
I24
sI4
I15
sI5
I9
sI6
I36
sI7
I12
ssS'error'
p136
(dp137
I1
F44.44444444444444
sI2
F39.99999999999999
sI3
F16.666666666666664
sI4
F26.666666666666668
sI5
F0.0
sI6
F2.7777777777777777
sI7
F41.66666666666666
ssS'pvalue'
p138
g38
sS'class_names'
p139
g122
sS'n_node_samples'
p140
g135
sb.