ccopy_reg
_reconstructor
p0
(cmlx
tree_
p1
c__builtin__
object
p2
Ntp3
Rp4
(dp5
S'decision_rules_'
p6
(dp7
I4
S'P374 %in% c("A", "C", "G") & P130 %in% c("A", "C") & P258 %in% c("A")'
p8
sI5
S'P374 %in% c("A", "C", "G") & P130 %in% c("A", "C") & P258 %in% c("C", "G", "T")'
p9
sI6
S'P374 %in% c("A", "C", "G") & P130 %in% c("G", "T")'
p10
sI7
S'P374 %in% c("T")'
p11
ssS'significant_feature_weight_'
p12
(dp13
S'P374'
p14
F0.9992283757918423
sS'P130'
p15
F0.4190475848591892
sS'P258'
p16
F0.3333332755111581
ssS'children_left'
p17
(dp18
I1
I2
sI2
I3
sI3
I4
sI4
NsI5
NsI6
NsI7
NssS'ACCx_'
p19
F0.6944444444444444
sS'ACC_'
p20
F0.8611111111111112
sS'value'
p21
(dp22
I1
(dp23
S'A'
p24
F14.0
sS'C'
p25
F35.0
sS'T'
p26
F9.0
sS'G'
p27
F14.0
ssI2
(dp28
g24
F13.0
sg25
F1.0
sg26
F8.0
sg27
F13.0
ssI3
(dp29
g24
F13.0
sg25
F1.0
sg26
F0.0
sg27
F10.0
ssI4
(dp30
g24
F11.0
sg25
F0.0
sg26
F0.0
sg27
F1.0
ssI5
(dp31
g24
F2.0
sg25
F1.0
sg26
F0.0
sg27
F9.0
ssI6
(dp32
g24
F0.0
sg25
F0.0
sg26
F8.0
sg27
F3.0
ssI7
(dp33
g24
F1.0
sg25
F34.0
sg26
F1.0
sg27
F1.0
sssS'tprob_'
p34
(dp35
I4
F0.16666666666666666
sI5
F0.16666666666666666
sI6
F0.1527777777777778
sI7
F0.5138888888888888
ssS'threshold'
p36
(dp37
I1
F6.8833827526759706e-15
sI2
F3.98071476115369e-07
sI3
F0.000753181240818135
ssS'children'
p38
(dp39
I1
c__builtin__
set
p40
((lp41
I2
aI7
atp42
Rp43
sI2
g40
((lp44
I3
aI6
atp45
Rp46
sI3
g40
((lp47
I4
aI5
atp48
Rp49
sI4
g40
((lp50
tp51
Rp52
sI5
g40
((lp53
tp54
Rp55
sI6
g40
((lp56
tp57
Rp58
sI7
g40
((lp59
tp60
Rp61
ssS'children_right'
p62
(dp63
I1
I7
sI2
I6
sI3
I5
sI4
NsI5
NsI6
NsI7
NssS'feature'
p64
(dp65
I1
g14
sI2
g15
sI3
g16
sI4
S'4'
p66
sI5
S'5'
p67
sI6
S'6'
p68
sI7
S'7'
p69
ssS'nodes'
p70
crpy2.robjects.robject
_reduce_robjectmixin
p71
(S'X\n\x00\x00\x00\x02\x00\x03\x04\x04\x00\x02\x03\x00\x00\x00\x00\r\x00\x00\x00\x07\x00\x00\x00\x01\x00\x00\x00\x02\x00\x00\x00\x03\x00\x00\x00\x04\x00\x00\x00\x05\x00\x00\x00\x06\x00\x00\x00\x07'
p72
I13
crpy2.rinterface._rinterface
unserialize
p73
crpy2.robjects.vectors
IntVector
p74
tp75
Rp76
(dp77
S'ro'
p78
g0
(crpy2.robjects.vectors
VectorOperationsDelegator
p79
g2
Ntp80
Rp81
(dp82
S'_parent'
p83
g76
sbsS'rx'
p84
g0
(crpy2.robjects.vectors
ExtractDelegator
p85
g2
Ntp86
Rp87
(dp88
g83
g76
sbsS'rx2'
p89
g0
(crpy2.robjects.vectors
DoubleExtractDelegator
p90
g2
Ntp91
Rp92
(dp93
g83
g76
sbsbsS'response_var_'
p94
S'P191'
p95
sS'edge_cond_'
p96
(dp97
(I1
I2
tp98
(lp99
g24
ag25
ag27
as(I2
I6
tp100
(lp101
g26
ag27
as(I2
I3
tp102
(lp103
g24
ag25
as(I1
I7
tp104
(lp105
S'T'
p106
as(I3
I4
tp107
(lp108
S'A'
p109
as(I3
I5
tp110
(lp111
g25
ag26
ag27
assS'class_pred_'
p112
g22
sS'CLASSES'
p113
cnumpy.core.multiarray
_reconstruct
p114
(cnumpy
ndarray
p115
(I0
tp116
S'b'
p117
tp118
Rp119
(I1
(I4
tp120
cnumpy
dtype
p121
(S'O8'
p122
I0
I1
tp123
Rp124
(I3
S'|'
p125
NNNI-1
I-1
I63
tp126
bI00
(lp127
g24
ag25
ag27
ag26
atp128
bsS'TREE_LEAF'
p129
(dp130
I1
I00
sI2
I00
sI3
I00
sI4
I01
sI5
I01
sI6
I01
sI7
I01
ssS'num_pass_'
p131
(dp132
I1
I72
sI2
I35
sI3
I24
sI4
I12
sI5
I12
sI6
I11
sI7
I37
ssS'error'
p133
(dp134
I1
F51.38888888888889
sI2
F62.85714285714286
sI3
F45.833333333333336
sI4
F8.333333333333332
sI5
F24.999999999999996
sI6
F27.27272727272727
sI7
F8.108108108108109
ssS'pvalue'
p135
g37
sS'class_names'
p136
g119
sS'n_node_samples'
p137
g132
sb.