ccopy_reg
_reconstructor
p0
(cmlx
tree_
p1
c__builtin__
object
p2
Ntp3
Rp4
(dp5
S'decision_rules_'
p6
(dp7
I2
S'P155 %in% c("A")'
p8
sI5
S'P155 %in% c("C", "G", "T") & P225 %in% c("A", "C", "T") & P335 %in% c("A")'
p9
sI8
S'P155 %in% c("C", "G", "T") & P225 %in% c("A", "C", "T") & P335 %in% c("C", "G", "T") & P77 %in% c("A") & P121 %in% c("A", "NA", "T")'
p10
sI9
S'P155 %in% c("C", "G", "T") & P225 %in% c("A", "C", "T") & P335 %in% c("C", "G", "T") & P77 %in% c("A") & P121 %in% c("C", "NA")'
p11
sI10
S'P155 %in% c("C", "G", "T") & P225 %in% c("A", "C", "T") & P335 %in% c("C", "G", "T") & P77 %in% c("C", "G", "T")'
p12
sI11
S'P155 %in% c("C", "G", "T") & P225 %in% c("G")'
p13
ssS'significant_feature_weight_'
p14
(dp15
S'P77'
p16
F0.2933449758446833
sS'P155'
p17
F0.5015491999094412
sS'P225'
p18
F0.3402532394686982
sS'P121'
p19
F0.2373055454083612
sS'P335'
p20
F0.4437962552446696
ssS'children_left'
p21
(dp22
I1
I2
sI2
NsI3
I11
sI4
I5
sI5
NsI6
I10
sI7
I8
sI8
NsI9
NsI10
NsI11
NssS'ACCx_'
p23
F0.6388888888888888
sS'ACC_'
p24
F0.7916666666666666
sS'value'
p25
(dp26
I1
(dp27
S'A'
p28
F36.0
sS'C'
p29
F5.0
sS'T'
p30
F9.0
sS'G'
p31
F22.0
ssI2
(dp32
g28
F4.0
sg29
F0.0
sg30
F8.0
sg31
F0.0
ssI3
(dp33
g28
F32.0
sg29
F5.0
sg30
F1.0
sg31
F22.0
ssI4
(dp34
g28
F28.0
sg29
F1.0
sg30
F1.0
sg31
F22.0
ssI5
(dp35
g28
F2.0
sg29
F0.0
sg30
F0.0
sg31
F10.0
ssI6
(dp36
g28
F26.0
sg29
F1.0
sg30
F1.0
sg31
F12.0
ssI7
(dp37
g28
F24.0
sg29
F0.0
sg30
F0.0
sg31
F8.0
ssI8
(dp38
g28
F24.0
sg29
F0.0
sg30
F0.0
sg31
F1.0
ssI9
(dp39
g28
F0.0
sg29
F0.0
sg30
F0.0
sg31
F7.0
ssI10
(dp40
g28
F2.0
sg29
F1.0
sg30
F1.0
sg31
F4.0
ssI11
(dp41
g28
F4.0
sg29
F4.0
sg30
F0.0
sg31
F0.0
sssS'tprob_'
p42
(dp43
I2
F0.16666666666666666
sI5
F0.16666666666666666
sI8
F0.3472222222222222
sI9
F0.09722222222222222
sI10
F0.1111111111111111
sI11
F0.1111111111111111
ssS'threshold'
p44
(dp45
I1
I0
sI3
F7.82407472144087e-12
sI4
F1.0055366650441e-08
sI6
F2.3908208746092896e-11
sI7
F0.0008610986011412519
ssS'children'
p46
(dp47
I1
c__builtin__
set
p48
((lp49
I2
aI3
atp50
Rp51
sI2
g48
((lp52
tp53
Rp54
sI3
g48
((lp55
I11
aI4
atp56
Rp57
sI4
g48
((lp58
I5
aI6
atp59
Rp60
sI5
g48
((lp61
tp62
Rp63
sI6
g48
((lp64
I10
aI7
atp65
Rp66
sI7
g48
((lp67
I8
aI9
atp68
Rp69
sI8
g48
((lp70
tp71
Rp72
sI9
g48
((lp73
tp74
Rp75
sI10
g48
((lp76
tp77
Rp78
sI11
g48
((lp79
tp80
Rp81
ssS'children_right'
p82
(dp83
I1
I3
sI2
NsI3
I4
sI4
I6
sI5
NsI6
I7
sI7
I9
sI8
NsI9
NsI10
NsI11
NssS'feature'
p84
(dp85
I1
g17
sI2
S'2'
p86
sI3
g18
sI4
g20
sI5
S'5'
p87
sI6
g16
sI7
g19
sI8
S'8'
p88
sI9
S'9'
p89
sI10
S'10'
p90
sI11
S'11'
p91
ssS'nodes'
p92
crpy2.robjects.robject
_reduce_robjectmixin
p93
(S'X\n\x00\x00\x00\x02\x00\x03\x04\x04\x00\x02\x03\x00\x00\x00\x00\r\x00\x00\x00\x0b\x00\x00\x00\x01\x00\x00\x00\x02\x00\x00\x00\x03\x00\x00\x00\x04\x00\x00\x00\x05\x00\x00\x00\x06\x00\x00\x00\x07\x00\x00\x00\x08\x00\x00\x00\t\x00\x00\x00\n\x00\x00\x00\x0b'
p94
I13
crpy2.rinterface._rinterface
unserialize
p95
crpy2.robjects.vectors
IntVector
p96
tp97
Rp98
(dp99
S'ro'
p100
g0
(crpy2.robjects.vectors
VectorOperationsDelegator
p101
g2
Ntp102
Rp103
(dp104
S'_parent'
p105
g98
sbsS'rx'
p106
g0
(crpy2.robjects.vectors
ExtractDelegator
p107
g2
Ntp108
Rp109
(dp110
g105
g98
sbsS'rx2'
p111
g0
(crpy2.robjects.vectors
DoubleExtractDelegator
p112
g2
Ntp113
Rp114
(dp115
g105
g98
sbsbsS'response_var_'
p116
S'P172'
p117
sS'edge_cond_'
p118
(dp119
(I1
I2
tp120
(lp121
S'A'
p122
as(I1
I3
tp123
(lp124
g29
ag30
ag31
as(I6
I7
tp125
(lp126
S'A'
p127
as(I4
I6
tp128
(lp129
g29
ag30
ag31
as(I4
I5
tp130
(lp131
S'A'
p132
as(I7
I8
tp133
(lp134
g28
ag30
as(I6
I10
tp135
(lp136
g29
ag30
ag31
as(I3
I11
tp137
(lp138
S'G'
p139
as(I3
I4
tp140
(lp141
g28
ag29
ag30
as(I7
I9
tp142
(lp143
g29
assS'class_pred_'
p144
g26
sS'CLASSES'
p145
cnumpy.core.multiarray
_reconstruct
p146
(cnumpy
ndarray
p147
(I0
tp148
S'b'
p149
tp150
Rp151
(I1
(I4
tp152
cnumpy
dtype
p153
(S'O8'
p154
I0
I1
tp155
Rp156
(I3
S'|'
p157
NNNI-1
I-1
I63
tp158
bI00
(lp159
g28
ag29
ag31
ag30
atp160
bsS'TREE_LEAF'
p161
(dp162
I1
I00
sI2
I01
sI3
I00
sI4
I00
sI5
I01
sI6
I00
sI7
I00
sI8
I01
sI9
I01
sI10
I01
sI11
I01
ssS'num_pass_'
p163
(dp164
I1
I72
sI2
I12
sI3
I60
sI4
I52
sI5
I12
sI6
I40
sI7
I32
sI8
I25
sI9
I7
sI10
I8
sI11
I8
ssS'error'
p165
(dp166
I1
F50.0
sI2
F33.33333333333333
sI3
F46.666666666666664
sI4
F46.15384615384615
sI5
F16.666666666666664
sI6
F35.0
sI7
F25.0
sI8
F4.0
sI9
F0.0
sI10
F50.0
sI11
F50.0
ssS'pvalue'
p167
g45
sS'class_names'
p168
g151
sS'n_node_samples'
p169
g164
sb.