ccopy_reg
_reconstructor
p0
(cmlx
tree_
p1
c__builtin__
object
p2
Ntp3
Rp4
(dp5
S'decision_rules_'
p6
(dp7
I3
S'P48 %in% c("A", "G", "R", "T") & P72 %in% c("A")'
p8
sI5
S'P48 %in% c("A", "G", "R", "T") & P72 %in% c("C", "G", "T") & P307 %in% c("A", "C", "Y")'
p9
sI6
S'P48 %in% c("A", "G", "R", "T") & P72 %in% c("C", "G", "T") & P307 %in% c("G", "T")'
p10
sI7
S'P48 %in% c("C")'
p11
ssS'significant_feature_weight_'
p12
(dp13
S'P307'
p14
F0.0
sS'P72'
p15
F0.5731922254217607
sS'P48'
p16
F0.43749999156291475
ssS'children_left'
p17
(dp18
I1
I2
sI2
I3
sI3
NsI4
I5
sI5
NsI6
NsI7
NssS'ACCx_'
p19
F0.7638888888888888
sS'ACC_'
p20
F0.8333333333333334
sS'value'
p21
(dp22
I1
(dp23
S'A'
p24
F10.0
sS'C'
p25
F2.0
sS'T'
p26
F11.0
sS'G'
p27
F49.0
ssI2
(dp28
g24
F2.0
sg25
F2.0
sg26
F10.0
sg27
F49.0
ssI3
(dp29
g24
F0.0
sg25
F0.0
sg26
F8.0
sg27
F5.0
ssI4
(dp30
g24
F2.0
sg25
F2.0
sg26
F2.0
sg27
F44.0
ssI5
(dp31
g24
F2.0
sg25
F0.0
sg26
F2.0
sg27
F34.0
ssI6
(dp32
g24
F0.0
sg25
F2.0
sg26
F0.0
sg27
F10.0
ssI7
(dp33
g24
F8.0
sg25
F0.0
sg26
F1.0
sg27
F0.0
sssS'tprob_'
p34
(dp35
I3
F0.18055555555555555
sI5
F0.5277777777777778
sI6
F0.16666666666666666
sI7
F0.125
ssS'threshold'
p36
(dp37
I1
F4.874989301129059e-13
sI2
F1.21003207453896e-12
sI4
F4.14002165882721e-13
ssS'children'
p38
(dp39
I1
c__builtin__
set
p40
((lp41
I2
aI7
atp42
Rp43
sI2
g40
((lp44
I3
aI4
atp45
Rp46
sI3
g40
((lp47
tp48
Rp49
sI4
g40
((lp50
I5
aI6
atp51
Rp52
sI5
g40
((lp53
tp54
Rp55
sI6
g40
((lp56
tp57
Rp58
sI7
g40
((lp59
tp60
Rp61
ssS'children_right'
p62
(dp63
I1
I7
sI2
I4
sI3
NsI4
I6
sI5
NsI6
NsI7
NssS'feature'
p64
(dp65
I1
g16
sI2
g15
sI3
S'3'
p66
sI4
g14
sI5
S'5'
p67
sI6
S'6'
p68
sI7
S'7'
p69
ssS'nodes'
p70
crpy2.robjects.robject
_reduce_robjectmixin
p71
(S'X\n\x00\x00\x00\x02\x00\x03\x04\x04\x00\x02\x03\x00\x00\x00\x00\r\x00\x00\x00\x07\x00\x00\x00\x01\x00\x00\x00\x02\x00\x00\x00\x03\x00\x00\x00\x04\x00\x00\x00\x05\x00\x00\x00\x06\x00\x00\x00\x07'
p72
I13
crpy2.rinterface._rinterface
unserialize
p73
crpy2.robjects.vectors
IntVector
p74
tp75
Rp76
(dp77
S'ro'
p78
g0
(crpy2.robjects.vectors
VectorOperationsDelegator
p79
g2
Ntp80
Rp81
(dp82
S'_parent'
p83
g76
sbsS'rx'
p84
g0
(crpy2.robjects.vectors
ExtractDelegator
p85
g2
Ntp86
Rp87
(dp88
g83
g76
sbsS'rx2'
p89
g0
(crpy2.robjects.vectors
DoubleExtractDelegator
p90
g2
Ntp91
Rp92
(dp93
g83
g76
sbsbsS'response_var_'
p94
S'P15'
p95
sS'edge_cond_'
p96
(dp97
(I1
I2
tp98
(lp99
g24
aS'R'
p100
ag26
ag27
as(I4
I6
tp101
(lp102
g26
ag27
as(I4
I5
tp103
(lp104
g24
aS'Y'
p105
ag25
as(I2
I3
tp106
(lp107
S'A'
p108
as(I1
I7
tp109
(lp110
S'C'
p111
as(I2
I4
tp112
(lp113
g25
ag26
ag27
assS'class_pred_'
p114
g22
sS'CLASSES'
p115
cnumpy.core.multiarray
_reconstruct
p116
(cnumpy
ndarray
p117
(I0
tp118
S'b'
p119
tp120
Rp121
(I1
(I4
tp122
cnumpy
dtype
p123
(S'O8'
p124
I0
I1
tp125
Rp126
(I3
S'|'
p127
NNNI-1
I-1
I63
tp128
bI00
(lp129
g24
ag25
ag27
ag26
atp130
bsS'TREE_LEAF'
p131
(dp132
I1
I00
sI2
I00
sI3
I01
sI4
I00
sI5
I01
sI6
I01
sI7
I01
ssS'num_pass_'
p133
(dp134
I1
I72
sI2
I63
sI3
I13
sI4
I50
sI5
I38
sI6
I12
sI7
I9
ssS'error'
p135
(dp136
I1
F31.944444444444446
sI2
F22.22222222222222
sI3
F38.46153846153847
sI4
F12.0
sI5
F10.526315789473683
sI6
F16.666666666666664
sI7
F11.11111111111111
ssS'pvalue'
p137
g37
sS'class_names'
p138
g121
sS'n_node_samples'
p139
g134
sb.