ccopy_reg
_reconstructor
p0
(cmlx
tree_
p1
c__builtin__
object
p2
Ntp3
Rp4
(dp5
S'decision_rules_'
p6
(dp7
I4
S'P40 %in% c("A", "G", "T") & P305 %in% c("A", "C", "G") & P156 %in% c("A")'
p8
sI6
S'P40 %in% c("A", "G", "T") & P305 %in% c("A", "C", "G") & P156 %in% c("C", "G", "T") & P346 %in% c("A", "C")'
p9
sI8
S'P40 %in% c("A", "G", "T") & P305 %in% c("A", "C", "G") & P156 %in% c("C", "G", "T") & P346 %in% c("G", "T") & P362 %in% c("A", "T")'
p10
sI9
S'P40 %in% c("A", "G", "T") & P305 %in% c("A", "C", "G") & P156 %in% c("C", "G", "T") & P346 %in% c("G", "T") & P362 %in% c("C", "G")'
p11
sI10
S'P40 %in% c("A", "G", "T") & P305 %in% c("T")'
p12
sI11
S'P40 %in% c("C")'
p13
ssS'significant_feature_weight_'
p14
(dp15
S'P156'
p16
F0.6101190281706673
sS'P305'
p17
F0.4307692205766457
sS'P362'
p18
F0.4579124158890363
sS'P346'
p19
F0.35772355596574607
sS'P40'
p20
F0.3169081701152682
ssS'children_left'
p21
(dp22
I1
I2
sI2
I10
sI3
I4
sI4
NsI5
I6
sI6
NsI7
I8
sI8
NsI9
NsI10
NsI11
NssS'ACCx_'
p23
F0.5416666666666667
sS'ACC_'
p24
F0.8611111111111112
sS'value'
p25
(dp26
I1
(dp27
S'A'
p28
F10.0
sS'C'
p29
F30.0
sS'T'
p30
F24.0
sS'G'
p31
F8.0
ssI2
(dp32
g28
F10.0
sg29
F30.0
sg30
F24.0
sg31
F1.0
ssI3
(dp33
g28
F2.0
sg29
F29.0
sg30
F24.0
sg31
F1.0
ssI4
(dp34
g28
F0.0
sg29
F1.0
sg30
F14.0
sg31
F0.0
ssI5
(dp35
g28
F2.0
sg29
F28.0
sg30
F10.0
sg31
F1.0
ssI6
(dp36
g28
F2.0
sg29
F6.0
sg30
F0.0
sg31
F0.0
ssI7
(dp37
g28
F0.0
sg29
F22.0
sg30
F10.0
sg31
F1.0
ssI8
(dp38
g28
F0.0
sg29
F17.0
sg30
F0.0
sg31
F0.0
ssI9
(dp39
g28
F0.0
sg29
F5.0
sg30
F10.0
sg31
F1.0
ssI10
(dp40
g28
F8.0
sg29
F1.0
sg30
F0.0
sg31
F0.0
ssI11
(dp41
g28
F0.0
sg29
F0.0
sg30
F0.0
sg31
F7.0
sssS'tprob_'
p42
(dp43
I4
F0.20833333333333334
sI6
F0.1111111111111111
sI8
F0.2361111111111111
sI9
F0.2222222222222222
sI10
F0.125
sI11
F0.09722222222222222
ssS'threshold'
p44
(dp45
I1
F1.40443212615082e-13
sI2
F1.46842538129022e-11
sI3
F1.70652381115133e-12
sI5
F1.8905654819434397e-11
sI7
F3.77167431098169e-06
ssS'children'
p46
(dp47
I1
c__builtin__
set
p48
((lp49
I2
aI11
atp50
Rp51
sI2
g48
((lp52
I10
aI3
atp53
Rp54
sI3
g48
((lp55
I4
aI5
atp56
Rp57
sI4
g48
((lp58
tp59
Rp60
sI5
g48
((lp61
I6
aI7
atp62
Rp63
sI6
g48
((lp64
tp65
Rp66
sI7
g48
((lp67
I8
aI9
atp68
Rp69
sI8
g48
((lp70
tp71
Rp72
sI9
g48
((lp73
tp74
Rp75
sI10
g48
((lp76
tp77
Rp78
sI11
g48
((lp79
tp80
Rp81
ssS'children_right'
p82
(dp83
I1
I11
sI2
I3
sI3
I5
sI4
NsI5
I7
sI6
NsI7
I9
sI8
NsI9
NsI10
NsI11
NssS'feature'
p84
(dp85
I1
g20
sI2
g17
sI3
g16
sI4
S'4'
p86
sI5
g19
sI6
S'6'
p87
sI7
g18
sI8
S'8'
p88
sI9
S'9'
p89
sI10
S'10'
p90
sI11
S'11'
p91
ssS'nodes'
p92
crpy2.robjects.robject
_reduce_robjectmixin
p93
(S'X\n\x00\x00\x00\x02\x00\x03\x04\x04\x00\x02\x03\x00\x00\x00\x00\r\x00\x00\x00\x0b\x00\x00\x00\x01\x00\x00\x00\x02\x00\x00\x00\x03\x00\x00\x00\x04\x00\x00\x00\x05\x00\x00\x00\x06\x00\x00\x00\x07\x00\x00\x00\x08\x00\x00\x00\t\x00\x00\x00\n\x00\x00\x00\x0b'
p94
I13
crpy2.rinterface._rinterface
unserialize
p95
crpy2.robjects.vectors
IntVector
p96
tp97
Rp98
(dp99
S'ro'
p100
g0
(crpy2.robjects.vectors
VectorOperationsDelegator
p101
g2
Ntp102
Rp103
(dp104
S'_parent'
p105
g98
sbsS'rx'
p106
g0
(crpy2.robjects.vectors
ExtractDelegator
p107
g2
Ntp108
Rp109
(dp110
g105
g98
sbsS'rx2'
p111
g0
(crpy2.robjects.vectors
DoubleExtractDelegator
p112
g2
Ntp113
Rp114
(dp115
g105
g98
sbsbsS'response_var_'
p116
S'P388'
p117
sS'edge_cond_'
p118
(dp119
(I1
I2
tp120
(lp121
g28
ag30
ag31
as(I1
I11
tp122
(lp123
S'C'
p124
as(I5
I6
tp125
(lp126
g28
ag29
as(I7
I8
tp127
(lp128
g28
ag30
as(I5
I7
tp129
(lp130
g30
ag31
as(I2
I10
tp131
(lp132
S'T'
p133
as(I2
I3
tp134
(lp135
g28
ag29
ag31
as(I7
I9
tp136
(lp137
g29
ag31
as(I3
I4
tp138
(lp139
S'A'
p140
as(I3
I5
tp141
(lp142
g29
ag30
ag31
assS'class_pred_'
p143
g26
sS'CLASSES'
p144
cnumpy.core.multiarray
_reconstruct
p145
(cnumpy
ndarray
p146
(I0
tp147
S'b'
p148
tp149
Rp150
(I1
(I4
tp151
cnumpy
dtype
p152
(S'O8'
p153
I0
I1
tp154
Rp155
(I3
S'|'
p156
NNNI-1
I-1
I63
tp157
bI00
(lp158
g28
ag29
ag31
ag30
atp159
bsS'TREE_LEAF'
p160
(dp161
I1
I00
sI2
I00
sI3
I00
sI4
I01
sI5
I00
sI6
I01
sI7
I00
sI8
I01
sI9
I01
sI10
I01
sI11
I01
ssS'num_pass_'
p162
(dp163
I1
I72
sI2
I65
sI3
I56
sI4
I15
sI5
I41
sI6
I8
sI7
I33
sI8
I17
sI9
I16
sI10
I9
sI11
I7
ssS'error'
p164
(dp165
I1
F58.33333333333333
sI2
F53.846153846153854
sI3
F48.21428571428571
sI4
F6.666666666666667
sI5
F31.70731707317073
sI6
F25.0
sI7
F33.333333333333336
sI8
F0.0
sI9
F37.5
sI10
F11.11111111111111
sI11
F0.0
ssS'pvalue'
p166
g45
sS'class_names'
p167
g150
sS'n_node_samples'
p168
g163
sb.