ccopy_reg
_reconstructor
p0
(cmlx
tree_
p1
c__builtin__
object
p2
Ntp3
Rp4
(dp5
S'decision_rules_'
p6
(dp7
I3
S'P332 %in% c("A", "C") & P267 %in% c("A", "G")'
p8
sI5
S'P332 %in% c("A", "C") & P267 %in% c("C", "T") & P333 %in% c("A", "G", "NA")'
p9
sI6
S'P332 %in% c("A", "C") & P267 %in% c("C", "T") & P333 %in% c("C", "T", "NA")'
p10
sI7
S'P332 %in% c("G", "T")'
p11
ssS'significant_feature_weight_'
p12
(dp13
S'P332'
p14
F0.6913580113586801
sS'P333'
p15
F0.0
sS'P267'
p16
F0.380952368809002
ssS'children_left'
p17
(dp18
I1
I2
sI2
I3
sI3
NsI4
I5
sI5
NsI6
NsI7
NssS'ACCx_'
p19
F0.6388888888888888
sS'ACC_'
p20
F0.8333333333333334
sS'value'
p21
(dp22
I1
(dp23
S'A'
p24
F52.0
sS'C'
p25
F4.0
sS'T'
p26
F2.0
sS'G'
p27
F14.0
ssI2
(dp28
g24
F49.0
sg25
F1.0
sg26
F0.0
sg27
F6.0
ssI3
(dp29
g24
F2.0
sg25
F1.0
sg26
F0.0
sg27
F5.0
ssI4
(dp30
g24
F47.0
sg25
F0.0
sg26
F0.0
sg27
F1.0
ssI5
(dp31
g24
F40.0
sg25
F0.0
sg26
F0.0
sg27
F0.0
ssI6
(dp32
g24
F7.0
sg25
F0.0
sg26
F0.0
sg27
F1.0
ssI7
(dp33
g24
F3.0
sg25
F3.0
sg26
F2.0
sg27
F8.0
sssS'tprob_'
p34
(dp35
I3
F0.1111111111111111
sI5
F0.5555555555555556
sI6
F0.1111111111111111
sI7
F0.2222222222222222
ssS'threshold'
p36
(dp37
I1
F2.4162216671896896e-10
sI2
F1.15796261468404e-13
sI4
F1.38676704120044e-07
ssS'children'
p38
(dp39
I1
c__builtin__
set
p40
((lp41
I2
aI7
atp42
Rp43
sI2
g40
((lp44
I3
aI4
atp45
Rp46
sI3
g40
((lp47
tp48
Rp49
sI4
g40
((lp50
I5
aI6
atp51
Rp52
sI5
g40
((lp53
tp54
Rp55
sI6
g40
((lp56
tp57
Rp58
sI7
g40
((lp59
tp60
Rp61
ssS'children_right'
p62
(dp63
I1
I7
sI2
I4
sI3
NsI4
I6
sI5
NsI6
NsI7
NssS'feature'
p64
(dp65
I1
g14
sI2
g16
sI3
S'3'
p66
sI4
g15
sI5
S'5'
p67
sI6
S'6'
p68
sI7
S'7'
p69
ssS'nodes'
p70
crpy2.robjects.robject
_reduce_robjectmixin
p71
(S'X\n\x00\x00\x00\x02\x00\x03\x04\x04\x00\x02\x03\x00\x00\x00\x00\r\x00\x00\x00\x07\x00\x00\x00\x01\x00\x00\x00\x02\x00\x00\x00\x03\x00\x00\x00\x04\x00\x00\x00\x05\x00\x00\x00\x06\x00\x00\x00\x07'
p72
I13
crpy2.rinterface._rinterface
unserialize
p73
crpy2.robjects.vectors
IntVector
p74
tp75
Rp76
(dp77
S'ro'
p78
g0
(crpy2.robjects.vectors
VectorOperationsDelegator
p79
g2
Ntp80
Rp81
(dp82
S'_parent'
p83
g76
sbsS'rx'
p84
g0
(crpy2.robjects.vectors
ExtractDelegator
p85
g2
Ntp86
Rp87
(dp88
g83
g76
sbsS'rx2'
p89
g0
(crpy2.robjects.vectors
DoubleExtractDelegator
p90
g2
Ntp91
Rp92
(dp93
g83
g76
sbsbsS'response_var_'
p94
S'P312'
p95
sS'edge_cond_'
p96
(dp97
(I1
I2
tp98
(lp99
g24
ag25
as(I4
I6
tp100
(lp101
g25
ag26
as(I4
I5
tp102
(lp103
g24
ag27
as(I2
I3
tp104
(lp105
g24
ag27
as(I1
I7
tp106
(lp107
g26
ag27
as(I2
I4
tp108
(lp109
g25
ag26
assS'class_pred_'
p110
g22
sS'CLASSES'
p111
cnumpy.core.multiarray
_reconstruct
p112
(cnumpy
ndarray
p113
(I0
tp114
S'b'
p115
tp116
Rp117
(I1
(I4
tp118
cnumpy
dtype
p119
(S'O8'
p120
I0
I1
tp121
Rp122
(I3
S'|'
p123
NNNI-1
I-1
I63
tp124
bI00
(lp125
g24
ag25
ag27
ag26
atp126
bsS'TREE_LEAF'
p127
(dp128
I1
I00
sI2
I00
sI3
I01
sI4
I00
sI5
I01
sI6
I01
sI7
I01
ssS'num_pass_'
p129
(dp130
I1
I72
sI2
I56
sI3
I8
sI4
I48
sI5
I40
sI6
I8
sI7
I16
ssS'error'
p131
(dp132
I1
F27.77777777777778
sI2
F12.5
sI3
F37.5
sI4
F2.083333333333333
sI5
F0.0
sI6
F12.5
sI7
F50.0
ssS'pvalue'
p133
g37
sS'class_names'
p134
g117
sS'n_node_samples'
p135
g130
sb.