ccopy_reg
_reconstructor
p0
(cmlx
tree_
p1
c__builtin__
object
p2
Ntp3
Rp4
(dp5
S'decision_rules_'
p6
(dp7
I8
S'P184 %in% c("C", "G", "T") & P293 %in% c("A", "G", "T") & P26 %in% c("C", "G", "T") & P140 %in% c("C")'
p8
sI9
S'P184 %in% c("C", "G", "T") & P293 %in% c("C")'
p9
sI2
S'P184 %in% c("A")'
p10
sI5
S'P184 %in% c("C", "G", "T") & P293 %in% c("A", "G", "T") & P26 %in% c("A")'
p11
sI7
S'P184 %in% c("C", "G", "T") & P293 %in% c("A", "G", "T") & P26 %in% c("C", "G", "T") & P140 %in% c("A", "G", "T")'
p12
ssS'significant_feature_weight_'
p13
(dp14
S'P184'
p15
F0.8999928258526964
sS'P293'
p16
F0.28625436768975615
sS'P26'
p17
F0.2839649794496902
sS'P140'
p18
F0.0
ssS'children_left'
p19
(dp20
I1
I2
sI2
NsI3
I9
sI4
I5
sI5
NsI6
I8
sI7
NsI8
NsI9
NssS'ACCx_'
p21
F0.7222222222222222
sS'ACC_'
p22
F0.8472222222222222
sS'value'
p23
(dp24
I1
(dp25
S'A'
p26
F18.0
sS'C'
p27
F8.0
sS'T'
p28
F36.0
sS'G'
p29
F10.0
ssI2
(dp30
g26
F1.0
sg27
F0.0
sg28
F33.0
sg29
F0.0
ssI3
(dp31
g26
F17.0
sg27
F8.0
sg28
F3.0
sg29
F10.0
ssI4
(dp32
g26
F17.0
sg27
F1.0
sg28
F3.0
sg29
F9.0
ssI5
(dp33
g26
F3.0
sg27
F0.0
sg28
F0.0
sg29
F7.0
ssI6
(dp34
g26
F14.0
sg27
F1.0
sg28
F3.0
sg29
F2.0
ssI7
(dp35
g26
F7.0
sg27
F1.0
sg28
F3.0
sg29
F2.0
ssI8
(dp36
g26
F7.0
sg27
F0.0
sg28
F0.0
sg29
F0.0
ssI9
(dp37
g26
F0.0
sg27
F7.0
sg28
F0.0
sg29
F1.0
sssS'tprob_'
p38
(dp39
I8
F0.09722222222222222
sI9
F0.1111111111111111
sI2
F0.4722222222222222
sI5
F0.1388888888888889
sI7
F0.18055555555555555
ssS'threshold'
p40
(dp41
I1
I0
sI3
F2.46957167049366e-07
sI4
F0.000493862595264849
sI6
F0.0021229628540204697
ssS'children'
p42
(dp43
I1
c__builtin__
set
p44
((lp45
I2
aI3
atp46
Rp47
sI2
g44
((lp48
tp49
Rp50
sI3
g44
((lp51
I9
aI4
atp52
Rp53
sI4
g44
((lp54
I5
aI6
atp55
Rp56
sI5
g44
((lp57
tp58
Rp59
sI6
g44
((lp60
I8
aI7
atp61
Rp62
sI7
g44
((lp63
tp64
Rp65
sI8
g44
((lp66
tp67
Rp68
sI9
g44
((lp69
tp70
Rp71
ssS'children_right'
p72
(dp73
I1
I3
sI2
NsI3
I4
sI4
I6
sI5
NsI6
I7
sI7
NsI8
NsI9
NssS'feature'
p74
(dp75
I1
g15
sI2
S'2'
p76
sI3
g16
sI4
g17
sI5
S'5'
p77
sI6
g18
sI7
S'7'
p78
sI8
S'8'
p79
sI9
S'9'
p80
ssS'nodes'
p81
crpy2.robjects.robject
_reduce_robjectmixin
p82
(S'X\n\x00\x00\x00\x02\x00\x03\x04\x04\x00\x02\x03\x00\x00\x00\x00\r\x00\x00\x00\t\x00\x00\x00\x01\x00\x00\x00\x02\x00\x00\x00\x03\x00\x00\x00\x04\x00\x00\x00\x05\x00\x00\x00\x06\x00\x00\x00\x07\x00\x00\x00\x08\x00\x00\x00\t'
p83
I13
crpy2.rinterface._rinterface
unserialize
p84
crpy2.robjects.vectors
IntVector
p85
tp86
Rp87
(dp88
S'ro'
p89
g0
(crpy2.robjects.vectors
VectorOperationsDelegator
p90
g2
Ntp91
Rp92
(dp93
S'_parent'
p94
g87
sbsS'rx'
p95
g0
(crpy2.robjects.vectors
ExtractDelegator
p96
g2
Ntp97
Rp98
(dp99
g94
g87
sbsS'rx2'
p100
g0
(crpy2.robjects.vectors
DoubleExtractDelegator
p101
g2
Ntp102
Rp103
(dp104
g94
g87
sbsbsS'response_var_'
p105
S'P386'
p106
sS'edge_cond_'
p107
(dp108
(I1
I2
tp109
(lp110
S'A'
p111
as(I1
I3
tp112
(lp113
g27
ag28
ag29
as(I6
I7
tp114
(lp115
g26
ag28
ag29
as(I4
I6
tp116
(lp117
g27
ag28
ag29
as(I4
I5
tp118
(lp119
S'A'
p120
as(I3
I9
tp121
(lp122
S'C'
p123
as(I3
I4
tp124
(lp125
g26
ag28
ag29
as(I6
I8
tp126
(lp127
S'C'
p128
assS'class_pred_'
p129
g24
sS'CLASSES'
p130
cnumpy.core.multiarray
_reconstruct
p131
(cnumpy
ndarray
p132
(I0
tp133
S'b'
p134
tp135
Rp136
(I1
(I4
tp137
cnumpy
dtype
p138
(S'O8'
p139
I0
I1
tp140
Rp141
(I3
S'|'
p142
NNNI-1
I-1
I63
tp143
bI00
(lp144
g26
ag27
ag29
ag28
atp145
bsS'TREE_LEAF'
p146
(dp147
I1
I00
sI2
I01
sI3
I00
sI4
I00
sI5
I01
sI6
I00
sI7
I01
sI8
I01
sI9
I01
ssS'num_pass_'
p148
(dp149
I1
I72
sI2
I34
sI3
I38
sI4
I30
sI5
I10
sI6
I20
sI7
I13
sI8
I7
sI9
I8
ssS'error'
p150
(dp151
I1
F50.0
sI2
F2.941176470588235
sI3
F55.263157894736835
sI4
F43.333333333333336
sI5
F30.0
sI6
F30.0
sI7
F46.15384615384615
sI8
F0.0
sI9
F12.5
ssS'pvalue'
p152
g41
sS'class_names'
p153
g136
sS'n_node_samples'
p154
g149
sb.