ccopy_reg
_reconstructor
p0
(cmlx
tree_
p1
c__builtin__
object
p2
Ntp3
Rp4
(dp5
S'decision_rules_'
p6
(dp7
I2
S'P204 %in% c("A")'
p8
sI4
S'P204 %in% c("C", "G", "T") & P319 %in% c("A", "T")'
p9
sI5
S'P204 %in% c("C", "G", "T") & P319 %in% c("C", "G")'
p10
ssS'significant_feature_weight_'
p11
(dp12
S'P204'
p13
F0.9506172656181852
sS'P319'
p14
F0.3809523323962052
ssS'children_left'
p15
(dp16
I1
I2
sI2
NsI3
I4
sI4
NsI5
NssS'ACCx_'
p17
F0.6527777777777778
sS'ACC_'
p18
F0.8472222222222222
sS'value'
p19
(dp20
I1
(dp21
S'A'
p22
F47.0
sS'C'
p23
F5.0
sS'T'
p24
F12.0
sS'G'
p25
F8.0
ssI2
(dp26
g22
F44.0
sg23
F0.0
sg24
F0.0
sg25
F0.0
ssI3
(dp27
g22
F3.0
sg23
F5.0
sg24
F12.0
sg25
F8.0
ssI4
(dp28
g22
F3.0
sg23
F0.0
sg24
F2.0
sg25
F7.0
ssI5
(dp29
g22
F0.0
sg23
F5.0
sg24
F10.0
sg25
F1.0
sssS'tprob_'
p30
(dp31
I2
F0.6111111111111112
sI4
F0.16666666666666666
sI5
F0.2222222222222222
ssS'threshold'
p32
(dp33
I1
F3.33066907387547e-16
sI3
F0.0260742161930324
ssS'children'
p34
(dp35
I1
c__builtin__
set
p36
((lp37
I2
aI3
atp38
Rp39
sI2
g36
((lp40
tp41
Rp42
sI3
g36
((lp43
I4
aI5
atp44
Rp45
sI4
g36
((lp46
tp47
Rp48
sI5
g36
((lp49
tp50
Rp51
ssS'children_right'
p52
(dp53
I1
I3
sI2
NsI3
I5
sI4
NsI5
NssS'feature'
p54
(dp55
I1
g13
sI2
S'2'
p56
sI3
g14
sI4
S'4'
p57
sI5
S'5'
p58
ssS'nodes'
p59
crpy2.robjects.robject
_reduce_robjectmixin
p60
(S'X\n\x00\x00\x00\x02\x00\x03\x04\x04\x00\x02\x03\x00\x00\x00\x00\r\x00\x00\x00\x05\x00\x00\x00\x01\x00\x00\x00\x02\x00\x00\x00\x03\x00\x00\x00\x04\x00\x00\x00\x05'
p61
I13
crpy2.rinterface._rinterface
unserialize
p62
crpy2.robjects.vectors
IntVector
p63
tp64
Rp65
(dp66
S'ro'
p67
g0
(crpy2.robjects.vectors
VectorOperationsDelegator
p68
g2
Ntp69
Rp70
(dp71
S'_parent'
p72
g65
sbsS'rx'
p73
g0
(crpy2.robjects.vectors
ExtractDelegator
p74
g2
Ntp75
Rp76
(dp77
g72
g65
sbsS'rx2'
p78
g0
(crpy2.robjects.vectors
DoubleExtractDelegator
p79
g2
Ntp80
Rp81
(dp82
g72
g65
sbsbsS'response_var_'
p83
S'P177'
p84
sS'edge_cond_'
p85
(dp86
(I1
I2
tp87
(lp88
S'A'
p89
as(I1
I3
tp90
(lp91
g23
ag24
ag25
as(I3
I4
tp92
(lp93
g22
ag24
as(I3
I5
tp94
(lp95
g23
ag25
assS'class_pred_'
p96
g20
sS'CLASSES'
p97
cnumpy.core.multiarray
_reconstruct
p98
(cnumpy
ndarray
p99
(I0
tp100
S'b'
p101
tp102
Rp103
(I1
(I4
tp104
cnumpy
dtype
p105
(S'O8'
p106
I0
I1
tp107
Rp108
(I3
S'|'
p109
NNNI-1
I-1
I63
tp110
bI00
(lp111
g22
ag23
ag25
ag24
atp112
bsS'TREE_LEAF'
p113
(dp114
I1
I00
sI2
I01
sI3
I00
sI4
I01
sI5
I01
ssS'num_pass_'
p115
(dp116
I1
I72
sI2
I44
sI3
I28
sI4
I12
sI5
I16
ssS'error'
p117
(dp118
I1
F34.72222222222222
sI2
F0.0
sI3
F57.14285714285714
sI4
F41.666666666666664
sI5
F37.5
ssS'pvalue'
p119
g33
sS'class_names'
p120
g103
sS'n_node_samples'
p121
g116
sb.