ccopy_reg
_reconstructor
p0
(cmlx
tree_
p1
c__builtin__
object
p2
Ntp3
Rp4
(dp5
S'decision_rules_'
p6
(dp7
I8
S'P24 %in% c("A", "C", "T") & P285 %in% c("C")'
p8
sI9
S'P24 %in% c("G")'
p9
sI4
S'P24 %in% c("A", "C", "T") & P285 %in% c("A", "G", "T") & P226 %in% c("A")'
p10
sI6
S'P24 %in% c("A", "C", "T") & P285 %in% c("A", "G", "T") & P226 %in% c("C", "G", "T") & P337 %in% c("A")'
p11
sI7
S'P24 %in% c("A", "C", "T") & P285 %in% c("A", "G", "T") & P226 %in% c("C", "G", "T") & P337 %in% c("C", "G", "T")'
p12
ssS'significant_feature_weight_'
p13
(dp14
S'P24'
p15
F0.7956157429680418
sS'P285'
p16
F0.2085005977809333
sS'P337'
p17
F0.0
sS'P226'
p18
F0.3448725789710836
ssS'children_left'
p19
(dp20
I1
I9
sI2
I8
sI3
I4
sI4
NsI5
I6
sI6
NsI7
NsI8
NsI9
NssS'ACCx_'
p21
F0.6805555555555556
sS'ACC_'
p22
F0.8888888888888888
sS'value'
p23
(dp24
I1
(dp25
S'A'
p26
F19.0
sS'C'
p27
F7.0
sS'T'
p28
F14.0
sS'G'
p29
F32.0
ssI2
(dp30
g26
F19.0
sg27
F7.0
sg28
F13.0
sg29
F1.0
ssI3
(dp31
g26
F19.0
sg27
F2.0
sg28
F11.0
sg29
F1.0
ssI4
(dp32
g26
F2.0
sg27
F0.0
sg28
F11.0
sg29
F0.0
ssI5
(dp33
g26
F17.0
sg27
F2.0
sg28
F0.0
sg29
F1.0
ssI6
(dp34
g26
F13.0
sg27
F0.0
sg28
F0.0
sg29
F0.0
ssI7
(dp35
g26
F4.0
sg27
F2.0
sg28
F0.0
sg29
F1.0
ssI8
(dp36
g26
F0.0
sg27
F5.0
sg28
F2.0
sg29
F0.0
ssI9
(dp37
g26
F0.0
sg27
F0.0
sg28
F1.0
sg29
F31.0
sssS'tprob_'
p38
(dp39
I8
F0.09722222222222222
sI9
F0.4444444444444444
sI4
F0.18055555555555555
sI6
F0.18055555555555555
sI7
F0.09722222222222222
ssS'threshold'
p40
(dp41
I1
I0
sI2
F9.753488017238961e-08
sI3
F1.43072911851228e-07
sI5
F0.00044812072926170304
ssS'children'
p42
(dp43
I1
c__builtin__
set
p44
((lp45
I9
aI2
atp46
Rp47
sI2
g44
((lp48
I8
aI3
atp49
Rp50
sI3
g44
((lp51
I4
aI5
atp52
Rp53
sI4
g44
((lp54
tp55
Rp56
sI5
g44
((lp57
I6
aI7
atp58
Rp59
sI6
g44
((lp60
tp61
Rp62
sI7
g44
((lp63
tp64
Rp65
sI8
g44
((lp66
tp67
Rp68
sI9
g44
((lp69
tp70
Rp71
ssS'children_right'
p72
(dp73
I1
I2
sI2
I3
sI3
I5
sI4
NsI5
I7
sI6
NsI7
NsI8
NsI9
NssS'feature'
p74
(dp75
I1
g15
sI2
g16
sI3
g18
sI4
S'4'
p76
sI5
g17
sI6
S'6'
p77
sI7
S'7'
p78
sI8
S'8'
p79
sI9
S'9'
p80
ssS'nodes'
p81
crpy2.robjects.robject
_reduce_robjectmixin
p82
(S'X\n\x00\x00\x00\x02\x00\x03\x04\x04\x00\x02\x03\x00\x00\x00\x00\r\x00\x00\x00\t\x00\x00\x00\x01\x00\x00\x00\x02\x00\x00\x00\x03\x00\x00\x00\x04\x00\x00\x00\x05\x00\x00\x00\x06\x00\x00\x00\x07\x00\x00\x00\x08\x00\x00\x00\t'
p83
I13
crpy2.rinterface._rinterface
unserialize
p84
crpy2.robjects.vectors
IntVector
p85
tp86
Rp87
(dp88
S'ro'
p89
g0
(crpy2.robjects.vectors
VectorOperationsDelegator
p90
g2
Ntp91
Rp92
(dp93
S'_parent'
p94
g87
sbsS'rx'
p95
g0
(crpy2.robjects.vectors
ExtractDelegator
p96
g2
Ntp97
Rp98
(dp99
g94
g87
sbsS'rx2'
p100
g0
(crpy2.robjects.vectors
DoubleExtractDelegator
p101
g2
Ntp102
Rp103
(dp104
g94
g87
sbsbsS'response_var_'
p105
S'P90'
p106
sS'edge_cond_'
p107
(dp108
(I1
I2
tp109
(lp110
g26
ag27
ag28
as(I5
I6
tp111
(lp112
S'A'
p113
as(I2
I8
tp114
(lp115
S'C'
p116
as(I5
I7
tp117
(lp118
g27
ag28
ag29
as(I2
I3
tp119
(lp120
g26
ag28
ag29
as(I1
I9
tp121
(lp122
S'G'
p123
as(I3
I4
tp124
(lp125
S'A'
p126
as(I3
I5
tp127
(lp128
g27
ag28
ag29
assS'class_pred_'
p129
g24
sS'CLASSES'
p130
cnumpy.core.multiarray
_reconstruct
p131
(cnumpy
ndarray
p132
(I0
tp133
S'b'
p134
tp135
Rp136
(I1
(I4
tp137
cnumpy
dtype
p138
(S'O8'
p139
I0
I1
tp140
Rp141
(I3
S'|'
p142
NNNI-1
I-1
I63
tp143
bI00
(lp144
g26
ag27
ag29
ag28
atp145
bsS'TREE_LEAF'
p146
(dp147
I1
I00
sI2
I00
sI3
I00
sI4
I01
sI5
I00
sI6
I01
sI7
I01
sI8
I01
sI9
I01
ssS'num_pass_'
p148
(dp149
I1
I72
sI2
I40
sI3
I33
sI4
I13
sI5
I20
sI6
I13
sI7
I7
sI8
I7
sI9
I32
ssS'error'
p150
(dp151
I1
F55.55555555555556
sI2
F52.5
sI3
F42.42424242424242
sI4
F15.384615384615385
sI5
F15.0
sI6
F0.0
sI7
F42.857142857142854
sI8
F28.57142857142857
sI9
F3.125
ssS'pvalue'
p152
g41
sS'class_names'
p153
g136
sS'n_node_samples'
p154
g149
sb.