ccopy_reg
_reconstructor
p0
(cmlx
tree_
p1
c__builtin__
object
p2
Ntp3
Rp4
(dp5
S'decision_rules_'
p6
(dp7
I8
S'P91 %in% c("A", "G", "T") & P6 %in% c("C", "T") & P158 %in% c("T")'
p8
sI9
S'P91 %in% c("C")'
p9
sI4
S'P91 %in% c("A", "G", "T") & P6 %in% c("A", "G", "R") & P307 %in% c("A", "NA")'
p10
sI5
S'P91 %in% c("A", "G", "T") & P6 %in% c("A", "G", "R") & P307 %in% c("NA", "G", "T", "Y")'
p11
sI7
S'P91 %in% c("A", "G", "T") & P6 %in% c("C", "T") & P158 %in% c("A", "C", "G")'
p12
ssS'significant_feature_weight_'
p13
(dp14
S'P307'
p15
F0.33101846109788624
sS'P91'
p16
F0.43188983879861786
sS'P6'
p17
F0.7249447613600688
sS'P158'
p18
F0.0
ssS'children_left'
p19
(dp20
I1
I9
sI2
I3
sI3
I4
sI4
NsI5
NsI6
I8
sI7
NsI8
NsI9
NssS'ACCx_'
p21
F0.33333333333333337
sS'ACC_'
p22
F0.8611111111111112
sS'value'
p23
(dp24
I1
(dp25
S'A'
p26
F12.0
sS'Y'
p27
F1.0
sS'C'
p28
F10.0
sS'T'
p29
F38.0
sS'G'
p30
F11.0
ssI2
(dp31
g26
F11.0
sg27
F1.0
sg28
F10.0
sg29
F38.0
sg30
F2.0
ssI3
(dp32
g26
F10.0
sg27
F1.0
sg28
F10.0
sg29
F3.0
sg30
F0.0
ssI4
(dp33
g26
F1.0
sg27
F0.0
sg28
F9.0
sg29
F1.0
sg30
F0.0
ssI5
(dp34
g26
F9.0
sg27
F1.0
sg28
F1.0
sg29
F2.0
sg30
F0.0
ssI6
(dp35
g26
F1.0
sg27
F0.0
sg28
F0.0
sg29
F35.0
sg30
F2.0
ssI7
(dp36
g26
F1.0
sg27
F0.0
sg28
F0.0
sg29
F4.0
sg30
F2.0
ssI8
(dp37
g26
F0.0
sg27
F0.0
sg28
F0.0
sg29
F31.0
sg30
F0.0
ssI9
(dp38
g26
F1.0
sg27
F0.0
sg28
F0.0
sg29
F0.0
sg30
F9.0
sssS'tprob_'
p39
(dp40
I8
F0.4305555555555556
sI9
F0.1388888888888889
sI4
F0.1527777777777778
sI5
F0.18055555555555555
sI7
F0.09722222222222222
ssS'threshold'
p41
(dp42
I1
I0
sI2
F8.54871728961371e-15
sI3
F0.00448558546199695
sI6
F2.45988784897122e-11
ssS'children'
p43
(dp44
I1
c__builtin__
set
p45
((lp46
I9
aI2
atp47
Rp48
sI2
g45
((lp49
I3
aI6
atp50
Rp51
sI3
g45
((lp52
I4
aI5
atp53
Rp54
sI4
g45
((lp55
tp56
Rp57
sI5
g45
((lp58
tp59
Rp60
sI6
g45
((lp61
I8
aI7
atp62
Rp63
sI7
g45
((lp64
tp65
Rp66
sI8
g45
((lp67
tp68
Rp69
sI9
g45
((lp70
tp71
Rp72
ssS'children_right'
p73
(dp74
I1
I2
sI2
I6
sI3
I5
sI4
NsI5
NsI6
I7
sI7
NsI8
NsI9
NssS'feature'
p75
(dp76
I1
g16
sI2
g17
sI3
g15
sI4
S'4'
p77
sI5
S'5'
p78
sI6
g18
sI7
S'7'
p79
sI8
S'8'
p80
sI9
S'9'
p81
ssS'nodes'
p82
crpy2.robjects.robject
_reduce_robjectmixin
p83
(S'X\n\x00\x00\x00\x02\x00\x03\x04\x04\x00\x02\x03\x00\x00\x00\x00\r\x00\x00\x00\t\x00\x00\x00\x01\x00\x00\x00\x02\x00\x00\x00\x03\x00\x00\x00\x04\x00\x00\x00\x05\x00\x00\x00\x06\x00\x00\x00\x07\x00\x00\x00\x08\x00\x00\x00\t'
p84
I13
crpy2.rinterface._rinterface
unserialize
p85
crpy2.robjects.vectors
IntVector
p86
tp87
Rp88
(dp89
S'ro'
p90
g0
(crpy2.robjects.vectors
VectorOperationsDelegator
p91
g2
Ntp92
Rp93
(dp94
S'_parent'
p95
g88
sbsS'rx'
p96
g0
(crpy2.robjects.vectors
ExtractDelegator
p97
g2
Ntp98
Rp99
(dp100
g95
g88
sbsS'rx2'
p101
g0
(crpy2.robjects.vectors
DoubleExtractDelegator
p102
g2
Ntp103
Rp104
(dp105
g95
g88
sbsbsS'response_var_'
p106
S'P318'
p107
sS'edge_cond_'
p108
(dp109
(I1
I2
tp110
(lp111
g26
ag29
ag30
as(I2
I6
tp112
(lp113
g28
ag29
as(I6
I7
tp114
(lp115
g26
ag28
ag30
as(I6
I8
tp116
(lp117
S'T'
p118
as(I2
I3
tp119
(lp120
g26
aS'R'
p121
ag30
as(I1
I9
tp122
(lp123
S'C'
p124
as(I3
I4
tp125
(lp126
g26
as(I3
I5
tp127
(lp128
g27
ag29
ag30
assS'class_pred_'
p129
g24
sS'CLASSES'
p130
cnumpy.core.multiarray
_reconstruct
p131
(cnumpy
ndarray
p132
(I0
tp133
S'b'
p134
tp135
Rp136
(I1
(I5
tp137
cnumpy
dtype
p138
(S'O8'
p139
I0
I1
tp140
Rp141
(I3
S'|'
p142
NNNI-1
I-1
I63
tp143
bI00
(lp144
g26
ag28
ag30
ag29
ag27
atp145
bsS'TREE_LEAF'
p146
(dp147
I1
I00
sI2
I00
sI3
I00
sI4
I01
sI5
I01
sI6
I00
sI7
I01
sI8
I01
sI9
I01
ssS'num_pass_'
p148
(dp149
I1
I72
sI2
I62
sI3
I24
sI4
I11
sI5
I13
sI6
I38
sI7
I7
sI8
I31
sI9
I10
ssS'error'
p150
(dp151
I1
F47.22222222222222
sI2
F38.70967741935484
sI3
F58.333333333333336
sI4
F18.181818181818183
sI5
F30.76923076923077
sI6
F7.894736842105262
sI7
F42.857142857142854
sI8
F0.0
sI9
F10.0
ssS'pvalue'
p152
g42
sS'class_names'
p153
g136
sS'n_node_samples'
p154
g149
sb.