ccopy_reg
_reconstructor
p0
(cmlx
tree_
p1
c__builtin__
object
p2
Ntp3
Rp4
(dp5
S'decision_rules_'
p6
(dp7
I2
S'P212 %in% c("A")'
p8
sI5
S'P212 %in% c("C", "G", "T") & P304 %in% c("A", "C", "T") & P325 %in% c("A", "G")'
p9
sI6
S'P212 %in% c("C", "G", "T") & P304 %in% c("A", "C", "T") & P325 %in% c("C", "T")'
p10
sI7
S'P212 %in% c("C", "G", "T") & P304 %in% c("G")'
p11
ssS'significant_feature_weight_'
p12
(dp13
S'P325'
p14
F0.3760683621658696
sS'P212'
p15
F0.3950617207763887
sS'P304'
p16
F0.5416666534465145
ssS'children_left'
p17
(dp18
I1
I2
sI2
NsI3
I4
sI4
I5
sI5
NsI6
NsI7
NssS'ACCx_'
p19
F0.7083333333333333
sS'ACC_'
p20
F0.8888888888888888
sS'value'
p21
(dp22
I1
(dp23
S'A'
p24
F47.0
sS'C'
p25
F3.0
sS'T'
p26
F8.0
sS'G'
p27
F14.0
ssI2
(dp28
g24
F1.0
sg25
F0.0
sg26
F6.0
sg27
F1.0
ssI3
(dp29
g24
F46.0
sg25
F3.0
sg26
F2.0
sg27
F13.0
ssI4
(dp30
g24
F45.0
sg25
F3.0
sg26
F2.0
sg27
F2.0
ssI5
(dp31
g24
F44.0
sg25
F0.0
sg26
F0.0
sg27
F0.0
ssI6
(dp32
g24
F1.0
sg25
F3.0
sg26
F2.0
sg27
F2.0
ssI7
(dp33
g24
F1.0
sg25
F0.0
sg26
F0.0
sg27
F11.0
sssS'tprob_'
p34
(dp35
I2
F0.1111111111111111
sI5
F0.6111111111111112
sI6
F0.1111111111111111
sI7
F0.16666666666666666
ssS'threshold'
p36
(dp37
I1
F9.99200722162641e-16
sI3
F3.3528735343679696e-14
sI4
F9.21251963603709e-12
ssS'children'
p38
(dp39
I1
c__builtin__
set
p40
((lp41
I2
aI3
atp42
Rp43
sI2
g40
((lp44
tp45
Rp46
sI3
g40
((lp47
I4
aI7
atp48
Rp49
sI4
g40
((lp50
I5
aI6
atp51
Rp52
sI5
g40
((lp53
tp54
Rp55
sI6
g40
((lp56
tp57
Rp58
sI7
g40
((lp59
tp60
Rp61
ssS'children_right'
p62
(dp63
I1
I3
sI2
NsI3
I7
sI4
I6
sI5
NsI6
NsI7
NssS'feature'
p64
(dp65
I1
g15
sI2
S'2'
p66
sI3
g16
sI4
g14
sI5
S'5'
p67
sI6
S'6'
p68
sI7
S'7'
p69
ssS'nodes'
p70
crpy2.robjects.robject
_reduce_robjectmixin
p71
(S'X\n\x00\x00\x00\x02\x00\x03\x04\x04\x00\x02\x03\x00\x00\x00\x00\r\x00\x00\x00\x07\x00\x00\x00\x01\x00\x00\x00\x02\x00\x00\x00\x03\x00\x00\x00\x04\x00\x00\x00\x05\x00\x00\x00\x06\x00\x00\x00\x07'
p72
I13
crpy2.rinterface._rinterface
unserialize
p73
crpy2.robjects.vectors
IntVector
p74
tp75
Rp76
(dp77
S'ro'
p78
g0
(crpy2.robjects.vectors
VectorOperationsDelegator
p79
g2
Ntp80
Rp81
(dp82
S'_parent'
p83
g76
sbsS'rx'
p84
g0
(crpy2.robjects.vectors
ExtractDelegator
p85
g2
Ntp86
Rp87
(dp88
g83
g76
sbsS'rx2'
p89
g0
(crpy2.robjects.vectors
DoubleExtractDelegator
p90
g2
Ntp91
Rp92
(dp93
g83
g76
sbsbsS'response_var_'
p94
S'P315'
p95
sS'edge_cond_'
p96
(dp97
(I1
I2
tp98
(lp99
S'A'
p100
as(I1
I3
tp101
(lp102
g25
ag26
ag27
as(I4
I6
tp103
(lp104
g25
ag26
as(I4
I5
tp105
(lp106
g24
ag27
as(I3
I7
tp107
(lp108
S'G'
p109
as(I3
I4
tp110
(lp111
g24
ag25
ag26
assS'class_pred_'
p112
g22
sS'CLASSES'
p113
cnumpy.core.multiarray
_reconstruct
p114
(cnumpy
ndarray
p115
(I0
tp116
S'b'
p117
tp118
Rp119
(I1
(I4
tp120
cnumpy
dtype
p121
(S'O8'
p122
I0
I1
tp123
Rp124
(I3
S'|'
p125
NNNI-1
I-1
I63
tp126
bI00
(lp127
g24
ag25
ag27
ag26
atp128
bsS'TREE_LEAF'
p129
(dp130
I1
I00
sI2
I01
sI3
I00
sI4
I00
sI5
I01
sI6
I01
sI7
I01
ssS'num_pass_'
p131
(dp132
I1
I72
sI2
I8
sI3
I64
sI4
I52
sI5
I44
sI6
I8
sI7
I12
ssS'error'
p133
(dp134
I1
F34.72222222222222
sI2
F25.0
sI3
F28.125
sI4
F13.461538461538462
sI5
F0.0
sI6
F62.5
sI7
F8.333333333333332
ssS'pvalue'
p135
g37
sS'class_names'
p136
g119
sS'n_node_samples'
p137
g132
sb.