ccopy_reg
_reconstructor
p0
(cmlx
tree_
p1
c__builtin__
object
p2
Ntp3
Rp4
(dp5
S'decision_rules_'
p6
(dp7
I4
S'P118 %in% c("A", "C", "T") & P119 %in% c("A", "C", "T") & P337 %in% c("A")'
p8
sI5
S'P118 %in% c("A", "C", "T") & P119 %in% c("A", "C", "T") & P337 %in% c("C", "G", "T")'
p9
sI6
S'P118 %in% c("A", "C", "T") & P119 %in% c("G")'
p10
sI7
S'P118 %in% c("G")'
p11
ssS'significant_feature_weight_'
p12
(dp13
S'P118'
p14
F0.9999999807152339
sS'P119'
p15
F0.37499997108088323
sS'P337'
p16
F0.3497941907359018
ssS'children_left'
p17
(dp18
I1
I2
sI2
I3
sI3
I4
sI4
NsI5
NsI6
NsI7
NssS'ACCx_'
p19
F0.6666666666666667
sS'ACC_'
p20
F0.8194444444444444
sS'value'
p21
(dp22
I1
(dp23
S'A'
p24
F11.0
sS'C'
p25
F10.0
sS'T'
p26
F38.0
sS'G'
p27
F13.0
ssI2
(dp28
g24
F11.0
sg25
F10.0
sg26
F3.0
sg27
F12.0
ssI3
(dp29
g24
F2.0
sg25
F10.0
sg26
F3.0
sg27
F12.0
ssI4
(dp30
g24
F0.0
sg25
F6.0
sg26
F0.0
sg27
F11.0
ssI5
(dp31
g24
F2.0
sg25
F4.0
sg26
F3.0
sg27
F1.0
ssI6
(dp32
g24
F9.0
sg25
F0.0
sg26
F0.0
sg27
F0.0
ssI7
(dp33
g24
F0.0
sg25
F0.0
sg26
F35.0
sg27
F1.0
sssS'tprob_'
p34
(dp35
I4
F0.2361111111111111
sI5
F0.1388888888888889
sI6
F0.125
sI7
F0.5
ssS'threshold'
p36
(dp37
I1
F1.11022302462516e-16
sI2
F6.0736877235845206e-05
sI3
F0.000729474663220264
ssS'children'
p38
(dp39
I1
c__builtin__
set
p40
((lp41
I2
aI7
atp42
Rp43
sI2
g40
((lp44
I3
aI6
atp45
Rp46
sI3
g40
((lp47
I4
aI5
atp48
Rp49
sI4
g40
((lp50
tp51
Rp52
sI5
g40
((lp53
tp54
Rp55
sI6
g40
((lp56
tp57
Rp58
sI7
g40
((lp59
tp60
Rp61
ssS'children_right'
p62
(dp63
I1
I7
sI2
I6
sI3
I5
sI4
NsI5
NsI6
NsI7
NssS'feature'
p64
(dp65
I1
g14
sI2
g15
sI3
g16
sI4
S'4'
p66
sI5
S'5'
p67
sI6
S'6'
p68
sI7
S'7'
p69
ssS'nodes'
p70
crpy2.robjects.robject
_reduce_robjectmixin
p71
(S'X\n\x00\x00\x00\x02\x00\x03\x04\x04\x00\x02\x03\x00\x00\x00\x00\r\x00\x00\x00\x07\x00\x00\x00\x01\x00\x00\x00\x02\x00\x00\x00\x03\x00\x00\x00\x04\x00\x00\x00\x05\x00\x00\x00\x06\x00\x00\x00\x07'
p72
I13
crpy2.rinterface._rinterface
unserialize
p73
crpy2.robjects.vectors
IntVector
p74
tp75
Rp76
(dp77
S'ro'
p78
g0
(crpy2.robjects.vectors
VectorOperationsDelegator
p79
g2
Ntp80
Rp81
(dp82
S'_parent'
p83
g76
sbsS'rx'
p84
g0
(crpy2.robjects.vectors
ExtractDelegator
p85
g2
Ntp86
Rp87
(dp88
g83
g76
sbsS'rx2'
p89
g0
(crpy2.robjects.vectors
DoubleExtractDelegator
p90
g2
Ntp91
Rp92
(dp93
g83
g76
sbsbsS'response_var_'
p94
S'P32'
p95
sS'edge_cond_'
p96
(dp97
(I1
I2
tp98
(lp99
g24
ag25
ag26
as(I2
I6
tp100
(lp101
S'G'
p102
as(I2
I3
tp103
(lp104
g24
ag25
ag26
as(I1
I7
tp105
(lp106
S'G'
p107
as(I3
I4
tp108
(lp109
S'A'
p110
as(I3
I5
tp111
(lp112
g25
ag26
ag27
assS'class_pred_'
p113
g22
sS'CLASSES'
p114
cnumpy.core.multiarray
_reconstruct
p115
(cnumpy
ndarray
p116
(I0
tp117
S'b'
p118
tp119
Rp120
(I1
(I4
tp121
cnumpy
dtype
p122
(S'O8'
p123
I0
I1
tp124
Rp125
(I3
S'|'
p126
NNNI-1
I-1
I63
tp127
bI00
(lp128
g24
ag25
ag27
ag26
atp129
bsS'TREE_LEAF'
p130
(dp131
I1
I00
sI2
I00
sI3
I00
sI4
I01
sI5
I01
sI6
I01
sI7
I01
ssS'num_pass_'
p132
(dp133
I1
I72
sI2
I36
sI3
I27
sI4
I17
sI5
I10
sI6
I9
sI7
I36
ssS'error'
p134
(dp135
I1
F47.22222222222222
sI2
F66.66666666666667
sI3
F55.55555555555556
sI4
F35.294117647058826
sI5
F60.0
sI6
F0.0
sI7
F2.7777777777777777
ssS'pvalue'
p136
g37
sS'class_names'
p137
g120
sS'n_node_samples'
p138
g133
sb.