ccopy_reg
_reconstructor
p0
(cmlx
tree_
p1
c__builtin__
object
p2
Ntp3
Rp4
(dp5
S'decision_rules_'
p6
(dp7
I8
S'P224 %in% c("C", "G", "T") & P323 %in% c("A", "G") & P295 %in% c("NA", "T")'
p8
sI9
S'P224 %in% c("C", "G", "T") & P323 %in% c("C", "T")'
p9
sI3
S'P224 %in% c("A") & P386 %in% c("A", "NA")'
p10
sI4
S'P224 %in% c("A") & P386 %in% c("NA", "G", "T")'
p11
sI7
S'P224 %in% c("C", "G", "T") & P323 %in% c("A", "G") & P295 %in% c("A", "NA", "G")'
p12
ssS'significant_feature_weight_'
p13
(dp14
S'P224'
p15
F0.8024691203270394
sS'P295'
p16
F0.0
sS'P323'
p17
F0.37606836216586953
sS'P386'
p18
F0.2749999313186985
ssS'children_left'
p19
(dp20
I1
I2
sI2
I3
sI3
NsI4
NsI5
I9
sI6
I8
sI7
NsI8
NsI9
NssS'ACCx_'
p21
F0.6527777777777778
sS'ACC_'
p22
F0.8611111111111112
sS'value'
p23
(dp24
I1
(dp25
S'A'
p26
F51.0
sS'C'
p27
F6.0
sS'T'
p28
F2.0
sS'G'
p29
F13.0
ssI2
(dp30
g26
F6.0
sg27
F1.0
sg28
F0.0
sg29
F13.0
ssI3
(dp31
g26
F0.0
sg27
F0.0
sg28
F0.0
sg29
F9.0
ssI4
(dp32
g26
F6.0
sg27
F1.0
sg28
F0.0
sg29
F4.0
ssI5
(dp33
g26
F45.0
sg27
F5.0
sg28
F2.0
sg29
F0.0
ssI6
(dp34
g26
F42.0
sg27
F0.0
sg28
F2.0
sg29
F0.0
ssI7
(dp35
g26
F8.0
sg27
F0.0
sg28
F2.0
sg29
F0.0
ssI8
(dp36
g26
F34.0
sg27
F0.0
sg28
F0.0
sg29
F0.0
ssI9
(dp37
g26
F3.0
sg27
F5.0
sg28
F0.0
sg29
F0.0
sssS'tprob_'
p38
(dp39
I8
F0.4722222222222222
sI9
F0.1111111111111111
sI3
F0.125
sI4
F0.1527777777777778
sI7
F0.1388888888888889
ssS'threshold'
p40
(dp41
I1
F2.3273605265217205e-12
sI2
F0.00830480833552372
sI5
F9.59488044571799e-12
sI6
F1.8350229280539302e-07
ssS'children'
p42
(dp43
I1
c__builtin__
set
p44
((lp45
I2
aI5
atp46
Rp47
sI2
g44
((lp48
I3
aI4
atp49
Rp50
sI3
g44
((lp51
tp52
Rp53
sI4
g44
((lp54
tp55
Rp56
sI5
g44
((lp57
I9
aI6
atp58
Rp59
sI6
g44
((lp60
I8
aI7
atp61
Rp62
sI7
g44
((lp63
tp64
Rp65
sI8
g44
((lp66
tp67
Rp68
sI9
g44
((lp69
tp70
Rp71
ssS'children_right'
p72
(dp73
I1
I5
sI2
I4
sI3
NsI4
NsI5
I6
sI6
I7
sI7
NsI8
NsI9
NssS'feature'
p74
(dp75
I1
g15
sI2
g18
sI3
S'3'
p76
sI4
S'4'
p77
sI5
g17
sI6
g16
sI7
S'7'
p78
sI8
S'8'
p79
sI9
S'9'
p80
ssS'nodes'
p81
crpy2.robjects.robject
_reduce_robjectmixin
p82
(S'X\n\x00\x00\x00\x02\x00\x03\x04\x04\x00\x02\x03\x00\x00\x00\x00\r\x00\x00\x00\t\x00\x00\x00\x01\x00\x00\x00\x02\x00\x00\x00\x03\x00\x00\x00\x04\x00\x00\x00\x05\x00\x00\x00\x06\x00\x00\x00\x07\x00\x00\x00\x08\x00\x00\x00\t'
p83
I13
crpy2.rinterface._rinterface
unserialize
p84
crpy2.robjects.vectors
IntVector
p85
tp86
Rp87
(dp88
S'ro'
p89
g0
(crpy2.robjects.vectors
VectorOperationsDelegator
p90
g2
Ntp91
Rp92
(dp93
S'_parent'
p94
g87
sbsS'rx'
p95
g0
(crpy2.robjects.vectors
ExtractDelegator
p96
g2
Ntp97
Rp98
(dp99
g94
g87
sbsS'rx2'
p100
g0
(crpy2.robjects.vectors
DoubleExtractDelegator
p101
g2
Ntp102
Rp103
(dp104
g94
g87
sbsbsS'response_var_'
p105
S'P355'
p106
sS'edge_cond_'
p107
(dp108
(I1
I2
tp109
(lp110
S'A'
p111
as(I5
I9
tp112
(lp113
g27
ag28
as(I6
I7
tp114
(lp115
g26
ag29
as(I6
I8
tp116
(lp117
g28
as(I5
I6
tp118
(lp119
g26
ag29
as(I1
I5
tp120
(lp121
g27
ag28
ag29
as(I2
I3
tp122
(lp123
g26
as(I2
I4
tp124
(lp125
g28
ag29
assS'class_pred_'
p126
g24
sS'CLASSES'
p127
cnumpy.core.multiarray
_reconstruct
p128
(cnumpy
ndarray
p129
(I0
tp130
S'b'
p131
tp132
Rp133
(I1
(I4
tp134
cnumpy
dtype
p135
(S'O8'
p136
I0
I1
tp137
Rp138
(I3
S'|'
p139
NNNI-1
I-1
I63
tp140
bI00
(lp141
g26
ag27
ag29
ag28
atp142
bsS'TREE_LEAF'
p143
(dp144
I1
I00
sI2
I00
sI3
I01
sI4
I01
sI5
I00
sI6
I00
sI7
I01
sI8
I01
sI9
I01
ssS'num_pass_'
p145
(dp146
I1
I72
sI2
I20
sI3
I9
sI4
I11
sI5
I52
sI6
I44
sI7
I10
sI8
I34
sI9
I8
ssS'error'
p147
(dp148
I1
F29.166666666666664
sI2
F35.0
sI3
F0.0
sI4
F45.45454545454546
sI5
F13.461538461538463
sI6
F4.545454545454546
sI7
F20.0
sI8
F0.0
sI9
F37.5
ssS'pvalue'
p149
g41
sS'class_names'
p150
g133
sS'n_node_samples'
p151
g146
sb.