ccopy_reg
_reconstructor
p0
(cmlx
tree_
p1
c__builtin__
object
p2
Ntp3
Rp4
(dp5
S'decision_rules_'
p6
(dp7
I8
S'P283 %in% c("A", "C", "G") & P303 %in% c("G")'
p8
sI9
S'P283 %in% c("T")'
p9
sI4
S'P283 %in% c("A", "C", "G") & P303 %in% c("A", "C", "T") & P344 %in% c("A")'
p10
sI6
S'P283 %in% c("A", "C", "G") & P303 %in% c("A", "C", "T") & P344 %in% c("C", "G", "T") & P180 %in% c("A")'
p11
sI7
S'P283 %in% c("A", "C", "G") & P303 %in% c("A", "C", "T") & P344 %in% c("C", "G", "T") & P180 %in% c("C", "G", "T")'
p12
ssS'significant_feature_weight_'
p13
(dp14
S'P180'
p15
F0.0
sS'P303'
p16
F0.26176361924214064
sS'P283'
p17
F0.8965105327639726
sS'P344'
p18
F0.38194440716848344
ssS'children_left'
p19
(dp20
I1
I9
sI2
I8
sI3
I4
sI4
NsI5
I6
sI6
NsI7
NsI8
NsI9
NssS'ACCx_'
p21
F0.7361111111111112
sS'ACC_'
p22
F0.8888888888888888
sS'value'
p23
(dp24
I1
(dp25
S'A'
p26
F21.0
sS'C'
p27
F32.0
sS'T'
p28
F12.0
sS'G'
p29
F7.0
ssI2
(dp30
g26
F21.0
sg27
F1.0
sg28
F11.0
sg29
F6.0
ssI3
(dp31
g26
F20.0
sg27
F1.0
sg28
F10.0
sg29
F1.0
ssI4
(dp32
g26
F1.0
sg27
F0.0
sg28
F9.0
sg29
F0.0
ssI5
(dp33
g26
F19.0
sg27
F1.0
sg28
F1.0
sg29
F1.0
ssI6
(dp34
g26
F12.0
sg27
F0.0
sg28
F0.0
sg29
F0.0
ssI7
(dp35
g26
F7.0
sg27
F1.0
sg28
F1.0
sg29
F1.0
ssI8
(dp36
g26
F1.0
sg27
F0.0
sg28
F1.0
sg29
F5.0
ssI9
(dp37
g26
F0.0
sg27
F31.0
sg28
F1.0
sg29
F1.0
sssS'tprob_'
p38
(dp39
I8
F0.09722222222222222
sI9
F0.4583333333333333
sI4
F0.1388888888888889
sI6
F0.16666666666666666
sI7
F0.1388888888888889
ssS'threshold'
p40
(dp41
I1
I0
sI2
F1.4268864079181e-07
sI3
F1.1200172634895399e-06
sI5
F0.000650862978517019
ssS'children'
p42
(dp43
I1
c__builtin__
set
p44
((lp45
I9
aI2
atp46
Rp47
sI2
g44
((lp48
I8
aI3
atp49
Rp50
sI3
g44
((lp51
I4
aI5
atp52
Rp53
sI4
g44
((lp54
tp55
Rp56
sI5
g44
((lp57
I6
aI7
atp58
Rp59
sI6
g44
((lp60
tp61
Rp62
sI7
g44
((lp63
tp64
Rp65
sI8
g44
((lp66
tp67
Rp68
sI9
g44
((lp69
tp70
Rp71
ssS'children_right'
p72
(dp73
I1
I2
sI2
I3
sI3
I5
sI4
NsI5
I7
sI6
NsI7
NsI8
NsI9
NssS'feature'
p74
(dp75
I1
g17
sI2
g16
sI3
g18
sI4
S'4'
p76
sI5
g15
sI6
S'6'
p77
sI7
S'7'
p78
sI8
S'8'
p79
sI9
S'9'
p80
ssS'nodes'
p81
crpy2.robjects.robject
_reduce_robjectmixin
p82
(S'X\n\x00\x00\x00\x02\x00\x03\x04\x04\x00\x02\x03\x00\x00\x00\x00\r\x00\x00\x00\t\x00\x00\x00\x01\x00\x00\x00\x02\x00\x00\x00\x03\x00\x00\x00\x04\x00\x00\x00\x05\x00\x00\x00\x06\x00\x00\x00\x07\x00\x00\x00\x08\x00\x00\x00\t'
p83
I13
crpy2.rinterface._rinterface
unserialize
p84
crpy2.robjects.vectors
IntVector
p85
tp86
Rp87
(dp88
S'ro'
p89
g0
(crpy2.robjects.vectors
VectorOperationsDelegator
p90
g2
Ntp91
Rp92
(dp93
S'_parent'
p94
g87
sbsS'rx'
p95
g0
(crpy2.robjects.vectors
ExtractDelegator
p96
g2
Ntp97
Rp98
(dp99
g94
g87
sbsS'rx2'
p100
g0
(crpy2.robjects.vectors
DoubleExtractDelegator
p101
g2
Ntp102
Rp103
(dp104
g94
g87
sbsbsS'response_var_'
p105
S'P127'
p106
sS'edge_cond_'
p107
(dp108
(I1
I2
tp109
(lp110
g26
ag27
ag29
as(I5
I6
tp111
(lp112
S'A'
p113
as(I2
I8
tp114
(lp115
S'G'
p116
as(I5
I7
tp117
(lp118
g27
ag28
ag29
as(I2
I3
tp119
(lp120
g26
ag27
ag28
as(I1
I9
tp121
(lp122
S'T'
p123
as(I3
I4
tp124
(lp125
S'A'
p126
as(I3
I5
tp127
(lp128
g27
ag28
ag29
assS'class_pred_'
p129
g24
sS'CLASSES'
p130
cnumpy.core.multiarray
_reconstruct
p131
(cnumpy
ndarray
p132
(I0
tp133
S'b'
p134
tp135
Rp136
(I1
(I4
tp137
cnumpy
dtype
p138
(S'O8'
p139
I0
I1
tp140
Rp141
(I3
S'|'
p142
NNNI-1
I-1
I63
tp143
bI00
(lp144
g26
ag27
ag29
ag28
atp145
bsS'TREE_LEAF'
p146
(dp147
I1
I00
sI2
I00
sI3
I00
sI4
I01
sI5
I00
sI6
I01
sI7
I01
sI8
I01
sI9
I01
ssS'num_pass_'
p148
(dp149
I1
I72
sI2
I39
sI3
I32
sI4
I10
sI5
I22
sI6
I12
sI7
I10
sI8
I7
sI9
I33
ssS'error'
p150
(dp151
I1
F55.55555555555556
sI2
F46.15384615384615
sI3
F37.5
sI4
F10.0
sI5
F13.636363636363637
sI6
F0.0
sI7
F30.0
sI8
F28.57142857142857
sI9
F6.0606060606060606
ssS'pvalue'
p152
g41
sS'class_names'
p153
g136
sS'n_node_samples'
p154
g149
sb.