ccopy_reg
_reconstructor
p0
(cmlx
tree_
p1
c__builtin__
object
p2
Ntp3
Rp4
(dp5
S'decision_rules_'
p6
(dp7
I2
S'P45 %in% c("A")'
p8
sI5
S'P45 %in% c("C", "G", "T") & P83 %in% c("A", "T") & P61 %in% c("A")'
p9
sI6
S'P45 %in% c("C", "G", "T") & P83 %in% c("A", "T") & P61 %in% c("C", "G", "T")'
p10
sI7
S'P45 %in% c("C", "G", "T") & P83 %in% c("C", "G")'
p11
ssS'significant_feature_weight_'
p12
(dp13
S'P61'
p14
F0.0
sS'P83'
p15
F0.7267759367588176
sS'P45'
p16
F0.5177469035956187
ssS'children_left'
p17
(dp18
I1
I2
sI2
NsI3
I4
sI4
I5
sI5
NsI6
NsI7
NssS'ACCx_'
p19
F0.7361111111111112
sS'ACC_'
p20
F0.8194444444444444
sS'value'
p21
(dp22
I1
(dp23
S'A'
p24
F36.0
sS'C'
p25
F5.0
sS'T'
p26
F18.0
sS'G'
p27
F13.0
ssI2
(dp28
g24
F0.0
sg25
F0.0
sg26
F1.0
sg27
F10.0
ssI3
(dp29
g24
F36.0
sg25
F5.0
sg26
F17.0
sg27
F3.0
ssI4
(dp30
g24
F36.0
sg25
F0.0
sg26
F4.0
sg27
F2.0
ssI5
(dp31
g24
F30.0
sg25
F0.0
sg26
F2.0
sg27
F0.0
ssI6
(dp32
g24
F6.0
sg25
F0.0
sg26
F2.0
sg27
F2.0
ssI7
(dp33
g24
F0.0
sg25
F5.0
sg26
F13.0
sg27
F1.0
sssS'tprob_'
p34
(dp35
I2
F0.1527777777777778
sI5
F0.4444444444444444
sI6
F0.1388888888888889
sI7
F0.2638888888888889
ssS'threshold'
p36
(dp37
I1
F5.551115123125781e-16
sI3
F7.66497976201208e-13
sI4
F2.64264536042891e-06
ssS'children'
p38
(dp39
I1
c__builtin__
set
p40
((lp41
I2
aI3
atp42
Rp43
sI2
g40
((lp44
tp45
Rp46
sI3
g40
((lp47
I4
aI7
atp48
Rp49
sI4
g40
((lp50
I5
aI6
atp51
Rp52
sI5
g40
((lp53
tp54
Rp55
sI6
g40
((lp56
tp57
Rp58
sI7
g40
((lp59
tp60
Rp61
ssS'children_right'
p62
(dp63
I1
I3
sI2
NsI3
I7
sI4
I6
sI5
NsI6
NsI7
NssS'feature'
p64
(dp65
I1
g16
sI2
S'2'
p66
sI3
g15
sI4
g14
sI5
S'5'
p67
sI6
S'6'
p68
sI7
S'7'
p69
ssS'nodes'
p70
crpy2.robjects.robject
_reduce_robjectmixin
p71
(S'X\n\x00\x00\x00\x02\x00\x03\x04\x04\x00\x02\x03\x00\x00\x00\x00\r\x00\x00\x00\x07\x00\x00\x00\x01\x00\x00\x00\x02\x00\x00\x00\x03\x00\x00\x00\x04\x00\x00\x00\x05\x00\x00\x00\x06\x00\x00\x00\x07'
p72
I13
crpy2.rinterface._rinterface
unserialize
p73
crpy2.robjects.vectors
IntVector
p74
tp75
Rp76
(dp77
S'ro'
p78
g0
(crpy2.robjects.vectors
VectorOperationsDelegator
p79
g2
Ntp80
Rp81
(dp82
S'_parent'
p83
g76
sbsS'rx'
p84
g0
(crpy2.robjects.vectors
ExtractDelegator
p85
g2
Ntp86
Rp87
(dp88
g83
g76
sbsS'rx2'
p89
g0
(crpy2.robjects.vectors
DoubleExtractDelegator
p90
g2
Ntp91
Rp92
(dp93
g83
g76
sbsbsS'response_var_'
p94
S'P157'
p95
sS'edge_cond_'
p96
(dp97
(I1
I2
tp98
(lp99
S'A'
p100
as(I1
I3
tp101
(lp102
g25
ag26
ag27
as(I4
I6
tp103
(lp104
g25
ag26
ag27
as(I4
I5
tp105
(lp106
S'A'
p107
as(I3
I7
tp108
(lp109
g25
ag27
as(I3
I4
tp110
(lp111
g24
ag26
assS'class_pred_'
p112
g22
sS'CLASSES'
p113
cnumpy.core.multiarray
_reconstruct
p114
(cnumpy
ndarray
p115
(I0
tp116
S'b'
p117
tp118
Rp119
(I1
(I4
tp120
cnumpy
dtype
p121
(S'O8'
p122
I0
I1
tp123
Rp124
(I3
S'|'
p125
NNNI-1
I-1
I63
tp126
bI00
(lp127
g24
ag25
ag27
ag26
atp128
bsS'TREE_LEAF'
p129
(dp130
I1
I00
sI2
I01
sI3
I00
sI4
I00
sI5
I01
sI6
I01
sI7
I01
ssS'num_pass_'
p131
(dp132
I1
I72
sI2
I11
sI3
I61
sI4
I42
sI5
I32
sI6
I10
sI7
I19
ssS'error'
p133
(dp134
I1
F50.0
sI2
F9.090909090909092
sI3
F40.983606557377044
sI4
F14.285714285714285
sI5
F6.25
sI6
F40.0
sI7
F31.57894736842105
ssS'pvalue'
p135
g37
sS'class_names'
p136
g119
sS'n_node_samples'
p137
g132
sb.