ccopy_reg
_reconstructor
p0
(cmlx
tree_
p1
c__builtin__
object
p2
Ntp3
Rp4
(dp5
S'decision_rules_'
p6
(dp7
I5
S'P276 %in% c("A", "C", "G") & P294 %in% c("A", "G", "T") & P161 %in% c("A", "C", "T") & P83 %in% c("A", "C", "G")'
p8
sI6
S'P276 %in% c("A", "C", "G") & P294 %in% c("A", "G", "T") & P161 %in% c("A", "C", "T") & P83 %in% c("T")'
p9
sI7
S'P276 %in% c("A", "C", "G") & P294 %in% c("A", "G", "T") & P161 %in% c("G")'
p10
sI9
S'P276 %in% c("A", "C", "G") & P294 %in% c("C") & P263 %in% c("A", "C")'
p11
sI10
S'P276 %in% c("A", "C", "G") & P294 %in% c("C") & P263 %in% c("G", "T")'
p12
sI11
S'P276 %in% c("T")'
p13
ssS'significant_feature_weight_'
p14
(dp15
S'P83'
p16
F0.0
sS'P276'
p17
F0.2827795979490086
sS'P161'
p18
F0.32183904221753024
sS'P294'
p19
F0.796215872654718
sS'P263'
p20
F0.2523045130042585
ssS'children_left'
p21
(dp22
I1
I2
sI2
I8
sI3
I4
sI4
I5
sI5
NsI6
NsI7
NsI8
I9
sI9
NsI10
NsI11
NssS'ACCx_'
p23
F0.6388888888888888
sS'ACC_'
p24
F0.9166666666666666
sS'value'
p25
(dp26
I1
(dp27
S'A'
p28
F28.0
sS'C'
p29
F7.0
sS'T'
p30
F7.0
sS'G'
p31
F30.0
ssI2
(dp32
g28
F27.0
sg29
F7.0
sg30
F1.0
sg31
F30.0
ssI3
(dp33
g28
F21.0
sg29
F6.0
sg30
F1.0
sg31
F1.0
ssI4
(dp34
g28
F19.0
sg29
F0.0
sg30
F1.0
sg31
F1.0
ssI5
(dp35
g28
F8.0
sg29
F0.0
sg30
F1.0
sg31
F1.0
ssI6
(dp36
g28
F11.0
sg29
F0.0
sg30
F0.0
sg31
F0.0
ssI7
(dp37
g28
F2.0
sg29
F6.0
sg30
F0.0
sg31
F0.0
ssI8
(dp38
g28
F6.0
sg29
F1.0
sg30
F0.0
sg31
F29.0
ssI9
(dp39
g28
F6.0
sg29
F1.0
sg30
F0.0
sg31
F0.0
ssI10
(dp40
g28
F0.0
sg29
F0.0
sg30
F0.0
sg31
F29.0
ssI11
(dp41
g28
F1.0
sg29
F0.0
sg30
F6.0
sg31
F0.0
sssS'tprob_'
p42
(dp43
I5
F0.1388888888888889
sI6
F0.1527777777777778
sI7
F0.1111111111111111
sI9
F0.09722222222222222
sI10
F0.4027777777777778
sI11
F0.09722222222222222
ssS'threshold'
p44
(dp45
I8
F1.63145830178735e-10
sI1
F2.1094237467877998e-15
sI2
F7.30193683295965e-13
sI3
F0.000105330555882022
sI4
F0.000181733991045263
ssS'children'
p46
(dp47
I1
c__builtin__
set
p48
((lp49
I2
aI11
atp50
Rp51
sI2
g48
((lp52
I8
aI3
atp53
Rp54
sI3
g48
((lp55
I4
aI7
atp56
Rp57
sI4
g48
((lp58
I5
aI6
atp59
Rp60
sI5
g48
((lp61
tp62
Rp63
sI6
g48
((lp64
tp65
Rp66
sI7
g48
((lp67
tp68
Rp69
sI8
g48
((lp70
I9
aI10
atp71
Rp72
sI9
g48
((lp73
tp74
Rp75
sI10
g48
((lp76
tp77
Rp78
sI11
g48
((lp79
tp80
Rp81
ssS'children_right'
p82
(dp83
I1
I11
sI2
I3
sI3
I7
sI4
I6
sI5
NsI6
NsI7
NsI8
I10
sI9
NsI10
NsI11
NssS'feature'
p84
(dp85
I1
g17
sI2
g19
sI3
g18
sI4
g16
sI5
S'5'
p86
sI6
S'6'
p87
sI7
S'7'
p88
sI8
g20
sI9
S'9'
p89
sI10
S'10'
p90
sI11
S'11'
p91
ssS'nodes'
p92
crpy2.robjects.robject
_reduce_robjectmixin
p93
(S'X\n\x00\x00\x00\x02\x00\x03\x04\x04\x00\x02\x03\x00\x00\x00\x00\r\x00\x00\x00\x0b\x00\x00\x00\x01\x00\x00\x00\x02\x00\x00\x00\x03\x00\x00\x00\x04\x00\x00\x00\x05\x00\x00\x00\x06\x00\x00\x00\x07\x00\x00\x00\x08\x00\x00\x00\t\x00\x00\x00\n\x00\x00\x00\x0b'
p94
I13
crpy2.rinterface._rinterface
unserialize
p95
crpy2.robjects.vectors
IntVector
p96
tp97
Rp98
(dp99
S'ro'
p100
g0
(crpy2.robjects.vectors
VectorOperationsDelegator
p101
g2
Ntp102
Rp103
(dp104
S'_parent'
p105
g98
sbsS'rx'
p106
g0
(crpy2.robjects.vectors
ExtractDelegator
p107
g2
Ntp108
Rp109
(dp110
g105
g98
sbsS'rx2'
p111
g0
(crpy2.robjects.vectors
DoubleExtractDelegator
p112
g2
Ntp113
Rp114
(dp115
g105
g98
sbsbsS'response_var_'
p116
S'P286'
p117
sS'edge_cond_'
p118
(dp119
(I1
I2
tp120
(lp121
g28
ag29
ag31
as(I4
I6
tp122
(lp123
S'T'
p124
as(I4
I5
tp125
(lp126
g28
ag29
ag31
as(I2
I8
tp127
(lp128
S'C'
p129
as(I8
I10
tp130
(lp131
g30
ag31
as(I8
I9
tp132
(lp133
g28
ag29
as(I2
I3
tp134
(lp135
g28
ag30
ag31
as(I3
I7
tp136
(lp137
S'G'
p138
as(I1
I11
tp139
(lp140
S'T'
p141
as(I3
I4
tp142
(lp143
g28
ag29
ag30
assS'class_pred_'
p144
g26
sS'CLASSES'
p145
cnumpy.core.multiarray
_reconstruct
p146
(cnumpy
ndarray
p147
(I0
tp148
S'b'
p149
tp150
Rp151
(I1
(I4
tp152
cnumpy
dtype
p153
(S'O8'
p154
I0
I1
tp155
Rp156
(I3
S'|'
p157
NNNI-1
I-1
I63
tp158
bI00
(lp159
g28
ag29
ag31
ag30
atp160
bsS'TREE_LEAF'
p161
(dp162
I1
I00
sI2
I00
sI3
I00
sI4
I00
sI5
I01
sI6
I01
sI7
I01
sI8
I00
sI9
I01
sI10
I01
sI11
I01
ssS'num_pass_'
p163
(dp164
I1
I72
sI2
I65
sI3
I29
sI4
I21
sI5
I10
sI6
I11
sI7
I8
sI8
I36
sI9
I7
sI10
I29
sI11
I7
ssS'error'
p165
(dp166
I1
F58.33333333333334
sI2
F53.84615384615385
sI3
F27.586206896551722
sI4
F9.523809523809524
sI5
F20.0
sI6
F0.0
sI7
F25.0
sI8
F19.444444444444443
sI9
F14.285714285714285
sI10
F0.0
sI11
F14.285714285714285
ssS'pvalue'
p167
g45
sS'class_names'
p168
g151
sS'n_node_samples'
p169
g164
sb.