ccopy_reg
_reconstructor
p0
(cmlx
tree_
p1
c__builtin__
object
p2
Ntp3
Rp4
(dp5
S'decision_rules_'
p6
(dp7
I8
S'P119 %in% c("A", "C", "T") & P292 %in% c("C", "G", "T") & P166 %in% c("G", "T")'
p8
sI9
S'P119 %in% c("G")'
p9
sI4
S'P119 %in% c("A", "C", "T") & P292 %in% c("A") & P141 %in% c("A")'
p10
sI5
S'P119 %in% c("A", "C", "T") & P292 %in% c("A") & P141 %in% c("C", "G", "T")'
p11
sI7
S'P119 %in% c("A", "C", "T") & P292 %in% c("C", "G", "T") & P166 %in% c("A", "C")'
p12
ssS'significant_feature_weight_'
p13
(dp14
S'P141'
p15
F0.2700102972501588
sS'P292'
p16
F0.6913648638116514
sS'P119'
p17
F0.3949703324120936
sS'P166'
p18
F0.0
ssS'children_left'
p19
(dp20
I1
I9
sI2
I3
sI3
I4
sI4
NsI5
NsI6
I8
sI7
NsI8
NsI9
NssS'ACCx_'
p21
F0.6527777777777778
sS'ACC_'
p22
F0.8194444444444444
sS'value'
p23
(dp24
I1
(dp25
S'A'
p26
F37.0
sS'C'
p27
F11.0
sS'T'
p28
F14.0
sS'G'
p29
F10.0
ssI2
(dp30
g26
F36.0
sg27
F11.0
sg28
F14.0
sg29
F2.0
ssI3
(dp31
g26
F35.0
sg27
F1.0
sg28
F6.0
sg29
F0.0
ssI4
(dp32
g26
F35.0
sg27
F0.0
sg28
F0.0
sg29
F0.0
ssI5
(dp33
g26
F0.0
sg27
F1.0
sg28
F6.0
sg29
F0.0
ssI6
(dp34
g26
F1.0
sg27
F10.0
sg28
F8.0
sg29
F2.0
ssI7
(dp35
g26
F0.0
sg27
F4.0
sg28
F3.0
sg29
F2.0
ssI8
(dp36
g26
F1.0
sg27
F6.0
sg28
F5.0
sg29
F0.0
ssI9
(dp37
g26
F1.0
sg27
F0.0
sg28
F0.0
sg29
F8.0
sssS'tprob_'
p38
(dp39
I8
F0.16666666666666666
sI9
F0.125
sI4
F0.4861111111111111
sI5
F0.09722222222222222
sI7
F0.125
ssS'threshold'
p40
(dp41
I1
F8.88178419700125e-16
sI2
F1.8848811400573602e-11
sI3
F5.503375533066899e-13
sI6
F0.0030108993279494
ssS'children'
p42
(dp43
I1
c__builtin__
set
p44
((lp45
I9
aI2
atp46
Rp47
sI2
g44
((lp48
I3
aI6
atp49
Rp50
sI3
g44
((lp51
I4
aI5
atp52
Rp53
sI4
g44
((lp54
tp55
Rp56
sI5
g44
((lp57
tp58
Rp59
sI6
g44
((lp60
I8
aI7
atp61
Rp62
sI7
g44
((lp63
tp64
Rp65
sI8
g44
((lp66
tp67
Rp68
sI9
g44
((lp69
tp70
Rp71
ssS'children_right'
p72
(dp73
I1
I2
sI2
I6
sI3
I5
sI4
NsI5
NsI6
I7
sI7
NsI8
NsI9
NssS'feature'
p74
(dp75
I1
g17
sI2
g16
sI3
g15
sI4
S'4'
p76
sI5
S'5'
p77
sI6
g18
sI7
S'7'
p78
sI8
S'8'
p79
sI9
S'9'
p80
ssS'nodes'
p81
crpy2.robjects.robject
_reduce_robjectmixin
p82
(S'X\n\x00\x00\x00\x02\x00\x03\x04\x04\x00\x02\x03\x00\x00\x00\x00\r\x00\x00\x00\t\x00\x00\x00\x01\x00\x00\x00\x02\x00\x00\x00\x03\x00\x00\x00\x04\x00\x00\x00\x05\x00\x00\x00\x06\x00\x00\x00\x07\x00\x00\x00\x08\x00\x00\x00\t'
p83
I13
crpy2.rinterface._rinterface
unserialize
p84
crpy2.robjects.vectors
IntVector
p85
tp86
Rp87
(dp88
S'ro'
p89
g0
(crpy2.robjects.vectors
VectorOperationsDelegator
p90
g2
Ntp91
Rp92
(dp93
S'_parent'
p94
g87
sbsS'rx'
p95
g0
(crpy2.robjects.vectors
ExtractDelegator
p96
g2
Ntp97
Rp98
(dp99
g94
g87
sbsS'rx2'
p100
g0
(crpy2.robjects.vectors
DoubleExtractDelegator
p101
g2
Ntp102
Rp103
(dp104
g94
g87
sbsbsS'response_var_'
p105
S'P378'
p106
sS'edge_cond_'
p107
(dp108
(I1
I2
tp109
(lp110
g26
ag27
ag28
as(I2
I6
tp111
(lp112
g27
ag28
ag29
as(I6
I7
tp113
(lp114
g26
ag27
as(I6
I8
tp115
(lp116
g28
ag29
as(I2
I3
tp117
(lp118
S'A'
p119
as(I1
I9
tp120
(lp121
S'G'
p122
as(I3
I4
tp123
(lp124
S'A'
p125
as(I3
I5
tp126
(lp127
g27
ag28
ag29
assS'class_pred_'
p128
g24
sS'CLASSES'
p129
cnumpy.core.multiarray
_reconstruct
p130
(cnumpy
ndarray
p131
(I0
tp132
S'b'
p133
tp134
Rp135
(I1
(I4
tp136
cnumpy
dtype
p137
(S'O8'
p138
I0
I1
tp139
Rp140
(I3
S'|'
p141
NNNI-1
I-1
I63
tp142
bI00
(lp143
g26
ag27
ag29
ag28
atp144
bsS'TREE_LEAF'
p145
(dp146
I1
I00
sI2
I00
sI3
I00
sI4
I01
sI5
I01
sI6
I00
sI7
I01
sI8
I01
sI9
I01
ssS'num_pass_'
p147
(dp148
I1
I72
sI2
I63
sI3
I42
sI4
I35
sI5
I7
sI6
I21
sI7
I9
sI8
I12
sI9
I9
ssS'error'
p149
(dp150
I1
F48.611111111111114
sI2
F42.857142857142854
sI3
F16.666666666666664
sI4
F0.0
sI5
F14.285714285714285
sI6
F52.38095238095238
sI7
F55.55555555555555
sI8
F50.0
sI9
F11.11111111111111
ssS'pvalue'
p151
g41
sS'class_names'
p152
g135
sS'n_node_samples'
p153
g148
sb.