ccopy_reg
_reconstructor
p0
(cmlx
tree_
p1
c__builtin__
object
p2
Ntp3
Rp4
(dp5
S'decision_rules_'
p6
(dp7
I4
S'P6 %in% c("A", "C", "G", "R") & P87 %in% c("A", "T") & P213 %in% c("A", "G")'
p8
sI5
S'P6 %in% c("A", "C", "G", "R") & P87 %in% c("A", "T") & P213 %in% c("C", "T")'
p9
sI6
S'P6 %in% c("A", "C", "G", "R") & P87 %in% c("C", "G")'
p10
sI7
S'P6 %in% c("T")'
p11
ssS'significant_feature_weight_'
p12
(dp13
S'P6'
p14
F0.9807098576304492
sS'P213'
p15
F0.3140096025282275
sS'P87'
p16
F0.32974906965165696
ssS'children_left'
p17
(dp18
I1
I2
sI2
I3
sI3
I4
sI4
NsI5
NsI6
NsI7
NssS'ACCx_'
p19
F0.26388888888888884
sS'ACC_'
p20
F0.8611111111111112
sS'value'
p21
(dp22
I1
(dp23
S'A'
p24
F47.0
sS'C'
p25
F10.0
sS'R'
p26
F1.0
sS'T'
p27
F4.0
sS'G'
p28
F10.0
ssI2
(dp29
g24
F8.0
sg25
F10.0
sg26
F1.0
sg27
F3.0
sg28
F9.0
ssI3
(dp30
g24
F2.0
sg25
F10.0
sg26
F0.0
sg27
F3.0
sg28
F8.0
ssI4
(dp31
g24
F1.0
sg25
F1.0
sg26
F0.0
sg27
F0.0
sg28
F8.0
ssI5
(dp32
g24
F1.0
sg25
F9.0
sg26
F0.0
sg27
F3.0
sg28
F0.0
ssI6
(dp33
g24
F6.0
sg25
F0.0
sg26
F1.0
sg27
F0.0
sg28
F1.0
ssI7
(dp34
g24
F39.0
sg25
F0.0
sg26
F0.0
sg27
F1.0
sg28
F1.0
sssS'tprob_'
p35
(dp36
I4
F0.1388888888888889
sI5
F0.18055555555555555
sI6
F0.1111111111111111
sI7
F0.5694444444444444
ssS'threshold'
p37
(dp38
I1
I0
sI2
F0.00585503427096201
sI3
F0.00662711564339857
ssS'children'
p39
(dp40
I1
c__builtin__
set
p41
((lp42
I2
aI7
atp43
Rp44
sI2
g41
((lp45
I3
aI6
atp46
Rp47
sI3
g41
((lp48
I4
aI5
atp49
Rp50
sI4
g41
((lp51
tp52
Rp53
sI5
g41
((lp54
tp55
Rp56
sI6
g41
((lp57
tp58
Rp59
sI7
g41
((lp60
tp61
Rp62
ssS'children_right'
p63
(dp64
I1
I7
sI2
I6
sI3
I5
sI4
NsI5
NsI6
NsI7
NssS'feature'
p65
(dp66
I1
g14
sI2
g16
sI3
g15
sI4
S'4'
p67
sI5
S'5'
p68
sI6
S'6'
p69
sI7
S'7'
p70
ssS'nodes'
p71
crpy2.robjects.robject
_reduce_robjectmixin
p72
(S'X\n\x00\x00\x00\x02\x00\x03\x04\x04\x00\x02\x03\x00\x00\x00\x00\r\x00\x00\x00\x07\x00\x00\x00\x01\x00\x00\x00\x02\x00\x00\x00\x03\x00\x00\x00\x04\x00\x00\x00\x05\x00\x00\x00\x06\x00\x00\x00\x07'
p73
I13
crpy2.rinterface._rinterface
unserialize
p74
crpy2.robjects.vectors
IntVector
p75
tp76
Rp77
(dp78
S'ro'
p79
g0
(crpy2.robjects.vectors
VectorOperationsDelegator
p80
g2
Ntp81
Rp82
(dp83
S'_parent'
p84
g77
sbsS'rx'
p85
g0
(crpy2.robjects.vectors
ExtractDelegator
p86
g2
Ntp87
Rp88
(dp89
g84
g77
sbsS'rx2'
p90
g0
(crpy2.robjects.vectors
DoubleExtractDelegator
p91
g2
Ntp92
Rp93
(dp94
g84
g77
sbsbsS'response_var_'
p95
S'P18'
p96
sS'edge_cond_'
p97
(dp98
(I1
I2
tp99
(lp100
g24
ag25
ag26
ag28
as(I2
I6
tp101
(lp102
g25
ag28
as(I2
I3
tp103
(lp104
g24
ag27
as(I1
I7
tp105
(lp106
S'T'
p107
as(I3
I4
tp108
(lp109
g24
ag28
as(I3
I5
tp110
(lp111
g25
ag27
assS'class_pred_'
p112
g22
sS'CLASSES'
p113
cnumpy.core.multiarray
_reconstruct
p114
(cnumpy
ndarray
p115
(I0
tp116
S'b'
p117
tp118
Rp119
(I1
(I5
tp120
cnumpy
dtype
p121
(S'O8'
p122
I0
I1
tp123
Rp124
(I3
S'|'
p125
NNNI-1
I-1
I63
tp126
bI00
(lp127
g24
ag25
ag28
ag26
ag27
atp128
bsS'TREE_LEAF'
p129
(dp130
I1
I00
sI2
I00
sI3
I00
sI4
I01
sI5
I01
sI6
I01
sI7
I01
ssS'num_pass_'
p131
(dp132
I1
I72
sI2
I31
sI3
I23
sI4
I10
sI5
I13
sI6
I8
sI7
I41
ssS'error'
p133
(dp134
I1
F34.72222222222222
sI2
F67.74193548387098
sI3
F56.52173913043478
sI4
F20.0
sI5
F30.76923076923077
sI6
F25.0
sI7
F4.878048780487805
ssS'pvalue'
p135
g38
sS'class_names'
p136
g119
sS'n_node_samples'
p137
g132
sb.