ccopy_reg
_reconstructor
p0
(cmlx
tree_
p1
c__builtin__
object
p2
Ntp3
Rp4
(dp5
S'decision_rules_'
p6
(dp7
I4
S'P48 %in% c("A", "G", "R", "T") & P179 %in% c("A") & P105 %in% c("A", "NA", "NA")'
p8
sI5
S'P48 %in% c("A", "G", "R", "T") & P179 %in% c("A") & P105 %in% c("NA", "G", "NA")'
p9
sI6
S'P48 %in% c("A", "G", "R", "T") & P179 %in% c("C", "G", "T")'
p10
sI7
S'P48 %in% c("C")'
p11
ssS'significant_feature_weight_'
p12
(dp13
S'P105'
p14
F0.46172837227045677
sS'P179'
p15
F0.7142856962948095
sS'P48'
p16
F0.4374999915629148
ssS'children_left'
p17
(dp18
I1
I2
sI2
I3
sI3
I4
sI4
NsI5
NsI6
NsI7
NssS'ACCx_'
p19
F0.6666666666666667
sS'ACC_'
p20
F0.9027777777777778
sS'value'
p21
(dp22
I1
(dp23
S'A'
p24
F27.0
sS'C'
p25
F36.0
sS'T'
p26
F6.0
sS'G'
p27
F3.0
ssI2
(dp28
g24
F25.0
sg25
F36.0
sg26
F0.0
sg27
F2.0
ssI3
(dp29
g24
F11.0
sg25
F34.0
sg26
F0.0
sg27
F0.0
ssI4
(dp30
g24
F0.0
sg25
F34.0
sg26
F0.0
sg27
F0.0
ssI5
(dp31
g24
F11.0
sg25
F0.0
sg26
F0.0
sg27
F0.0
ssI6
(dp32
g24
F14.0
sg25
F2.0
sg26
F0.0
sg27
F2.0
ssI7
(dp33
g24
F2.0
sg25
F0.0
sg26
F6.0
sg27
F1.0
sssS'tprob_'
p34
(dp35
I4
F0.4722222222222222
sI5
F0.1527777777777778
sI6
F0.25
sI7
F0.125
ssS'threshold'
p36
(dp37
I1
F4.77395900588817e-15
sI2
F5.32018873400375e-13
sI3
F1.3102196882997e-08
ssS'children'
p38
(dp39
I1
c__builtin__
set
p40
((lp41
I2
aI7
atp42
Rp43
sI2
g40
((lp44
I3
aI6
atp45
Rp46
sI3
g40
((lp47
I4
aI5
atp48
Rp49
sI4
g40
((lp50
tp51
Rp52
sI5
g40
((lp53
tp54
Rp55
sI6
g40
((lp56
tp57
Rp58
sI7
g40
((lp59
tp60
Rp61
ssS'children_right'
p62
(dp63
I1
I7
sI2
I6
sI3
I5
sI4
NsI5
NsI6
NsI7
NssS'feature'
p64
(dp65
I1
g16
sI2
g15
sI3
g14
sI4
S'4'
p66
sI5
S'5'
p67
sI6
S'6'
p68
sI7
S'7'
p69
ssS'nodes'
p70
crpy2.robjects.robject
_reduce_robjectmixin
p71
(S'X\n\x00\x00\x00\x02\x00\x03\x04\x04\x00\x02\x03\x00\x00\x00\x00\r\x00\x00\x00\x07\x00\x00\x00\x01\x00\x00\x00\x02\x00\x00\x00\x03\x00\x00\x00\x04\x00\x00\x00\x05\x00\x00\x00\x06\x00\x00\x00\x07'
p72
I13
crpy2.rinterface._rinterface
unserialize
p73
crpy2.robjects.vectors
IntVector
p74
tp75
Rp76
(dp77
S'ro'
p78
g0
(crpy2.robjects.vectors
VectorOperationsDelegator
p79
g2
Ntp80
Rp81
(dp82
S'_parent'
p83
g76
sbsS'rx'
p84
g0
(crpy2.robjects.vectors
ExtractDelegator
p85
g2
Ntp86
Rp87
(dp88
g83
g76
sbsS'rx2'
p89
g0
(crpy2.robjects.vectors
DoubleExtractDelegator
p90
g2
Ntp91
Rp92
(dp93
g83
g76
sbsbsS'response_var_'
p94
S'P379'
p95
sS'edge_cond_'
p96
(dp97
(I1
I2
tp98
(lp99
g24
aS'R'
p100
ag26
ag27
as(I2
I6
tp101
(lp102
g25
ag26
ag27
as(I2
I3
tp103
(lp104
S'A'
p105
as(I1
I7
tp106
(lp107
S'C'
p108
as(I3
I4
tp109
(lp110
g24
as(I3
I5
tp111
(lp112
g27
assS'class_pred_'
p113
g22
sS'CLASSES'
p114
cnumpy.core.multiarray
_reconstruct
p115
(cnumpy
ndarray
p116
(I0
tp117
S'b'
p118
tp119
Rp120
(I1
(I4
tp121
cnumpy
dtype
p122
(S'O8'
p123
I0
I1
tp124
Rp125
(I3
S'|'
p126
NNNI-1
I-1
I63
tp127
bI00
(lp128
g24
ag25
ag27
ag26
atp129
bsS'TREE_LEAF'
p130
(dp131
I1
I00
sI2
I00
sI3
I00
sI4
I01
sI5
I01
sI6
I01
sI7
I01
ssS'num_pass_'
p132
(dp133
I1
I72
sI2
I63
sI3
I45
sI4
I34
sI5
I11
sI6
I18
sI7
I9
ssS'error'
p134
(dp135
I1
F50.0
sI2
F42.85714285714286
sI3
F24.444444444444443
sI4
F0.0
sI5
F0.0
sI6
F22.22222222222222
sI7
F33.33333333333333
ssS'pvalue'
p136
g37
sS'class_names'
p137
g120
sS'n_node_samples'
p138
g133
sb.