ccopy_reg
_reconstructor
p0
(cmlx
tree_
p1
c__builtin__
object
p2
Ntp3
Rp4
(dp5
S'decision_rules_'
p6
(dp7
I8
S'P351 %in% c("A", "G", "T") & P221 %in% c("G", "T")'
p8
sI9
S'P351 %in% c("C")'
p9
sI5
S'P351 %in% c("A", "G", "T") & P221 %in% c("A", "C") & P9 %in% c("A", "G") & P214 %in% c("A", "NA", "G")'
p10
sI6
S'P351 %in% c("A", "G", "T") & P221 %in% c("A", "C") & P9 %in% c("A", "G") & P214 %in% c("NA", "T")'
p11
sI7
S'P351 %in% c("A", "G", "T") & P221 %in% c("A", "C") & P9 %in% c("C", "T")'
p12
ssS'significant_feature_weight_'
p13
(dp14
S'P351'
p15
F0.9020819017206788
sS'P9'
p16
F0.32592588973606473
sS'P214'
p17
F0.0
sS'P221'
p18
F0.2556081016148003
ssS'children_left'
p19
(dp20
I1
I9
sI2
I8
sI3
I4
sI4
I5
sI5
NsI6
NsI7
NsI8
NsI9
NssS'ACCx_'
p21
F0.5833333333333333
sS'ACC_'
p22
F0.8888888888888888
sS'value'
p23
(dp24
I1
(dp25
S'A'
p26
F35.0
sS'C'
p27
F8.0
sS'T'
p28
F6.0
sS'G'
p29
F23.0
ssI2
(dp30
g26
F1.0
sg27
F8.0
sg28
F6.0
sg29
F22.0
ssI3
(dp31
g26
F0.0
sg27
F2.0
sg28
F6.0
sg29
F22.0
ssI4
(dp32
g26
F0.0
sg27
F0.0
sg28
F2.0
sg29
F20.0
ssI5
(dp33
g26
F0.0
sg27
F0.0
sg28
F2.0
sg29
F6.0
ssI6
(dp34
g26
F0.0
sg27
F0.0
sg28
F0.0
sg29
F14.0
ssI7
(dp35
g26
F0.0
sg27
F2.0
sg28
F4.0
sg29
F2.0
ssI8
(dp36
g26
F1.0
sg27
F6.0
sg28
F0.0
sg29
F0.0
ssI9
(dp37
g26
F34.0
sg27
F0.0
sg28
F0.0
sg29
F1.0
sssS'tprob_'
p38
(dp39
I8
F0.09722222222222222
sI9
F0.4861111111111111
sI5
F0.1111111111111111
sI6
F0.19444444444444445
sI7
F0.1111111111111111
ssS'threshold'
p40
(dp41
I1
F1.11022302462516e-16
sI2
F5.5155785272376105e-08
sI3
F0.00029307129751643396
sI4
F0.0109270557968296
ssS'children'
p42
(dp43
I1
c__builtin__
set
p44
((lp45
I9
aI2
atp46
Rp47
sI2
g44
((lp48
I8
aI3
atp49
Rp50
sI3
g44
((lp51
I4
aI7
atp52
Rp53
sI4
g44
((lp54
I5
aI6
atp55
Rp56
sI5
g44
((lp57
tp58
Rp59
sI6
g44
((lp60
tp61
Rp62
sI7
g44
((lp63
tp64
Rp65
sI8
g44
((lp66
tp67
Rp68
sI9
g44
((lp69
tp70
Rp71
ssS'children_right'
p72
(dp73
I1
I2
sI2
I3
sI3
I7
sI4
I6
sI5
NsI6
NsI7
NsI8
NsI9
NssS'feature'
p74
(dp75
I1
g15
sI2
g18
sI3
g16
sI4
g17
sI5
S'5'
p76
sI6
S'6'
p77
sI7
S'7'
p78
sI8
S'8'
p79
sI9
S'9'
p80
ssS'nodes'
p81
crpy2.robjects.robject
_reduce_robjectmixin
p82
(S'X\n\x00\x00\x00\x02\x00\x03\x04\x04\x00\x02\x03\x00\x00\x00\x00\r\x00\x00\x00\t\x00\x00\x00\x01\x00\x00\x00\x02\x00\x00\x00\x03\x00\x00\x00\x04\x00\x00\x00\x05\x00\x00\x00\x06\x00\x00\x00\x07\x00\x00\x00\x08\x00\x00\x00\t'
p83
I13
crpy2.rinterface._rinterface
unserialize
p84
crpy2.robjects.vectors
IntVector
p85
tp86
Rp87
(dp88
S'ro'
p89
g0
(crpy2.robjects.vectors
VectorOperationsDelegator
p90
g2
Ntp91
Rp92
(dp93
S'_parent'
p94
g87
sbsS'rx'
p95
g0
(crpy2.robjects.vectors
ExtractDelegator
p96
g2
Ntp97
Rp98
(dp99
g94
g87
sbsS'rx2'
p100
g0
(crpy2.robjects.vectors
DoubleExtractDelegator
p101
g2
Ntp102
Rp103
(dp104
g94
g87
sbsbsS'response_var_'
p105
S'P25'
p106
sS'edge_cond_'
p107
(dp108
(I1
I2
tp109
(lp110
g26
ag28
ag29
as(I4
I6
tp111
(lp112
g28
as(I4
I5
tp113
(lp114
g26
ag29
as(I2
I8
tp115
(lp116
g28
ag29
as(I2
I3
tp117
(lp118
g26
ag27
as(I1
I9
tp119
(lp120
S'C'
p121
as(I3
I7
tp122
(lp123
g27
ag28
as(I3
I4
tp124
(lp125
g26
ag29
assS'class_pred_'
p126
g24
sS'CLASSES'
p127
cnumpy.core.multiarray
_reconstruct
p128
(cnumpy
ndarray
p129
(I0
tp130
S'b'
p131
tp132
Rp133
(I1
(I4
tp134
cnumpy
dtype
p135
(S'O8'
p136
I0
I1
tp137
Rp138
(I3
S'|'
p139
NNNI-1
I-1
I63
tp140
bI00
(lp141
g26
ag27
ag29
ag28
atp142
bsS'TREE_LEAF'
p143
(dp144
I1
I00
sI2
I00
sI3
I00
sI4
I00
sI5
I01
sI6
I01
sI7
I01
sI8
I01
sI9
I01
ssS'num_pass_'
p145
(dp146
I1
I72
sI2
I37
sI3
I30
sI4
I22
sI5
I8
sI6
I14
sI7
I8
sI8
I7
sI9
I35
ssS'error'
p147
(dp148
I1
F51.388888888888886
sI2
F40.54054054054054
sI3
F26.666666666666668
sI4
F9.090909090909092
sI5
F25.0
sI6
F0.0
sI7
F50.0
sI8
F14.285714285714285
sI9
F2.857142857142857
ssS'pvalue'
p149
g41
sS'class_names'
p150
g133
sS'n_node_samples'
p151
g146
sb.