ccopy_reg
_reconstructor
p0
(cmlx
tree_
p1
c__builtin__
object
p2
Ntp3
Rp4
(dp5
S'decision_rules_'
p6
(dp7
I5
S'P124 %in% c("A", "T") & P302 %in% c("A", "C") & P298 %in% c("A") & P263 %in% c("NA", "C", "G")'
p8
sI7
S'P124 %in% c("A", "T") & P302 %in% c("A", "C") & P298 %in% c("A") & P263 %in% c("NA", "T") & P82 %in% c("A", "G", "T", "NA")'
p9
sI8
S'P124 %in% c("A", "T") & P302 %in% c("A", "C") & P298 %in% c("A") & P263 %in% c("NA", "T") & P82 %in% c("C", "NA")'
p10
sI9
S'P124 %in% c("A", "T") & P302 %in% c("A", "C") & P298 %in% c("C", "G", "T")'
p11
sI10
S'P124 %in% c("A", "T") & P302 %in% c("G", "T")'
p12
sI11
S'P124 %in% c("G")'
p13
ssS'significant_feature_weight_'
p14
(dp15
S'P298'
p16
F0.35260894231871487
sS'P82'
p17
F0.0
sS'P124'
p18
F0.39497033241209356
sS'P302'
p19
F0.5095116788164304
sS'P263'
p20
F0.32362854980743777
ssS'children_left'
p21
(dp22
I1
I2
sI2
I10
sI3
I9
sI4
I5
sI5
NsI6
I8
sI7
NsI8
NsI9
NsI10
NsI11
NssS'ACCx_'
p23
F0.3472222222222222
sS'ACC_'
p24
F0.875
sS'value'
p25
(dp26
I1
(dp27
S'A'
p28
F12.0
sS'C'
p29
F15.0
sS'T'
p30
F34.0
sS'G'
p31
F11.0
ssI2
(dp32
g28
F3.0
sg29
F15.0
sg30
F34.0
sg31
F11.0
ssI3
(dp33
g28
F3.0
sg29
F14.0
sg30
F32.0
sg31
F1.0
ssI4
(dp34
g28
F0.0
sg29
F9.0
sg30
F32.0
sg31
F0.0
ssI5
(dp35
g28
F0.0
sg29
F8.0
sg30
F1.0
sg31
F0.0
ssI6
(dp36
g28
F0.0
sg29
F1.0
sg30
F31.0
sg31
F0.0
ssI7
(dp37
g28
F0.0
sg29
F1.0
sg30
F6.0
sg31
F0.0
ssI8
(dp38
g28
F0.0
sg29
F0.0
sg30
F25.0
sg31
F0.0
ssI9
(dp39
g28
F3.0
sg29
F5.0
sg30
F0.0
sg31
F1.0
ssI10
(dp40
g28
F0.0
sg29
F1.0
sg30
F2.0
sg31
F10.0
ssI11
(dp41
g28
F9.0
sg29
F0.0
sg30
F0.0
sg31
F0.0
sssS'tprob_'
p42
(dp43
I5
F0.125
sI7
F0.09722222222222222
sI8
F0.3472222222222222
sI9
F0.125
sI10
F0.18055555555555555
sI11
F0.125
ssS'threshold'
p44
(dp45
I1
F2.1787016635244096e-12
sI2
F5.551115123125781e-16
sI3
I0
sI4
F0.00010973632426736199
sI6
F0.00033911181115275896
ssS'children'
p46
(dp47
I1
c__builtin__
set
p48
((lp49
I2
aI11
atp50
Rp51
sI2
g48
((lp52
I10
aI3
atp53
Rp54
sI3
g48
((lp55
I9
aI4
atp56
Rp57
sI4
g48
((lp58
I5
aI6
atp59
Rp60
sI5
g48
((lp61
tp62
Rp63
sI6
g48
((lp64
I8
aI7
atp65
Rp66
sI7
g48
((lp67
tp68
Rp69
sI8
g48
((lp70
tp71
Rp72
sI9
g48
((lp73
tp74
Rp75
sI10
g48
((lp76
tp77
Rp78
sI11
g48
((lp79
tp80
Rp81
ssS'children_right'
p82
(dp83
I1
I11
sI2
I3
sI3
I4
sI4
I6
sI5
NsI6
I7
sI7
NsI8
NsI9
NsI10
NsI11
NssS'feature'
p84
(dp85
I1
g18
sI2
g19
sI3
g16
sI4
g20
sI5
S'5'
p86
sI6
g17
sI7
S'7'
p87
sI8
S'8'
p88
sI9
S'9'
p89
sI10
S'10'
p90
sI11
S'11'
p91
ssS'nodes'
p92
crpy2.robjects.robject
_reduce_robjectmixin
p93
(S'X\n\x00\x00\x00\x02\x00\x03\x04\x04\x00\x02\x03\x00\x00\x00\x00\r\x00\x00\x00\x0b\x00\x00\x00\x01\x00\x00\x00\x02\x00\x00\x00\x03\x00\x00\x00\x04\x00\x00\x00\x05\x00\x00\x00\x06\x00\x00\x00\x07\x00\x00\x00\x08\x00\x00\x00\t\x00\x00\x00\n\x00\x00\x00\x0b'
p94
I13
crpy2.rinterface._rinterface
unserialize
p95
crpy2.robjects.vectors
IntVector
p96
tp97
Rp98
(dp99
S'ro'
p100
g0
(crpy2.robjects.vectors
VectorOperationsDelegator
p101
g2
Ntp102
Rp103
(dp104
S'_parent'
p105
g98
sbsS'rx'
p106
g0
(crpy2.robjects.vectors
ExtractDelegator
p107
g2
Ntp108
Rp109
(dp110
g105
g98
sbsS'rx2'
p111
g0
(crpy2.robjects.vectors
DoubleExtractDelegator
p112
g2
Ntp113
Rp114
(dp115
g105
g98
sbsbsS'response_var_'
p116
S'P266'
p117
sS'edge_cond_'
p118
(dp119
(I1
I2
tp120
(lp121
g28
ag30
as(I6
I7
tp122
(lp123
g28
ag30
ag31
as(I4
I6
tp124
(lp125
g30
as(I4
I5
tp126
(lp127
g29
ag31
as(I2
I10
tp128
(lp129
g30
ag31
as(I3
I9
tp130
(lp131
g29
ag30
ag31
as(I2
I3
tp132
(lp133
g28
ag29
as(I1
I11
tp134
(lp135
S'G'
p136
as(I3
I4
tp137
(lp138
S'A'
p139
as(I6
I8
tp140
(lp141
g29
assS'class_pred_'
p142
g26
sS'CLASSES'
p143
cnumpy.core.multiarray
_reconstruct
p144
(cnumpy
ndarray
p145
(I0
tp146
S'b'
p147
tp148
Rp149
(I1
(I4
tp150
cnumpy
dtype
p151
(S'O8'
p152
I0
I1
tp153
Rp154
(I3
S'|'
p155
NNNI-1
I-1
I63
tp156
bI00
(lp157
g28
ag29
ag31
ag30
atp158
bsS'TREE_LEAF'
p159
(dp160
I1
I00
sI2
I00
sI3
I00
sI4
I00
sI5
I01
sI6
I00
sI7
I01
sI8
I01
sI9
I01
sI10
I01
sI11
I01
ssS'num_pass_'
p161
(dp162
I1
I72
sI2
I63
sI3
I50
sI4
I41
sI5
I9
sI6
I32
sI7
I7
sI8
I25
sI9
I9
sI10
I13
sI11
I9
ssS'error'
p163
(dp164
I1
F52.77777777777778
sI2
F46.031746031746025
sI3
F36.0
sI4
F21.951219512195124
sI5
F11.11111111111111
sI6
F3.125
sI7
F14.285714285714285
sI8
F0.0
sI9
F44.44444444444444
sI10
F23.076923076923077
sI11
F0.0
ssS'pvalue'
p165
g45
sS'class_names'
p166
g149
sS'n_node_samples'
p167
g162
sb.