ccopy_reg
_reconstructor
p0
(cmlx
tree_
p1
c__builtin__
object
p2
Ntp3
Rp4
(dp5
S'decision_rules_'
p6
(dp7
I4
S'P224 %in% c("A", "G", "T") & P284 %in% c("A", "T") & P373 %in% c("A", "C")'
p8
sI5
S'P224 %in% c("A", "G", "T") & P284 %in% c("A", "T") & P373 %in% c("G", "T")'
p9
sI6
S'P224 %in% c("A", "G", "T") & P284 %in% c("C", "G")'
p10
sI7
S'P224 %in% c("C")'
p11
ssS'significant_feature_weight_'
p12
(dp13
S'P284'
p14
F0.2523045130042585
sS'P224'
p15
F0.9027777603679195
sS'P373'
p16
F0.34482754523306813
ssS'children_left'
p17
(dp18
I1
I2
sI2
I3
sI3
I4
sI4
NsI5
NsI6
NsI7
NssS'ACCx_'
p19
F0.7222222222222222
sS'ACC_'
p20
F0.875
sS'value'
p21
(dp22
I1
(dp23
S'A'
p24
F4.0
sS'C'
p25
F55.0
sS'T'
p26
F11.0
sS'G'
p27
F2.0
ssI2
(dp28
g24
F4.0
sg25
F19.0
sg26
F11.0
sg27
F2.0
ssI3
(dp29
g24
F0.0
sg25
F19.0
sg26
F9.0
sg27
F1.0
ssI4
(dp30
g24
F0.0
sg25
F2.0
sg26
F6.0
sg27
F1.0
ssI5
(dp31
g24
F0.0
sg25
F17.0
sg26
F3.0
sg27
F0.0
ssI6
(dp32
g24
F4.0
sg25
F0.0
sg26
F2.0
sg27
F1.0
ssI7
(dp33
g24
F0.0
sg25
F36.0
sg26
F0.0
sg27
F0.0
sssS'tprob_'
p34
(dp35
I4
F0.125
sI5
F0.2777777777777778
sI6
F0.09722222222222222
sI7
F0.5
ssS'threshold'
p36
(dp37
I1
F5.6354920729973004e-11
sI2
F0.0042302957834207105
sI3
F0.00045309653128089406
ssS'children'
p38
(dp39
I1
c__builtin__
set
p40
((lp41
I2
aI7
atp42
Rp43
sI2
g40
((lp44
I3
aI6
atp45
Rp46
sI3
g40
((lp47
I4
aI5
atp48
Rp49
sI4
g40
((lp50
tp51
Rp52
sI5
g40
((lp53
tp54
Rp55
sI6
g40
((lp56
tp57
Rp58
sI7
g40
((lp59
tp60
Rp61
ssS'children_right'
p62
(dp63
I1
I7
sI2
I6
sI3
I5
sI4
NsI5
NsI6
NsI7
NssS'feature'
p64
(dp65
I1
g15
sI2
g14
sI3
g16
sI4
S'4'
p66
sI5
S'5'
p67
sI6
S'6'
p68
sI7
S'7'
p69
ssS'nodes'
p70
crpy2.robjects.robject
_reduce_robjectmixin
p71
(S'X\n\x00\x00\x00\x02\x00\x03\x04\x04\x00\x02\x03\x00\x00\x00\x00\r\x00\x00\x00\x07\x00\x00\x00\x01\x00\x00\x00\x02\x00\x00\x00\x03\x00\x00\x00\x04\x00\x00\x00\x05\x00\x00\x00\x06\x00\x00\x00\x07'
p72
I13
crpy2.rinterface._rinterface
unserialize
p73
crpy2.robjects.vectors
IntVector
p74
tp75
Rp76
(dp77
S'ro'
p78
g0
(crpy2.robjects.vectors
VectorOperationsDelegator
p79
g2
Ntp80
Rp81
(dp82
S'_parent'
p83
g76
sbsS'rx'
p84
g0
(crpy2.robjects.vectors
ExtractDelegator
p85
g2
Ntp86
Rp87
(dp88
g83
g76
sbsS'rx2'
p89
g0
(crpy2.robjects.vectors
DoubleExtractDelegator
p90
g2
Ntp91
Rp92
(dp93
g83
g76
sbsbsS'response_var_'
p94
S'P35'
p95
sS'edge_cond_'
p96
(dp97
(I1
I2
tp98
(lp99
g24
ag26
ag27
as(I2
I6
tp100
(lp101
g25
ag27
as(I2
I3
tp102
(lp103
g24
ag26
as(I1
I7
tp104
(lp105
S'C'
p106
as(I3
I4
tp107
(lp108
g24
ag25
as(I3
I5
tp109
(lp110
g26
ag27
assS'class_pred_'
p111
g22
sS'CLASSES'
p112
cnumpy.core.multiarray
_reconstruct
p113
(cnumpy
ndarray
p114
(I0
tp115
S'b'
p116
tp117
Rp118
(I1
(I4
tp119
cnumpy
dtype
p120
(S'O8'
p121
I0
I1
tp122
Rp123
(I3
S'|'
p124
NNNI-1
I-1
I63
tp125
bI00
(lp126
g24
ag25
ag27
ag26
atp127
bsS'TREE_LEAF'
p128
(dp129
I1
I00
sI2
I00
sI3
I00
sI4
I01
sI5
I01
sI6
I01
sI7
I01
ssS'num_pass_'
p130
(dp131
I1
I72
sI2
I36
sI3
I29
sI4
I9
sI5
I20
sI6
I7
sI7
I36
ssS'error'
p132
(dp133
I1
F23.61111111111111
sI2
F47.22222222222222
sI3
F34.48275862068966
sI4
F33.33333333333333
sI5
F15.0
sI6
F42.857142857142854
sI7
F0.0
ssS'pvalue'
p134
g37
sS'class_names'
p135
g118
sS'n_node_samples'
p136
g131
sb.