ccopy_reg
_reconstructor
p0
(cmlx
tree_
p1
c__builtin__
object
p2
Ntp3
Rp4
(dp5
S'decision_rules_'
p6
(dp7
I5
S'FOSL1 %in% c("A", "B") & SOX2 %in% c("A", "B") & BCL2 %in% c("A", "B") & PCMT1 %in% c("A", "C")'
p8
sI7
S'FOSL1 %in% c("A", "B") & SOX2 %in% c("A", "B") & BCL2 %in% c("A", "B") & PCMT1 %in% c("B") & RBM34 %in% c("A", "C")'
p9
sI9
S'FOSL1 %in% c("A", "B") & SOX2 %in% c("A", "B") & BCL2 %in% c("A", "B") & PCMT1 %in% c("B") & RBM34 %in% c("B") & UBE2C %in% c("A", "C")'
p10
sI10
S'FOSL1 %in% c("A", "B") & SOX2 %in% c("A", "B") & BCL2 %in% c("A", "B") & PCMT1 %in% c("B") & RBM34 %in% c("B") & UBE2C %in% c("B")'
p11
sI11
S'FOSL1 %in% c("A", "B") & SOX2 %in% c("A", "B") & BCL2 %in% c("C")'
p12
sI12
S'FOSL1 %in% c("A", "B") & SOX2 %in% c("C")'
p13
sI14
S'FOSL1 %in% c("C") & DSG2 %in% c("A", "C")'
p14
sI15
S'FOSL1 %in% c("C") & DSG2 %in% c("B")'
p15
ssS'significant_feature_weight_'
p16
(dp17
S'UBE2C'
p18
F0.0
sS'PCMT1'
p19
F0.0
sS'DSG2'
p20
F0.0
sS'RBM34'
p21
F0.0
sS'FOSL1'
p22
F0.4476688943979043
sS'SOX2'
p23
F0.0
sS'BCL2'
p24
F0.0
ssS'children_left'
p25
(dp26
I1
I2
sI2
I3
sI3
I11
sI4
I5
sI5
NsI6
I8
sI7
NsI8
I9
sI9
NsI10
NsI11
NsI12
NsI13
I14
sI14
NsI15
NssS'ACCx_'
p27
F0.8908045977011494
sS'ACC_'
p28
F0.8908045977011494
sS'value'
p29
(dp30
I1
(dp31
S'A'
p32
F36.0
sS'C'
p33
F138.0
ssI2
(dp34
g32
F12.0
sg33
F131.0
ssI3
(dp35
g32
F12.0
sg33
F90.0
ssI4
(dp36
g32
F12.0
sg33
F74.0
ssI5
(dp37
g32
F5.0
sg33
F13.0
ssI6
(dp38
g32
F7.0
sg33
F61.0
ssI7
(dp39
g32
F4.0
sg33
F14.0
ssI8
(dp40
g32
F3.0
sg33
F47.0
ssI9
(dp41
g32
F3.0
sg33
F9.0
ssI10
(dp42
g32
F0.0
sg33
F38.0
ssI11
(dp43
g32
F0.0
sg33
F16.0
ssI12
(dp44
g32
F0.0
sg33
F41.0
ssI13
(dp45
g32
F24.0
sg33
F7.0
ssI14
(dp46
g32
F11.0
sg33
F7.0
ssI15
(dp47
g32
F13.0
sg33
F0.0
sssS'tprob_'
p48
(dp49
I5
F0.10344827586206896
sI7
F0.10344827586206896
sI9
F0.06896551724137931
sI10
F0.21839080459770116
sI11
F0.09195402298850575
sI12
F0.23563218390804597
sI14
F0.10344827586206896
sI15
F0.07471264367816093
ssS'threshold'
p50
(dp51
I1
F6.65023591750469e-14
sI2
F1.27371805184184e-05
sI3
F0.00476530679896658
sI4
F0.0026115736292216
sI6
F9.44436550598393e-06
sI8
F0.0328923578983596
sI13
F0.0037756722680863898
ssS'children'
p52
(dp53
I1
c__builtin__
set
p54
((lp55
I2
aI13
atp56
Rp57
sI2
g54
((lp58
I3
aI12
atp59
Rp60
sI3
g54
((lp61
I11
aI4
atp62
Rp63
sI4
g54
((lp64
I5
aI6
atp65
Rp66
sI5
g54
((lp67
tp68
Rp69
sI6
g54
((lp70
I8
aI7
atp71
Rp72
sI7
g54
((lp73
tp74
Rp75
sI8
g54
((lp76
I9
aI10
atp77
Rp78
sI9
g54
((lp79
tp80
Rp81
sI10
g54
((lp82
tp83
Rp84
sI11
g54
((lp85
tp86
Rp87
sI12
g54
((lp88
tp89
Rp90
sI13
g54
((lp91
I14
aI15
atp92
Rp93
sI14
g54
((lp94
tp95
Rp96
sI15
g54
((lp97
tp98
Rp99
ssS'children_right'
p100
(dp101
I1
I13
sI2
I12
sI3
I4
sI4
I6
sI5
NsI6
I7
sI7
NsI8
I10
sI9
NsI10
NsI11
NsI12
NsI13
I15
sI14
NsI15
NssS'feature'
p102
(dp103
I1
g22
sI2
g23
sI3
g24
sI4
g19
sI5
S'5'
p104
sI6
g21
sI7
S'7'
p105
sI8
g18
sI9
S'9'
p106
sI10
S'10'
p107
sI11
S'11'
p108
sI12
S'12'
p109
sI13
g20
sI14
S'14'
p110
sI15
S'15'
p111
ssS'nodes'
p112
crpy2.robjects.robject
_reduce_robjectmixin
p113
(S'X\n\x00\x00\x00\x02\x00\x03\x04\x04\x00\x02\x03\x00\x00\x00\x00\r\x00\x00\x00\x0f\x00\x00\x00\x01\x00\x00\x00\x02\x00\x00\x00\x03\x00\x00\x00\x04\x00\x00\x00\x05\x00\x00\x00\x06\x00\x00\x00\x07\x00\x00\x00\x08\x00\x00\x00\t\x00\x00\x00\n\x00\x00\x00\x0b\x00\x00\x00\x0c\x00\x00\x00\r\x00\x00\x00\x0e\x00\x00\x00\x0f'
p114
I13
crpy2.rinterface._rinterface
unserialize
p115
crpy2.robjects.vectors
IntVector
p116
tp117
Rp118
(dp119
S'ro'
p120
g0
(crpy2.robjects.vectors
VectorOperationsDelegator
p121
g2
Ntp122
Rp123
(dp124
S'_parent'
p125
g118
sbsS'rx'
p126
g0
(crpy2.robjects.vectors
ExtractDelegator
p127
g2
Ntp128
Rp129
(dp130
g125
g118
sbsS'rx2'
p131
g0
(crpy2.robjects.vectors
DoubleExtractDelegator
p132
g2
Ntp133
Rp134
(dp135
g125
g118
sbsbsS'response_var_'
p136
S'DDR1'
p137
sS'edge_cond_'
p138
(dp139
(I1
I2
tp140
(lp141
g32
aS'B'
p142
as(I6
I7
tp143
(lp144
g32
ag33
as(I4
I6
tp145
(lp146
S'B'
p147
as(I4
I5
tp148
(lp149
g32
ag33
as(I1
I13
tp150
(lp151
S'C'
p152
as(I13
I15
tp153
(lp154
S'B'
p155
as(I8
I10
tp156
(lp157
S'B'
p158
as(I3
I11
tp159
(lp160
S'C'
p161
as(I8
I9
tp162
(lp163
g32
ag33
as(I13
I14
tp164
(lp165
g32
ag33
as(I2
I3
tp166
(lp167
g32
ag142
as(I2
I12
tp168
(lp169
S'C'
p170
as(I3
I4
tp171
(lp172
g32
ag142
as(I6
I8
tp173
(lp174
S'B'
p175
assS'class_pred_'
p176
g30
sS'CLASSES'
p177
cnumpy.core.multiarray
_reconstruct
p178
(cnumpy
ndarray
p179
(I0
tp180
S'b'
p181
tp182
Rp183
(I1
(I2
tp184
cnumpy
dtype
p185
(S'O8'
p186
I0
I1
tp187
Rp188
(I3
S'|'
p189
NNNI-1
I-1
I63
tp190
bI00
(lp191
g32
ag33
atp192
bsS'TREE_LEAF'
p193
(dp194
I1
I00
sI2
I00
sI3
I00
sI4
I00
sI5
I01
sI6
I00
sI7
I01
sI8
I00
sI9
I01
sI10
I01
sI11
I01
sI12
I01
sI13
I00
sI14
I01
sI15
I01
ssS'num_pass_'
p195
(dp196
I1
I174
sI2
I143
sI3
I102
sI4
I86
sI5
I18
sI6
I68
sI7
I18
sI8
I50
sI9
I12
sI10
I38
sI11
I16
sI12
I41
sI13
I31
sI14
I18
sI15
I13
ssS'error'
p197
(dp198
I1
F20.689655172413794
sI2
F8.391608391608392
sI3
F11.76470588235294
sI4
F13.953488372093023
sI5
F27.77777777777778
sI6
F10.294117647058822
sI7
F22.22222222222222
sI8
F6.0
sI9
F25.0
sI10
F0.0
sI11
F0.0
sI12
F0.0
sI13
F22.58064516129032
sI14
F38.88888888888889
sI15
F0.0
ssS'pvalue'
p199
g51
sS'class_names'
p200
g183
sS'n_node_samples'
p201
g196
sb.