((lp0
((dp1
I112
S'A'
p2
sI9
S'A'
p3
sI1334
S'A'
p4
sF0.041666666666666664
tp5
a((dp6
I112
g2
sI9
g3
sI1334
S'G'
p7
sF0.041666666666666664
tp8
a((dp9
I112
S'C'
p10
sI9
g3
sI1334
g4
sF0.16666666666666666
tp11
a((dp12
I112
g10
sI9
g3
sI1334
g7
sF0.16666666666666666
tp13
a((dp14
I112
S'T'
p15
sI9
g3
sI1334
g4
sF0.041666666666666664
tp16
a((dp17
I112
g15
sI9
g3
sI1334
g7
sF0.041666666666666664
tp18
a((dp19
I112
S'G'
p20
sI9
g3
sI1334
g4
sF0.25
tp21
a((dp22
I112
g20
sI9
g3
sI1334
g7
sF0.25
tp23
a(lp24
(lp25
((dp26
I110
S'C'
p27
sI7
S'A'
p28
sF0.3333333333333333
tp29
a((dp30
I110
g27
sI7
S'C'
p31
sF0.3333333333333333
tp32
a((dp33
I110
g27
sI7
S'T'
p34
sF0.3333333333333333
tp35
aa(lp36
((dp37
I4824
S'A'
p38
sI17
S'T'
p39
sF0.3333333333333333
tp40
a((dp41
I4824
S'C'
p42
sI17
g39
sF0.3333333333333333
tp43
a((dp44
I4824
S'G'
p45
sI17
g39
sF0.3333333333333333
tp46
aa(lp47
((dp48
I4036
S'A'
p49
sI3604
S'G'
p50
sF0.0
tp51
a((dp52
I4036
S'C'
p53
sI3604
g50
sF0.14285714285714285
tp54
a((dp55
I4036
S'T'
p56
sI3604
g50
sF0.0
tp57
a((dp58
I4036
S'G'
p59
sI3604
g50
sF0.8571428571428571
tp60
aa(lp61
((dp62
I97
S'C'
p63
sI1047
g3
sF0.3333333333333333
tp64
a((dp65
I97
S'T'
p66
sI1047
g3
sF0.3333333333333333
tp67
a((dp68
I97
S'G'
p69
sI1047
g3
sF0.3333333333333333
tp70
aa(lp71
((dp72
I1050
g39
sI767
S'C'
p73
sF0.3333333333333333
tp74
a((dp75
I1050
g39
sI767
S'T'
p76
sF0.3333333333333333
tp77
a((dp78
I1050
g39
sI767
S'G'
p79
sF0.3333333333333333
tp80
aa(lp81
((dp82
I33
S'A'
p83
sI70
S'A'
p84
sI455
g50
sF0.041666666666666664
tp85
a((dp86
I33
S'C'
p87
sI70
g84
sI455
g50
sF0.08333333333333333
tp88
a((dp89
I33
S'T'
p90
sI70
g84
sI455
g50
sF0.14583333333333331
tp91
a((dp92
I33
S'G'
p93
sI70
g84
sI455
g50
sF0.0625
tp94
a((dp95
I33
g83
sI70
S'C'
p96
sI455
g50
sF0.041666666666666664
tp97
a((dp98
I33
g87
sI70
g96
sI455
g50
sF0.08333333333333333
tp99
a((dp100
I33
g90
sI70
g96
sI455
g50
sF0.14583333333333331
tp101
a((dp102
I33
g93
sI70
g96
sI455
g50
sF0.0625
tp103
a((dp104
I33
g83
sI70
S'G'
p105
sI455
g50
sF0.041666666666666664
tp106
a((dp107
I33
g87
sI70
g105
sI455
g50
sF0.08333333333333333
tp108
a((dp109
I33
g90
sI70
g105
sI455
g50
sF0.14583333333333331
tp110
a((dp111
I33
g93
sI70
g105
sI455
g50
sF0.0625
tp112
aa(lp113
((dp114
I313
S'G'
p115
sI37
g27
sF1.0
tp116
aa(lp117
((dp118
I7731
g3
sI6183
S'Ak'
p119
sF0.25
tp120
a((dp121
I7731
g3
sI6183
S'C'
p122
sF0.25
tp123
a((dp124
I7731
g3
sI6183
S'G'
p125
sF0.25
tp126
a((dp127
I7731
g3
sI6183
S'T'
p128
sF0.25
tp129
aa(lp130
((dp131
I5649
S'C'
p132
sI3676
g39
sF0.5
tp133
a((dp134
I5649
S'G'
p135
sI3676
g39
sF0.5
tp136
aa(lp137
((dp138
I44
S'A'
p139
sI278
g3
sF0.75
tp140
a((dp141
I44
S'C'
p142
sI278
g3
sF0.125
tp143
a((dp144
I44
S'T'
p145
sI278
g3
sF0.125
tp146
a((dp147
I44
S'G'
p148
sI278
g3
sF0.0
tp149
aa(lp150
((dp151
I210
g27
sI53
S'A'
p152
sF0.0
tp153
a((dp154
I210
g27
sI53
S'C'
p155
sF0.0
tp156
a((dp157
I210
g27
sI53
S'T'
p158
sF0.8888888888888888
tp159
a((dp160
I210
g27
sI53
S'G'
p161
sF0.1111111111111111
tp162
aa(lp163
((dp164
I6082
g50
sI7738
S'A'
p165
sF0.9166666666666666
tp166
a((dp167
I6082
g50
sI7738
S'C'
p168
sF0.0
tp169
a((dp170
I6082
g50
sI7738
S'T'
p171
sF0.0
tp172
a((dp173
I6082
g50
sI7738
S'G'
p174
sF0.08333333333333333
tp175
aa(lp176
((dp177
I59
g3
sI187
S'A'
p178
sF0.3333333333333333
tp179
a((dp180
I59
g3
sI187
S'C'
p181
sF0.3333333333333333
tp182
a((dp183
I59
g3
sI187
S'T'
p184
sF0.3333333333333333
tp185
aa(lp186
((dp187
I332
S'A'
p188
sI221
g50
sI61
S'C'
p189
sF0.020833333333333332
tp190
a((dp191
I332
S'C'
p192
sI221
g50
sI61
g189
sF0.020833333333333332
tp193
a((dp194
I332
S'T'
p195
sI221
g50
sI61
g189
sF0.08333333333333333
tp196
a((dp197
I332
S'G'
p198
sI221
g50
sI61
g189
sF0.20833333333333331
tp199
a((dp200
I332
g188
sI221
g50
sI61
S'T'
p201
sF0.020833333333333332
tp202
a((dp203
I332
g192
sI221
g50
sI61
g201
sF0.020833333333333332
tp204
a((dp205
I332
g195
sI221
g50
sI61
g201
sF0.08333333333333333
tp206
a((dp207
I332
g198
sI221
g50
sI61
g201
sF0.20833333333333331
tp208
a((dp209
I332
g188
sI221
g50
sI61
S'G'
p210
sF0.020833333333333332
tp211
a((dp212
I332
g192
sI221
g50
sI61
g210
sF0.020833333333333332
tp213
a((dp214
I332
g195
sI221
g50
sI61
g210
sF0.08333333333333333
tp215
a((dp216
I332
g198
sI221
g50
sI61
g210
sF0.20833333333333331
tp217
aa(lp218
((dp219
I5225
g27
sI1091
S'A'
p220
sF0.0625
tp221
a((dp222
I5225
g27
sI1091
S'C'
p223
sF0.4375
tp224
a((dp225
I5225
g27
sI1091
S'T'
p226
sF0.125
tp227
a((dp228
I5225
g27
sI1091
S'G'
p229
sF0.375
tp230
aa(lp231
((dp232
I1607
S'A'
p233
sI4023
g39
sF0.1111111111111111
tp234
a((dp235
I1607
S'C'
p236
sI4023
g39
sF0.2222222222222222
tp237
a((dp238
I1607
S'T'
p239
sI4023
g39
sF0.3333333333333333
tp240
a((dp241
I1607
S'G'
p242
sI4023
g39
sF0.3333333333333333
tp243
aa(lp244
((dp245
I73
S'A'
p246
sI151
g39
sF0.25
tp247
a((dp248
I73
S'C'
p249
sI151
g39
sF0.125
tp250
a((dp251
I73
S'T'
p252
sI151
g39
sF0.5
tp253
a((dp254
I73
S'G'
p255
sI151
g39
sF0.125
tp256
aa(lp257
((dp258
I1721
g27
sI6220
S'A'
p259
sF0.4666666666666667
tp260
a((dp261
I1721
g27
sI6220
S'C'
p262
sF0.06666666666666667
tp263
a((dp264
I1721
g27
sI6220
S'T'
p265
sF0.0
tp266
a((dp267
I1721
g27
sI6220
S'G'
p268
sF0.4666666666666667
tp269
aa(lp270
((dp271
I4041
g3
sI3150
S'A'
p272
sF0.6428571428571429
tp273
a((dp274
I4041
g3
sI3150
S'C'
p275
sF0.21428571428571427
tp276
a((dp277
I4041
g3
sI3150
S'T'
p278
sF0.14285714285714285
tp279
a((dp280
I4041
g3
sI3150
S'G'
p281
sF0.0
tp282
aa(lp283
((dp284
I80
g3
sI215
S'C'
p285
sF0.3333333333333333
tp286
a((dp287
I80
g3
sI215
S'T'
p288
sF0.3333333333333333
tp289
a((dp290
I80
g3
sI215
S'G'
p291
sF0.3333333333333333
tp292
aa(lp293
((dp294
I5305
g39
sI3346
S'C'
p295
sF0.3333333333333333
tp296
a((dp297
I5305
g39
sI3346
S'T'
p298
sF0.3333333333333333
tp299
a((dp300
I5305
g39
sI3346
S'G'
p301
sF0.3333333333333333
tp302
aa(lp303
((dp304
I5722
g27
sI6460
S'C'
p305
sF0.5
tp306
a((dp307
I5722
g27
sI6460
S'T'
p308
sF0.5
tp309
aa(lp310
((dp311
I92
g3
sI101
S'C'
p312
sF1.0
tp313
aa(lp314
((dp315
I454
S'G'
p316
sI1118
g3
sF1.0
tp317
aa(lp318
((dp319
I867
g3
sI7267
S'A'
p320
sF0.9
tp321
a((dp322
I867
g3
sI7267
S'C'
p323
sF0.0
tp324
a((dp325
I867
g3
sI7267
S'T'
p326
sF0.1
tp327
a((dp328
I867
g3
sI7267
S'G'
p329
sF0.0
tp330
aa(lp331
((dp332
I4882
g50
sI324
S'A'
p333
sF1.0
tp334
aa(lp335
((dp336
I3601
g3
sI4754
S'T'
p337
sF0.5
tp338
a((dp339
I3601
g3
sI4754
S'G'
p340
sF0.5
tp341
aa(lp342
((dp343
I1657
S'C'
p344
sI254
g3
sF0.3333333333333333
tp345
a((dp346
I1657
S'T'
p347
sI254
g3
sF0.3333333333333333
tp348
a((dp349
I1657
S'G'
p350
sI254
g3
sF0.3333333333333333
tp351
aa(lp352
((dp353
I2176
g39
sI6833
S'A'
p354
sF0.3333333333333333
tp355
a((dp356
I2176
g39
sI6833
S'C'
p357
sF0.3333333333333333
tp358
a((dp359
I2176
g39
sI6833
S'G'
p360
sF0.3333333333333333
tp361
aa(lp362
((dp363
I129
g50
sI4863
S'A'
p364
sF1.0
tp365
aa(lp366
((dp367
I3456
S'C'
p368
sI7299
g50
sF0.3333333333333333
tp369
a((dp370
I3456
S'T'
p371
sI7299
g50
sF0.3333333333333333
tp372
a((dp373
I3456
S'G'
p374
sI7299
g50
sF0.3333333333333333
tp375
aa(lp376
((dp377
I172
g39
sI141
S'A'
p378
sF0.0
tp379
a((dp380
I172
g39
sI141
S'C'
p381
sF0.3333333333333333
tp382
a((dp383
I172
g39
sI141
S'T'
p384
sF0.2222222222222222
tp385
a((dp386
I172
g39
sI141
S'G'
p387
sF0.4444444444444444
tp388
aa(lp389
((dp390
I200
g50
sI147
S'A'
p391
sF0.3333333333333333
tp392
a((dp393
I200
g50
sI147
S'C'
p394
sF0.3333333333333333
tp395
a((dp396
I200
g50
sI147
S'G'
p397
sF0.3333333333333333
tp398
aa(lp399
((dp400
I5193
S'A'
p401
sI4762
g27
sF0.23076923076923078
tp402
a((dp403
I5193
S'C'
p404
sI4762
g27
sF0.07692307692307693
tp405
a((dp406
I5193
S'T'
p407
sI4762
g27
sF0.3076923076923077
tp408
a((dp409
I5193
S'G'
p410
sI4762
g27
sF0.38461538461538464
tp411
aa(lp412
((dp413
I189
S'A'
p414
sI158
g3
sF0.15384615384615385
tp415
a((dp416
I189
S'C'
p417
sI158
g3
sF0.15384615384615385
tp418
a((dp419
I189
S'T'
p420
sI158
g3
sF0.46153846153846156
tp421
a((dp422
I189
S'G'
p423
sI158
g3
sF0.23076923076923078
tp424
aa(lp425
((dp426
I4393
g3
sI3246
S'C'
p427
sF0.3333333333333333
tp428
a((dp429
I4393
g3
sI3246
S'T'
p430
sF0.3333333333333333
tp431
a((dp432
I4393
g3
sI3246
S'G'
p433
sF0.3333333333333333
tp434
aa(lp435
((dp436
I5820
S'A'
p437
sI5607
g3
sF0.0
tp438
a((dp439
I5820
S'C'
p440
sI5607
g3
sF0.5
tp441
a((dp442
I5820
S'T'
p443
sI5607
g3
sF0.5
tp444
a((dp445
I5820
S'G'
p446
sI5607
g3
sF0.0
tp447
aa(lp448
((dp449
I1745
S'C'
p450
sI3970
g50
sF0.3333333333333333
tp451
a((dp452
I1745
S'T'
p453
sI3970
g50
sF0.3333333333333333
tp454
a((dp455
I1745
S'G'
p456
sI3970
g50
sF0.3333333333333333
tp457
aa(lp458
((dp459
I5332
S'A'
p460
sI789
g50
sF0.5
tp461
a((dp462
I5332
S'G'
p463
sI789
g50
sF0.5
tp464
aa(lp465
((dp466
I6882
S'A'
p467
sI6021
g50
sF0.5
tp468
a((dp469
I6882
S'G'
p470
sI6021
g50
sF0.5
tp471
aa(lp472
((dp473
I5863
S'A'
p474
sI3887
g39
sF0.6153846153846154
tp475
a((dp476
I5863
S'C'
p477
sI3887
g39
sF0.07692307692307693
tp478
a((dp479
I5863
S'T'
p480
sI3887
g39
sF0.0
tp481
a((dp482
I5863
S'G'
p483
sI3887
g39
sF0.3076923076923077
tp484
aa(lp485
((dp486
I773
S'T'
p487
sI1518
g27
sI5359
S'C'
p488
sF0.16666666666666666
tp489
a((dp490
I773
g487
sI1518
g27
sI5359
S'T'
p491
sF0.16666666666666666
tp492
a((dp493
I773
g487
sI1518
g27
sI5359
S'G'
p494
sF0.16666666666666666
tp495
a((dp496
I773
S'G'
p497
sI1518
g27
sI5359
g488
sF0.16666666666666666
tp498
a((dp499
I773
g497
sI1518
g27
sI5359
g491
sF0.16666666666666666
tp500
a((dp501
I773
g497
sI1518
g27
sI5359
g494
sF0.16666666666666666
tp502
aa(lp503
((dp504
I4867
S'A'
p505
sI7156
g50
sF0.0
tp506
a((dp507
I4867
S'C'
p508
sI7156
g50
sF0.3
tp509
a((dp510
I4867
S'T'
p511
sI7156
g50
sF0.4
tp512
a((dp513
I4867
S'G'
p514
sI7156
g50
sF0.3
tp515
aa(lp516
((dp517
I3913
S'A'
p518
sI2388
g50
sF0.2
tp519
a((dp520
I3913
S'C'
p521
sI2388
g50
sF0.06666666666666667
tp522
a((dp523
I3913
S'T'
p524
sI2388
g50
sF0.4666666666666667
tp525
a((dp526
I3913
S'G'
p527
sI2388
g50
sF0.26666666666666666
tp528
aa(lp529
((dp530
I841
S'A'
p531
sI5519
g3
sF1.0
tp532
aa(lp533
((dp534
I952
S'C'
p535
sI1082
g3
sF0.3333333333333333
tp536
a((dp537
I952
S'T'
p538
sI1082
g3
sF0.3333333333333333
tp539
a((dp540
I952
S'G'
p541
sI1082
g3
sF0.3333333333333333
tp542
aa(lp543
((dp544
I7065
S'C'
p545
sI2030
g50
sF0.3333333333333333
tp546
a((dp547
I7065
S'T'
p548
sI2030
g50
sF0.3333333333333333
tp549
a((dp550
I7065
S'G'
p551
sI2030
g50
sF0.3333333333333333
tp552
aatp553
.