((lp0
((dp1
I112
S'A'
p2
sI9
g2
sI1334
S'A'
p3
sF0.013888888888888888
tp4
a((dp5
I112
g2
sI9
S'C'
p6
sI1334
g3
sF0.013888888888888888
tp7
a((dp8
I112
g2
sI9
S'G'
p9
sI1334
g3
sF0.013888888888888888
tp10
a((dp11
I112
g2
sI9
g2
sI1334
S'G'
p12
sF0.013888888888888888
tp13
a((dp14
I112
g2
sI9
g6
sI1334
g12
sF0.013888888888888888
tp15
a((dp16
I112
g2
sI9
g9
sI1334
g12
sF0.013888888888888888
tp17
a((dp18
I112
g6
sI9
g2
sI1334
g3
sF0.05555555555555555
tp19
a((dp20
I112
g6
sI9
g6
sI1334
g3
sF0.05555555555555555
tp21
a((dp22
I112
g6
sI9
g9
sI1334
g3
sF0.05555555555555555
tp23
a((dp24
I112
g6
sI9
g2
sI1334
g12
sF0.05555555555555555
tp25
a((dp26
I112
g6
sI9
g6
sI1334
g12
sF0.05555555555555555
tp27
a((dp28
I112
g6
sI9
g9
sI1334
g12
sF0.05555555555555555
tp29
a((dp30
I112
S'T'
p31
sI9
g2
sI1334
g3
sF0.013888888888888888
tp32
a((dp33
I112
g31
sI9
g6
sI1334
g3
sF0.013888888888888888
tp34
a((dp35
I112
g31
sI9
g9
sI1334
g3
sF0.013888888888888888
tp36
a((dp37
I112
g31
sI9
g2
sI1334
g12
sF0.013888888888888888
tp38
a((dp39
I112
g31
sI9
g6
sI1334
g12
sF0.013888888888888888
tp40
a((dp41
I112
g31
sI9
g9
sI1334
g12
sF0.013888888888888888
tp42
a((dp43
I112
g9
sI9
g2
sI1334
g3
sF0.08333333333333333
tp44
a((dp45
I112
g9
sI9
g6
sI1334
g3
sF0.08333333333333333
tp46
a((dp47
I112
g9
sI9
g9
sI1334
g3
sF0.08333333333333333
tp48
a((dp49
I112
g9
sI9
g2
sI1334
g12
sF0.08333333333333333
tp50
a((dp51
I112
g9
sI9
g6
sI1334
g12
sF0.08333333333333333
tp52
a((dp53
I112
g9
sI9
g9
sI1334
g12
sF0.08333333333333333
tp54
a(lp55
(lp56
((dp57
I110
S'A'
p58
sI7
g58
sF0.0
tp59
a((dp60
I110
S'C'
p61
sI7
g58
sF0.05555555555555555
tp62
a((dp63
I110
S'T'
p64
sI7
g58
sF0.16666666666666666
tp65
a((dp66
I110
S'G'
p67
sI7
g58
sF0.1111111111111111
tp68
a((dp69
I110
g58
sI7
g61
sF0.0
tp70
a((dp71
I110
g61
sI7
g61
sF0.05555555555555555
tp72
a((dp73
I110
g64
sI7
g61
sF0.16666666666666666
tp74
a((dp75
I110
g67
sI7
g61
sF0.1111111111111111
tp76
a((dp77
I110
g58
sI7
g64
sF0.0
tp78
a((dp79
I110
g61
sI7
g64
sF0.05555555555555555
tp80
a((dp81
I110
g64
sI7
g64
sF0.16666666666666666
tp82
a((dp83
I110
g67
sI7
g64
sF0.1111111111111111
tp84
aa(lp85
((dp86
I4824
S'A'
p87
sI17
g87
sF0.020833333333333332
tp88
a((dp89
I4824
S'C'
p90
sI17
g87
sF0.020833333333333332
tp91
a((dp92
I4824
S'G'
p93
sI17
g87
sF0.020833333333333332
tp94
a((dp95
I4824
g87
sI17
g90
sF0.14583333333333331
tp96
a((dp97
I4824
g90
sI17
g90
sF0.14583333333333331
tp98
a((dp99
I4824
g93
sI17
g90
sF0.14583333333333331
tp100
a((dp101
I4824
g87
sI17
S'T'
p102
sF0.16666666666666666
tp103
a((dp104
I4824
g90
sI17
g102
sF0.16666666666666666
tp105
a((dp106
I4824
g93
sI17
g102
sF0.16666666666666666
tp107
a((dp108
I4824
g87
sI17
g93
sF0.0
tp109
a((dp110
I4824
g90
sI17
g93
sF0.0
tp111
a((dp112
I4824
g93
sI17
g93
sF0.0
tp113
aa(lp114
((dp115
I4036
S'A'
p116
sI3604
g116
sF0.28125
tp117
a((dp118
I4036
S'C'
p119
sI3604
g116
sF0.15625
tp120
a((dp121
I4036
S'T'
p122
sI3604
g116
sF0.0625
tp123
a((dp124
I4036
S'G'
p125
sI3604
g116
sF0.0
tp126
a((dp127
I4036
g116
sI3604
g122
sF0.28125
tp128
a((dp129
I4036
g119
sI3604
g122
sF0.15625
tp130
a((dp131
I4036
g122
sI3604
g122
sF0.0625
tp132
a((dp133
I4036
g125
sI3604
g122
sF0.0
tp134
aa(lp135
((dp136
I97
S'C'
p137
sI1047
S'A'
p138
sF0.1282051282051282
tp139
a((dp140
I97
g137
sI1047
g137
sF0.05128205128205128
tp141
a((dp142
I97
g137
sI1047
S'T'
p143
sF0.05128205128205128
tp144
a((dp145
I97
g137
sI1047
S'G'
p146
sF0.10256410256410256
tp147
a((dp148
I97
g143
sI1047
g138
sF0.1282051282051282
tp149
a((dp150
I97
g143
sI1047
g137
sF0.05128205128205128
tp151
a((dp152
I97
g143
sI1047
g143
sF0.05128205128205128
tp153
a((dp154
I97
g143
sI1047
g146
sF0.10256410256410256
tp155
a((dp156
I97
g146
sI1047
g138
sF0.1282051282051282
tp157
a((dp158
I97
g146
sI1047
g137
sF0.05128205128205128
tp159
a((dp160
I97
g146
sI1047
g143
sF0.05128205128205128
tp161
a((dp162
I97
g146
sI1047
g146
sF0.10256410256410256
tp163
aa(lp164
((dp165
I1050
S'A'
p166
sI767
S'C'
p167
sF0.1111111111111111
tp168
a((dp169
I1050
S'C'
p170
sI767
g167
sF0.1111111111111111
tp171
a((dp172
I1050
S'G'
p173
sI767
g167
sF0.1111111111111111
tp174
a((dp175
I1050
g166
sI767
S'T'
p176
sF0.1111111111111111
tp177
a((dp178
I1050
g170
sI767
g176
sF0.1111111111111111
tp179
a((dp180
I1050
g173
sI767
g176
sF0.1111111111111111
tp181
a((dp182
I1050
g166
sI767
S'G'
p183
sF0.1111111111111111
tp184
a((dp185
I1050
g170
sI767
g183
sF0.1111111111111111
tp186
a((dp187
I1050
g173
sI767
g183
sF0.1111111111111111
tp188
aa(lp189
((dp190
I33
S'A'
p191
sI70
g191
sI455
S'A'
p192
sF0.008333333333333333
tp193
a((dp194
I33
S'C'
p195
sI70
g191
sI455
g192
sF0.016666666666666666
tp196
a((dp197
I33
S'T'
p198
sI70
g191
sI455
g192
sF0.029166666666666667
tp199
a((dp200
I33
S'G'
p201
sI70
g191
sI455
g192
sF0.0125
tp202
a((dp203
I33
g191
sI70
g191
sI455
S'C'
p204
sF0.008333333333333333
tp205
a((dp206
I33
g195
sI70
g191
sI455
g204
sF0.016666666666666666
tp207
a((dp208
I33
g198
sI70
g191
sI455
g204
sF0.029166666666666667
tp209
a((dp210
I33
g201
sI70
g191
sI455
g204
sF0.0125
tp211
a((dp212
I33
g191
sI70
g191
sI455
S'T'
p213
sF0.0027777777777777775
tp214
a((dp215
I33
g195
sI70
g191
sI455
g213
sF0.005555555555555555
tp216
a((dp217
I33
g198
sI70
g191
sI455
g213
sF0.00972222222222222
tp218
a((dp219
I33
g201
sI70
g191
sI455
g213
sF0.004166666666666666
tp220
a((dp221
I33
g191
sI70
g191
sI455
S'G'
p222
sF0.02222222222222222
tp223
a((dp224
I33
g195
sI70
g191
sI455
g222
sF0.04444444444444444
tp225
a((dp226
I33
g198
sI70
g191
sI455
g222
sF0.07777777777777777
tp227
a((dp228
I33
g201
sI70
g191
sI455
g222
sF0.033333333333333326
tp229
a((dp230
I33
g191
sI70
g198
sI455
g192
sF0.008333333333333333
tp231
a((dp232
I33
g195
sI70
g198
sI455
g192
sF0.016666666666666666
tp233
a((dp234
I33
g198
sI70
g198
sI455
g192
sF0.029166666666666667
tp235
a((dp236
I33
g201
sI70
g198
sI455
g192
sF0.0125
tp237
a((dp238
I33
g191
sI70
g198
sI455
g204
sF0.008333333333333333
tp239
a((dp240
I33
g195
sI70
g198
sI455
g204
sF0.016666666666666666
tp241
a((dp242
I33
g198
sI70
g198
sI455
g204
sF0.029166666666666667
tp243
a((dp244
I33
g201
sI70
g198
sI455
g204
sF0.0125
tp245
a((dp246
I33
g191
sI70
g198
sI455
g213
sF0.0027777777777777775
tp247
a((dp248
I33
g195
sI70
g198
sI455
g213
sF0.005555555555555555
tp249
a((dp250
I33
g198
sI70
g198
sI455
g213
sF0.00972222222222222
tp251
a((dp252
I33
g201
sI70
g198
sI455
g213
sF0.004166666666666666
tp253
a((dp254
I33
g191
sI70
g198
sI455
g222
sF0.02222222222222222
tp255
a((dp256
I33
g195
sI70
g198
sI455
g222
sF0.04444444444444444
tp257
a((dp258
I33
g198
sI70
g198
sI455
g222
sF0.07777777777777777
tp259
a((dp260
I33
g201
sI70
g198
sI455
g222
sF0.033333333333333326
tp261
a((dp262
I33
g191
sI70
g201
sI455
g192
sF0.008333333333333333
tp263
a((dp264
I33
g195
sI70
g201
sI455
g192
sF0.016666666666666666
tp265
a((dp266
I33
g198
sI70
g201
sI455
g192
sF0.029166666666666667
tp267
a((dp268
I33
g201
sI70
g201
sI455
g192
sF0.0125
tp269
a((dp270
I33
g191
sI70
g201
sI455
g204
sF0.008333333333333333
tp271
a((dp272
I33
g195
sI70
g201
sI455
g204
sF0.016666666666666666
tp273
a((dp274
I33
g198
sI70
g201
sI455
g204
sF0.029166666666666667
tp275
a((dp276
I33
g201
sI70
g201
sI455
g204
sF0.0125
tp277
a((dp278
I33
g191
sI70
g201
sI455
g213
sF0.0027777777777777775
tp279
a((dp280
I33
g195
sI70
g201
sI455
g213
sF0.005555555555555555
tp281
a((dp282
I33
g198
sI70
g201
sI455
g213
sF0.00972222222222222
tp283
a((dp284
I33
g201
sI70
g201
sI455
g213
sF0.004166666666666666
tp285
a((dp286
I33
g191
sI70
g201
sI455
g222
sF0.02222222222222222
tp287
a((dp288
I33
g195
sI70
g201
sI455
g222
sF0.04444444444444444
tp289
a((dp290
I33
g198
sI70
g201
sI455
g222
sF0.07777777777777777
tp291
a((dp292
I33
g201
sI70
g201
sI455
g222
sF0.033333333333333326
tp293
aa(lp294
((dp295
I313
S'G'
p296
sI37
S'A'
p297
sF0.0
tp298
a((dp299
I313
g296
sI37
S'C'
p300
sF0.9090909090909091
tp301
a((dp302
I313
g296
sI37
S'T'
p303
sF0.09090909090909091
tp304
a((dp305
I313
g296
sI37
S'G'
p306
sF0.0
tp307
aa(lp308
((dp309
I7731
S'A'
p310
sI6183
S'Ak'
p311
sF0.15
tp312
a((dp313
I7731
g310
sI6183
S'C'
p314
sF0.15
tp315
a((dp316
I7731
g310
sI6183
S'G'
p317
sF0.15
tp318
a((dp319
I7731
g310
sI6183
S'T'
p320
sF0.15
tp321
a((dp322
I7731
g314
sI6183
g311
sF0.03333333333333333
tp323
a((dp324
I7731
g314
sI6183
g314
sF0.03333333333333333
tp325
a((dp326
I7731
g314
sI6183
g317
sF0.03333333333333333
tp327
a((dp328
I7731
g314
sI6183
g320
sF0.03333333333333333
tp329
a((dp330
I7731
S'Gm'
p331
sI6183
g311
sF0.016666666666666666
tp332
a((dp333
I7731
g331
sI6183
g314
sF0.016666666666666666
tp334
a((dp335
I7731
g331
sI6183
g317
sF0.016666666666666666
tp336
a((dp337
I7731
g331
sI6183
g320
sF0.016666666666666666
tp338
a((dp339
I7731
g317
sI6183
g311
sF0.03333333333333333
tp340
a((dp341
I7731
g317
sI6183
g314
sF0.03333333333333333
tp342
a((dp343
I7731
g317
sI6183
g317
sF0.03333333333333333
tp344
a((dp345
I7731
g317
sI6183
g320
sF0.03333333333333333
tp346
a((dp347
I7731
g320
sI6183
g311
sF0.016666666666666666
tp348
a((dp349
I7731
g320
sI6183
g314
sF0.016666666666666666
tp350
a((dp351
I7731
g320
sI6183
g317
sF0.016666666666666666
tp352
a((dp353
I7731
g320
sI6183
g320
sF0.016666666666666666
tp354
aa(lp355
((dp356
I5649
S'C'
p357
sI3676
S'C'
p358
sF0.16666666666666666
tp359
a((dp360
I5649
g357
sI3676
S'T'
p361
sF0.16666666666666666
tp362
a((dp363
I5649
g357
sI3676
S'G'
p364
sF0.16666666666666666
tp365
a((dp366
I5649
S'G'
p367
sI3676
g358
sF0.16666666666666666
tp368
a((dp369
I5649
g367
sI3676
g361
sF0.16666666666666666
tp370
a((dp371
I5649
g367
sI3676
g364
sF0.16666666666666666
tp372
aa(lp373
((dp374
I44
S'A'
p375
sI278
S'C'
p376
sF0.375
tp377
a((dp378
I44
g375
sI278
S'G'
p379
sF0.375
tp380
a((dp381
I44
g376
sI278
g376
sF0.0625
tp382
a((dp383
I44
g376
sI278
g379
sF0.0625
tp384
a((dp385
I44
S'T'
p386
sI278
g376
sF0.0625
tp387
a((dp388
I44
g386
sI278
g379
sF0.0625
tp389
a((dp390
I44
g379
sI278
g376
sF0.0
tp391
a((dp392
I44
g379
sI278
g379
sF0.0
tp393
aa(lp394
((dp395
I210
S'A'
p396
sI53
g396
sF0.0
tp397
a((dp398
I210
S'T'
p399
sI53
g396
sF0.0
tp400
a((dp401
I210
S'G'
p402
sI53
g396
sF0.0
tp403
a((dp404
I210
g396
sI53
S'C'
p405
sF0.0
tp406
a((dp407
I210
g399
sI53
g405
sF0.0
tp408
a((dp409
I210
g402
sI53
g405
sF0.0
tp410
a((dp411
I210
g396
sI53
g399
sF0.2962962962962963
tp412
a((dp413
I210
g399
sI53
g399
sF0.2962962962962963
tp414
a((dp415
I210
g402
sI53
g399
sF0.2962962962962963
tp416
a((dp417
I210
g396
sI53
g402
sF0.037037037037037035
tp418
a((dp419
I210
g399
sI53
g402
sF0.037037037037037035
tp420
a((dp421
I210
g402
sI53
g402
sF0.037037037037037035
tp422
aa(lp423
((dp424
I7738
S'A'
p425
sI6082
g425
sF0.0
tp426
a((dp427
I7738
S'C'
p428
sI6082
g425
sF0.045454545454545456
tp429
a((dp430
I7738
S'T'
p431
sI6082
g425
sF0.13636363636363635
tp432
a((dp433
I7738
S'G'
p434
sI6082
g425
sF0.3181818181818182
tp435
a((dp436
I7738
g425
sI6082
g428
sF0.0
tp437
a((dp438
I7738
g428
sI6082
g428
sF0.045454545454545456
tp439
a((dp440
I7738
g431
sI6082
g428
sF0.13636363636363635
tp441
a((dp442
I7738
g434
sI6082
g428
sF0.3181818181818182
tp443
aa(lp444
((dp445
I59
S'A'
p446
sI187
g446
sF0.16666666666666666
tp447
a((dp448
I59
S'C'
p449
sI187
g446
sF0.0
tp450
a((dp451
I59
S'T'
p452
sI187
g446
sF0.0625
tp453
a((dp454
I59
S'G'
p455
sI187
g446
sF0.10416666666666666
tp456
a((dp457
I59
g446
sI187
g449
sF0.16666666666666666
tp458
a((dp459
I59
g449
sI187
g449
sF0.0
tp460
a((dp461
I59
g452
sI187
g449
sF0.0625
tp462
a((dp463
I59
g455
sI187
g449
sF0.10416666666666666
tp464
a((dp465
I59
g446
sI187
g452
sF0.16666666666666666
tp466
a((dp467
I59
g449
sI187
g452
sF0.0
tp468
a((dp469
I59
g452
sI187
g452
sF0.0625
tp470
a((dp471
I59
g455
sI187
g452
sF0.10416666666666666
tp472
aa(lp473
((dp474
I332
S'A'
p475
sI61
S'C'
p476
sI221
S'A'
p477
sF0.0
tp478
a((dp479
I332
g475
sI61
S'T'
p480
sI221
g477
sF0.0
tp481
a((dp482
I332
g475
sI61
S'G'
p483
sI221
g477
sF0.0
tp484
a((dp485
I332
g475
sI61
g476
sI221
S'C'
p486
sF0.0
tp487
a((dp488
I332
g475
sI61
g480
sI221
g486
sF0.0
tp489
a((dp490
I332
g475
sI61
g483
sI221
g486
sF0.0
tp491
a((dp492
I332
g475
sI61
g476
sI221
S'T'
p493
sF0.0
tp494
a((dp495
I332
g475
sI61
g480
sI221
g493
sF0.0
tp496
a((dp497
I332
g475
sI61
g483
sI221
g493
sF0.0
tp498
a((dp499
I332
g475
sI61
g476
sI221
S'G'
p500
sF0.0
tp501
a((dp502
I332
g475
sI61
g480
sI221
g500
sF0.0
tp503
a((dp504
I332
g475
sI61
g483
sI221
g500
sF0.0
tp505
a((dp506
I332
g476
sI61
g476
sI221
g477
sF0.0
tp507
a((dp508
I332
g476
sI61
g480
sI221
g477
sF0.0
tp509
a((dp510
I332
g476
sI61
g483
sI221
g477
sF0.0
tp511
a((dp512
I332
g476
sI61
g476
sI221
g486
sF0.3333333333333333
tp513
a((dp514
I332
g476
sI61
g480
sI221
g486
sF0.3333333333333333
tp515
a((dp516
I332
g476
sI61
g483
sI221
g486
sF0.3333333333333333
tp517
a((dp518
I332
g476
sI61
g476
sI221
g493
sF0.0
tp519
a((dp520
I332
g476
sI61
g480
sI221
g493
sF0.0
tp521
a((dp522
I332
g476
sI61
g483
sI221
g493
sF0.0
tp523
a((dp524
I332
g476
sI61
g476
sI221
g500
sF0.0
tp525
a((dp526
I332
g476
sI61
g480
sI221
g500
sF0.0
tp527
a((dp528
I332
g476
sI61
g483
sI221
g500
sF0.0
tp529
a((dp530
I332
g480
sI61
g476
sI221
g477
sF0.0
tp531
a((dp532
I332
g480
sI61
g480
sI221
g477
sF0.0
tp533
a((dp534
I332
g480
sI61
g483
sI221
g477
sF0.0
tp535
a((dp536
I332
g480
sI61
g476
sI221
g486
sF0.0
tp537
a((dp538
I332
g480
sI61
g480
sI221
g486
sF0.0
tp539
a((dp540
I332
g480
sI61
g483
sI221
g486
sF0.0
tp541
a((dp542
I332
g480
sI61
g476
sI221
g493
sF0.0
tp543
a((dp544
I332
g480
sI61
g480
sI221
g493
sF0.0
tp545
a((dp546
I332
g480
sI61
g483
sI221
g493
sF0.0
tp547
a((dp548
I332
g480
sI61
g476
sI221
g500
sF0.0
tp549
a((dp550
I332
g480
sI61
g480
sI221
g500
sF0.0
tp551
a((dp552
I332
g480
sI61
g483
sI221
g500
sF0.0
tp553
a((dp554
I332
g483
sI61
g476
sI221
g477
sF0.0
tp555
a((dp556
I332
g483
sI61
g480
sI221
g477
sF0.0
tp557
a((dp558
I332
g483
sI61
g483
sI221
g477
sF0.0
tp559
a((dp560
I332
g483
sI61
g476
sI221
g486
sF0.0
tp561
a((dp562
I332
g483
sI61
g480
sI221
g486
sF0.0
tp563
a((dp564
I332
g483
sI61
g483
sI221
g486
sF0.0
tp565
a((dp566
I332
g483
sI61
g476
sI221
g493
sF0.0
tp567
a((dp568
I332
g483
sI61
g480
sI221
g493
sF0.0
tp569
a((dp570
I332
g483
sI61
g483
sI221
g493
sF0.0
tp571
a((dp572
I332
g483
sI61
g476
sI221
g500
sF0.0
tp573
a((dp574
I332
g483
sI61
g480
sI221
g500
sF0.0
tp575
a((dp576
I332
g483
sI61
g483
sI221
g500
sF0.0
tp577
aa(lp578
((dp579
I5225
S'A'
p580
sI1091
g580
sF0.020833333333333332
tp581
a((dp582
I5225
S'C'
p583
sI1091
g580
sF0.020833333333333332
tp584
a((dp585
I5225
S'G'
p586
sI1091
g580
sF0.020833333333333332
tp587
a((dp588
I5225
g580
sI1091
g583
sF0.14583333333333331
tp589
a((dp590
I5225
g583
sI1091
g583
sF0.14583333333333331
tp591
a((dp592
I5225
g586
sI1091
g583
sF0.14583333333333331
tp593
a((dp594
I5225
g580
sI1091
S'T'
p595
sF0.041666666666666664
tp596
a((dp597
I5225
g583
sI1091
g595
sF0.041666666666666664
tp598
a((dp599
I5225
g586
sI1091
g595
sF0.041666666666666664
tp600
a((dp601
I5225
g580
sI1091
g586
sF0.125
tp602
a((dp603
I5225
g583
sI1091
g586
sF0.125
tp604
a((dp605
I5225
g586
sI1091
g586
sF0.125
tp606
aa(lp607
((dp608
I1607
S'A'
p609
sI4023
S'C'
p610
sF0.037037037037037035
tp611
a((dp612
I1607
g610
sI4023
g610
sF0.07407407407407407
tp613
a((dp614
I1607
S'T'
p615
sI4023
g610
sF0.1111111111111111
tp616
a((dp617
I1607
S'G'
p618
sI4023
g610
sF0.1111111111111111
tp619
a((dp620
I1607
g609
sI4023
g615
sF0.037037037037037035
tp621
a((dp622
I1607
g610
sI4023
g615
sF0.07407407407407407
tp623
a((dp624
I1607
g615
sI4023
g615
sF0.1111111111111111
tp625
a((dp626
I1607
g618
sI4023
g615
sF0.1111111111111111
tp627
a((dp628
I1607
g609
sI4023
g618
sF0.037037037037037035
tp629
a((dp630
I1607
g610
sI4023
g618
sF0.07407407407407407
tp631
a((dp632
I1607
g615
sI4023
g618
sF0.1111111111111111
tp633
a((dp634
I1607
g618
sI4023
g618
sF0.1111111111111111
tp635
aa(lp636
((dp637
I73
S'A'
p638
sI151
S'C'
p639
sF0.08333333333333333
tp640
a((dp641
I73
g638
sI151
S'T'
p642
sF0.08333333333333333
tp643
a((dp644
I73
g638
sI151
S'G'
p645
sF0.08333333333333333
tp646
a((dp647
I73
g639
sI151
g639
sF0.041666666666666664
tp648
a((dp649
I73
g639
sI151
g642
sF0.041666666666666664
tp650
a((dp651
I73
g639
sI151
g645
sF0.041666666666666664
tp652
a((dp653
I73
g642
sI151
g639
sF0.16666666666666666
tp654
a((dp655
I73
g642
sI151
g642
sF0.16666666666666666
tp656
a((dp657
I73
g642
sI151
g645
sF0.16666666666666666
tp658
a((dp659
I73
g645
sI151
g639
sF0.041666666666666664
tp660
a((dp661
I73
g645
sI151
g642
sF0.041666666666666664
tp662
a((dp663
I73
g645
sI151
g645
sF0.041666666666666664
tp664
aa(lp665
((dp666
I1721
S'A'
p667
sI6220
g667
sF0.15555555555555556
tp668
a((dp669
I1721
g667
sI6220
S'C'
p670
sF0.02222222222222222
tp671
a((dp672
I1721
g667
sI6220
S'T'
p673
sF0.0
tp674
a((dp675
I1721
g667
sI6220
S'G'
p676
sF0.15555555555555556
tp677
a((dp678
I1721
g670
sI6220
g667
sF0.15555555555555556
tp679
a((dp680
I1721
g670
sI6220
g670
sF0.02222222222222222
tp681
a((dp682
I1721
g670
sI6220
g673
sF0.0
tp683
a((dp684
I1721
g670
sI6220
g676
sF0.15555555555555556
tp685
a((dp686
I1721
S'Tr'
p687
sI6220
g667
sF0.15555555555555556
tp688
a((dp689
I1721
g687
sI6220
g670
sF0.02222222222222222
tp690
a((dp691
I1721
g687
sI6220
g673
sF0.0
tp692
a((dp693
I1721
g687
sI6220
g676
sF0.15555555555555556
tp694
aa(lp695
((dp696
I4041
S'T'
p697
sI3150
S'A'
p698
sF0.32142857142857145
tp699
a((dp700
I4041
S'G'
p701
sI3150
g698
sF0.32142857142857145
tp702
a((dp703
I4041
g697
sI3150
S'C'
p704
sF0.10714285714285714
tp705
a((dp706
I4041
g701
sI3150
g704
sF0.10714285714285714
tp707
a((dp708
I4041
g697
sI3150
g697
sF0.07142857142857142
tp709
a((dp710
I4041
g701
sI3150
g697
sF0.07142857142857142
tp711
a((dp712
I4041
g697
sI3150
g701
sF0.0
tp713
a((dp714
I4041
g701
sI3150
g701
sF0.0
tp715
aa(lp716
((dp717
I80
S'A'
p718
sI215
S'C'
p719
sF0.11904761904761904
tp720
a((dp721
I80
g719
sI215
g719
sF0.11904761904761904
tp722
a((dp723
I80
S'T'
p724
sI215
g719
sF0.023809523809523808
tp725
a((dp726
I80
S'G'
p727
sI215
g719
sF0.07142857142857142
tp728
a((dp729
I80
g718
sI215
g724
sF0.11904761904761904
tp730
a((dp731
I80
g719
sI215
g724
sF0.11904761904761904
tp732
a((dp733
I80
g724
sI215
g724
sF0.023809523809523808
tp734
a((dp735
I80
g727
sI215
g724
sF0.07142857142857142
tp736
a((dp737
I80
g718
sI215
g727
sF0.11904761904761904
tp738
a((dp739
I80
g719
sI215
g727
sF0.11904761904761904
tp740
a((dp741
I80
g724
sI215
g727
sF0.023809523809523808
tp742
a((dp743
I80
g727
sI215
g727
sF0.07142857142857142
tp744
aa(lp745
((dp746
I5305
S'C'
p747
sI3346
S'C'
p748
sF0.1111111111111111
tp749
a((dp750
I5305
S'T'
p751
sI3346
g748
sF0.1111111111111111
tp752
a((dp753
I5305
S'G'
p754
sI3346
g748
sF0.1111111111111111
tp755
a((dp756
I5305
g747
sI3346
S'T'
p757
sF0.1111111111111111
tp758
a((dp759
I5305
g751
sI3346
g757
sF0.1111111111111111
tp760
a((dp761
I5305
g754
sI3346
g757
sF0.1111111111111111
tp762
a((dp763
I5305
g747
sI3346
S'G'
p764
sF0.1111111111111111
tp765
a((dp766
I5305
g751
sI3346
g764
sF0.1111111111111111
tp767
a((dp768
I5305
g754
sI3346
g764
sF0.1111111111111111
tp769
aa(lp770
((dp771
I5722
S'A'
p772
sI6460
S'C'
p773
sF0.07142857142857142
tp774
a((dp775
I5722
g772
sI6460
S'T'
p776
sF0.07142857142857142
tp777
a((dp778
I5722
g773
sI6460
g773
sF0.2857142857142857
tp779
a((dp780
I5722
g773
sI6460
g776
sF0.2857142857142857
tp781
a((dp782
I5722
g776
sI6460
g773
sF0.0
tp783
a((dp784
I5722
g776
sI6460
g776
sF0.0
tp785
a((dp786
I5722
S'G'
p787
sI6460
g773
sF0.14285714285714285
tp788
a((dp789
I5722
g787
sI6460
g776
sF0.14285714285714285
tp790
aa(lp791
((dp792
I92
S'A'
p793
sI101
S'C'
p794
sF0.0
tp795
a((dp796
I92
S'C'
p797
sI101
g794
sF0.3076923076923077
tp798
a((dp799
I92
S'T'
p800
sI101
g794
sF0.3076923076923077
tp801
a((dp802
I92
S'G'
p803
sI101
g794
sF0.38461538461538464
tp804
aa(lp805
((dp806
I1118
S'A'
p807
sI454
S'G'
p808
sF0.7692307692307693
tp809
a((dp810
I1118
S'C'
p811
sI454
g808
sF0.0
tp812
a((dp813
I1118
S'T'
p814
sI454
g808
sF0.0
tp815
a((dp816
I1118
S'G'
p817
sI454
g808
sF0.23076923076923078
tp818
aa(lp819
((dp820
I867
S'A'
p821
sI7267
S'A'
p822
sF0.9
tp823
a((dp824
I867
g821
sI7267
S'C'
p825
sF0.0
tp826
a((dp827
I867
g821
sI7267
S'T'
p828
sF0.1
tp829
a((dp830
I867
g821
sI7267
S'G'
p831
sF0.0
tp832
aa(lp833
((dp834
I4882
S'A'
p835
sI324
S'A'
p836
sF0.14285714285714285
tp837
a((dp838
I4882
S'C'
p839
sI324
g836
sF0.42857142857142855
tp840
a((dp841
I4882
S'T'
p842
sI324
g836
sF0.42857142857142855
tp843
a((dp844
I4882
S'G'
p845
sI324
g836
sF0.0
tp846
aa(lp847
((dp848
I3601
S'A'
p849
sI4754
S'T'
p850
sF0.25
tp851
a((dp852
I3601
S'C'
p853
sI4754
g850
sF0.25
tp854
a((dp855
I3601
g849
sI4754
S'G'
p856
sF0.25
tp857
a((dp858
I3601
g853
sI4754
g856
sF0.25
tp859
aa(lp860
((dp861
I1657
S'C'
p862
sI254
S'A'
p863
sF0.0
tp864
a((dp865
I1657
S'T'
p866
sI254
g863
sF0.0
tp867
a((dp868
I1657
S'G'
p869
sI254
g863
sF0.0
tp870
a((dp871
I1657
g862
sI254
g862
sF0.06060606060606061
tp872
a((dp873
I1657
g866
sI254
g862
sF0.06060606060606061
tp874
a((dp875
I1657
g869
sI254
g862
sF0.06060606060606061
tp876
a((dp877
I1657
g862
sI254
g866
sF0.0
tp878
a((dp879
I1657
g866
sI254
g866
sF0.0
tp880
a((dp881
I1657
g869
sI254
g866
sF0.0
tp882
a((dp883
I1657
g862
sI254
g869
sF0.2727272727272727
tp884
a((dp885
I1657
g866
sI254
g869
sF0.2727272727272727
tp886
a((dp887
I1657
g869
sI254
g869
sF0.2727272727272727
tp888
aa(lp889
((dp890
I2176
S'A'
p891
sI6833
g891
sF0.1111111111111111
tp892
a((dp893
I2176
S'C'
p894
sI6833
g891
sF0.06666666666666667
tp895
a((dp896
I2176
S'T'
p897
sI6833
g891
sF0.13333333333333333
tp898
a((dp899
I2176
S'G'
p900
sI6833
g891
sF0.02222222222222222
tp901
a((dp902
I2176
g891
sI6833
g894
sF0.1111111111111111
tp903
a((dp904
I2176
g894
sI6833
g894
sF0.06666666666666667
tp905
a((dp906
I2176
g897
sI6833
g894
sF0.13333333333333333
tp907
a((dp908
I2176
g900
sI6833
g894
sF0.02222222222222222
tp909
a((dp910
I2176
g891
sI6833
g900
sF0.1111111111111111
tp911
a((dp912
I2176
g894
sI6833
g900
sF0.06666666666666667
tp913
a((dp914
I2176
g897
sI6833
g900
sF0.13333333333333333
tp915
a((dp916
I2176
g900
sI6833
g900
sF0.02222222222222222
tp917
aa(lp918
((dp919
I129
S'G'
p920
sI4863
S'A'
p921
sF1.0
tp922
aa(lp923
((dp924
I3456
S'C'
p925
sI7299
S'A'
p926
sF0.05128205128205128
tp927
a((dp928
I3456
S'T'
p929
sI7299
g926
sF0.05128205128205128
tp930
a((dp931
I3456
S'G'
p932
sI7299
g926
sF0.05128205128205128
tp933
a((dp934
I3456
g925
sI7299
g925
sF0.02564102564102564
tp935
a((dp936
I3456
g929
sI7299
g925
sF0.02564102564102564
tp937
a((dp938
I3456
g932
sI7299
g925
sF0.02564102564102564
tp939
a((dp940
I3456
g925
sI7299
g929
sF0.10256410256410256
tp941
a((dp942
I3456
g929
sI7299
g929
sF0.10256410256410256
tp943
a((dp944
I3456
g932
sI7299
g929
sF0.10256410256410256
tp945
a((dp946
I3456
g925
sI7299
g932
sF0.15384615384615385
tp947
a((dp948
I3456
g929
sI7299
g932
sF0.15384615384615385
tp949
a((dp950
I3456
g932
sI7299
g932
sF0.15384615384615385
tp951
aa(lp952
((dp953
I172
S'C'
p954
sI141
S'A'
p955
sF0.0
tp956
a((dp957
I172
g954
sI141
g954
sF0.1111111111111111
tp958
a((dp959
I172
g954
sI141
S'T'
p960
sF0.07407407407407407
tp961
a((dp962
I172
g954
sI141
S'G'
p963
sF0.14814814814814814
tp964
a((dp965
I172
g960
sI141
g955
sF0.0
tp966
a((dp967
I172
g960
sI141
g954
sF0.1111111111111111
tp968
a((dp969
I172
g960
sI141
g960
sF0.07407407407407407
tp970
a((dp971
I172
g960
sI141
g963
sF0.14814814814814814
tp972
a((dp973
I172
g963
sI141
g955
sF0.0
tp974
a((dp975
I172
g963
sI141
g954
sF0.1111111111111111
tp976
a((dp977
I172
g963
sI141
g960
sF0.07407407407407407
tp978
a((dp979
I172
g963
sI141
g963
sF0.14814814814814814
tp980
aa(lp981
((dp982
I200
S'A'
p983
sI147
S'A'
p984
sF0.1111111111111111
tp985
a((dp986
I200
g983
sI147
S'C'
p987
sF0.1111111111111111
tp988
a((dp989
I200
g983
sI147
S'G'
p990
sF0.1111111111111111
tp991
a((dp992
I200
S'C'
p993
sI147
g984
sF0.1111111111111111
tp994
a((dp995
I200
g993
sI147
g987
sF0.1111111111111111
tp996
a((dp997
I200
g993
sI147
g990
sF0.1111111111111111
tp998
a((dp999
I200
S'G'
p1000
sI147
g984
sF0.1111111111111111
tp1001
a((dp1002
I200
g1000
sI147
g987
sF0.1111111111111111
tp1003
a((dp1004
I200
g1000
sI147
g990
sF0.1111111111111111
tp1005
aa(lp1006
((dp1007
I5193
S'A'
p1008
sI4762
g1008
sF0.057692307692307696
tp1009
a((dp1010
I5193
g1008
sI4762
S'C'
p1011
sF0.057692307692307696
tp1012
a((dp1013
I5193
g1008
sI4762
S'Gr'
p1014
sF0.057692307692307696
tp1015
a((dp1016
I5193
g1008
sI4762
S'T'
p1017
sF0.057692307692307696
tp1018
a((dp1019
I5193
g1011
sI4762
g1008
sF0.019230769230769232
tp1020
a((dp1021
I5193
g1011
sI4762
g1011
sF0.019230769230769232
tp1022
a((dp1023
I5193
g1011
sI4762
g1014
sF0.019230769230769232
tp1024
a((dp1025
I5193
g1011
sI4762
g1017
sF0.019230769230769232
tp1026
a((dp1027
I5193
g1017
sI4762
g1008
sF0.07692307692307693
tp1028
a((dp1029
I5193
g1017
sI4762
g1011
sF0.07692307692307693
tp1030
a((dp1031
I5193
g1017
sI4762
g1014
sF0.07692307692307693
tp1032
a((dp1033
I5193
g1017
sI4762
g1017
sF0.07692307692307693
tp1034
a((dp1035
I5193
S'G'
p1036
sI4762
g1008
sF0.09615384615384616
tp1037
a((dp1038
I5193
g1036
sI4762
g1011
sF0.09615384615384616
tp1039
a((dp1040
I5193
g1036
sI4762
g1014
sF0.09615384615384616
tp1041
a((dp1042
I5193
g1036
sI4762
g1017
sF0.09615384615384616
tp1043
aa(lp1044
((dp1045
I189
S'A'
p1046
sI158
g1046
sF0.05128205128205128
tp1047
a((dp1048
I189
S'C'
p1049
sI158
g1046
sF0.05128205128205128
tp1050
a((dp1051
I189
S'T'
p1052
sI158
g1046
sF0.15384615384615385
tp1053
a((dp1054
I189
S'G'
p1055
sI158
g1046
sF0.07692307692307693
tp1056
a((dp1057
I189
g1046
sI158
g1052
sF0.05128205128205128
tp1058
a((dp1059
I189
g1049
sI158
g1052
sF0.05128205128205128
tp1060
a((dp1061
I189
g1052
sI158
g1052
sF0.15384615384615385
tp1062
a((dp1063
I189
g1055
sI158
g1052
sF0.07692307692307693
tp1064
a((dp1065
I189
g1046
sI158
g1055
sF0.05128205128205128
tp1066
a((dp1067
I189
g1049
sI158
g1055
sF0.05128205128205128
tp1068
a((dp1069
I189
g1052
sI158
g1055
sF0.15384615384615385
tp1070
a((dp1071
I189
g1055
sI158
g1055
sF0.07692307692307693
tp1072
aa(lp1073
((dp1074
I4393
S'A'
p1075
sI3246
S'C'
p1076
sF0.17948717948717946
tp1077
a((dp1078
I4393
g1075
sI3246
S'T'
p1079
sF0.17948717948717946
tp1080
a((dp1081
I4393
g1075
sI3246
S'G'
p1082
sF0.17948717948717946
tp1083
a((dp1084
I4393
g1076
sI3246
g1076
sF0.0
tp1085
a((dp1086
I4393
g1076
sI3246
g1079
sF0.0
tp1087
a((dp1088
I4393
g1076
sI3246
g1082
sF0.0
tp1089
a((dp1090
I4393
g1079
sI3246
g1076
sF0.07692307692307693
tp1091
a((dp1092
I4393
g1079
sI3246
g1079
sF0.07692307692307693
tp1093
a((dp1094
I4393
g1079
sI3246
g1082
sF0.07692307692307693
tp1095
a((dp1096
I4393
g1082
sI3246
g1076
sF0.07692307692307693
tp1097
a((dp1098
I4393
g1082
sI3246
g1079
sF0.07692307692307693
tp1099
a((dp1100
I4393
g1082
sI3246
g1082
sF0.07692307692307693
tp1101
aa(lp1102
((dp1103
I5820
S'A'
p1104
sI5607
S'C'
p1105
sF0.36666666666666664
tp1106
a((dp1107
I5820
g1105
sI5607
g1105
sF0.0
tp1108
a((dp1109
I5820
S'T'
p1110
sI5607
g1105
sF0.0
tp1111
a((dp1112
I5820
S'G'
p1113
sI5607
g1105
sF0.13333333333333333
tp1114
a((dp1115
I5820
g1104
sI5607
g1110
sF0.36666666666666664
tp1116
a((dp1117
I5820
g1105
sI5607
g1110
sF0.0
tp1118
a((dp1119
I5820
g1110
sI5607
g1110
sF0.0
tp1120
a((dp1121
I5820
g1113
sI5607
g1110
sF0.13333333333333333
tp1122
aa(lp1123
((dp1124
I1745
S'C'
p1125
sI3970
S'A'
p1126
sF0.05555555555555555
tp1127
a((dp1128
I1745
S'T'
p1129
sI3970
g1126
sF0.05555555555555555
tp1130
a((dp1131
I1745
S'G'
p1132
sI3970
g1126
sF0.05555555555555555
tp1133
a((dp1134
I1745
g1125
sI3970
g1125
sF0.1111111111111111
tp1135
a((dp1136
I1745
g1129
sI3970
g1125
sF0.1111111111111111
tp1137
a((dp1138
I1745
g1132
sI3970
g1125
sF0.1111111111111111
tp1139
a((dp1140
I1745
g1125
sI3970
g1129
sF0.1388888888888889
tp1141
a((dp1142
I1745
g1129
sI3970
g1129
sF0.1388888888888889
tp1143
a((dp1144
I1745
g1132
sI3970
g1129
sF0.1388888888888889
tp1145
a((dp1146
I1745
g1125
sI3970
g1132
sF0.027777777777777776
tp1147
a((dp1148
I1745
g1129
sI3970
g1132
sF0.027777777777777776
tp1149
a((dp1150
I1745
g1132
sI3970
g1132
sF0.027777777777777776
tp1151
aa(lp1152
((dp1153
I5332
S'A'
p1154
sI789
g1154
sF0.0
tp1155
a((dp1156
I5332
S'G'
p1157
sI789
g1154
sF0.0
tp1158
a((dp1159
I5332
g1154
sI789
S'C'
p1160
sF0.045454545454545456
tp1161
a((dp1162
I5332
g1157
sI789
g1160
sF0.045454545454545456
tp1163
a((dp1164
I5332
g1154
sI789
S'T'
p1165
sF0.22727272727272727
tp1166
a((dp1167
I5332
g1157
sI789
g1165
sF0.22727272727272727
tp1168
a((dp1169
I5332
g1154
sI789
g1157
sF0.22727272727272727
tp1170
a((dp1171
I5332
g1157
sI789
g1157
sF0.22727272727272727
tp1172
aa(lp1173
((dp1174
I6882
S'A'
p1175
sI6021
g1175
sF0.0
tp1176
a((dp1177
I6882
g1175
sI6021
S'C'
p1178
sF0.0625
tp1179
a((dp1180
I6882
g1175
sI6021
S'T'
p1181
sF0.1875
tp1182
a((dp1183
I6882
g1175
sI6021
S'G'
p1184
sF0.25
tp1185
a((dp1186
I6882
g1184
sI6021
g1175
sF0.0
tp1187
a((dp1188
I6882
g1184
sI6021
g1178
sF0.0625
tp1189
a((dp1190
I6882
g1184
sI6021
g1181
sF0.1875
tp1191
a((dp1192
I6882
g1184
sI6021
g1184
sF0.25
tp1193
aa(lp1194
((dp1195
I5863
S'A'
p1196
sI3887
g1196
sF0.3076923076923077
tp1197
a((dp1198
I5863
S'C'
p1199
sI3887
g1196
sF0.038461538461538464
tp1200
a((dp1201
I5863
S'T'
p1202
sI3887
g1196
sF0.0
tp1203
a((dp1204
I5863
S'G'
p1205
sI3887
g1196
sF0.15384615384615385
tp1206
a((dp1207
I5863
g1196
sI3887
g1202
sF0.3076923076923077
tp1208
a((dp1209
I5863
g1199
sI3887
g1202
sF0.038461538461538464
tp1210
a((dp1211
I5863
g1202
sI3887
g1202
sF0.0
tp1212
a((dp1213
I5863
g1205
sI3887
g1202
sF0.15384615384615385
tp1214
aa(lp1215
((dp1216
I773
S'T'
p1217
sI1518
S'A'
p1218
sI5359
S'C'
p1219
sF0.04444444444444444
tp1220
a((dp1221
I773
g1217
sI1518
S'C'
p1222
sI5359
g1219
sF0.05555555555555555
tp1223
a((dp1224
I773
g1217
sI1518
S'G'
p1225
sI5359
g1219
sF0.0
tp1226
a((dp1227
I773
g1217
sI1518
S'Aw'
p1228
sI5359
g1219
sF0.01111111111111111
tp1229
a((dp1230
I773
g1217
sI1518
g1217
sI5359
g1219
sF0.05555555555555555
tp1231
a((dp1232
I773
g1217
sI1518
g1218
sI5359
S'T'
p1233
sF0.04444444444444444
tp1234
a((dp1235
I773
g1217
sI1518
g1222
sI5359
g1233
sF0.05555555555555555
tp1236
a((dp1237
I773
g1217
sI1518
g1225
sI5359
g1233
sF0.0
tp1238
a((dp1239
I773
g1217
sI1518
g1228
sI5359
g1233
sF0.01111111111111111
tp1240
a((dp1241
I773
g1217
sI1518
g1217
sI5359
g1233
sF0.05555555555555555
tp1242
a((dp1243
I773
g1217
sI1518
g1218
sI5359
S'G'
p1244
sF0.04444444444444444
tp1245
a((dp1246
I773
g1217
sI1518
g1222
sI5359
g1244
sF0.05555555555555555
tp1247
a((dp1248
I773
g1217
sI1518
g1225
sI5359
g1244
sF0.0
tp1249
a((dp1250
I773
g1217
sI1518
g1228
sI5359
g1244
sF0.01111111111111111
tp1251
a((dp1252
I773
g1217
sI1518
g1217
sI5359
g1244
sF0.05555555555555555
tp1253
a((dp1254
I773
g1225
sI1518
g1218
sI5359
g1219
sF0.04444444444444444
tp1255
a((dp1256
I773
g1225
sI1518
g1222
sI5359
g1219
sF0.05555555555555555
tp1257
a((dp1258
I773
g1225
sI1518
g1225
sI5359
g1219
sF0.0
tp1259
a((dp1260
I773
g1225
sI1518
g1228
sI5359
g1219
sF0.01111111111111111
tp1261
a((dp1262
I773
g1225
sI1518
g1217
sI5359
g1219
sF0.05555555555555555
tp1263
a((dp1264
I773
g1225
sI1518
g1218
sI5359
g1233
sF0.04444444444444444
tp1265
a((dp1266
I773
g1225
sI1518
g1222
sI5359
g1233
sF0.05555555555555555
tp1267
a((dp1268
I773
g1225
sI1518
g1225
sI5359
g1233
sF0.0
tp1269
a((dp1270
I773
g1225
sI1518
g1228
sI5359
g1233
sF0.01111111111111111
tp1271
a((dp1272
I773
g1225
sI1518
g1217
sI5359
g1233
sF0.05555555555555555
tp1273
a((dp1274
I773
g1225
sI1518
g1218
sI5359
g1244
sF0.04444444444444444
tp1275
a((dp1276
I773
g1225
sI1518
g1222
sI5359
g1244
sF0.05555555555555555
tp1277
a((dp1278
I773
g1225
sI1518
g1225
sI5359
g1244
sF0.0
tp1279
a((dp1280
I773
g1225
sI1518
g1228
sI5359
g1244
sF0.01111111111111111
tp1281
a((dp1282
I773
g1225
sI1518
g1217
sI5359
g1244
sF0.05555555555555555
tp1283
aa(lp1284
((dp1285
I4867
S'A'
p1286
sI7156
S'C'
p1287
sF0.0
tp1288
a((dp1289
I4867
g1286
sI7156
S'T'
p1290
sF0.0
tp1291
a((dp1292
I4867
g1286
sI7156
S'G'
p1293
sF0.0
tp1294
a((dp1295
I4867
g1287
sI7156
g1287
sF0.09999999999999999
tp1296
a((dp1297
I4867
g1287
sI7156
g1290
sF0.09999999999999999
tp1298
a((dp1299
I4867
g1287
sI7156
g1293
sF0.09999999999999999
tp1300
a((dp1301
I4867
g1290
sI7156
g1287
sF0.13333333333333333
tp1302
a((dp1303
I4867
g1290
sI7156
g1290
sF0.13333333333333333
tp1304
a((dp1305
I4867
g1290
sI7156
g1293
sF0.13333333333333333
tp1306
a((dp1307
I4867
g1293
sI7156
g1287
sF0.09999999999999999
tp1308
a((dp1309
I4867
g1293
sI7156
g1290
sF0.09999999999999999
tp1310
a((dp1311
I4867
g1293
sI7156
g1293
sF0.09999999999999999
tp1312
aa(lp1313
((dp1314
I3913
S'A'
p1315
sI2388
g1315
sF0.06666666666666667
tp1316
a((dp1317
I3913
S'C'
p1318
sI2388
g1315
sF0.02222222222222222
tp1319
a((dp1320
I3913
S'T'
p1321
sI2388
g1315
sF0.15555555555555556
tp1322
a((dp1323
I3913
S'G'
p1324
sI2388
g1315
sF0.08888888888888888
tp1325
a((dp1326
I3913
g1315
sI2388
g1318
sF0.06666666666666667
tp1327
a((dp1328
I3913
g1318
sI2388
g1318
sF0.02222222222222222
tp1329
a((dp1330
I3913
g1321
sI2388
g1318
sF0.15555555555555556
tp1331
a((dp1332
I3913
g1324
sI2388
g1318
sF0.08888888888888888
tp1333
a((dp1334
I3913
g1315
sI2388
g1324
sF0.06666666666666667
tp1335
a((dp1336
I3913
g1318
sI2388
g1324
sF0.02222222222222222
tp1337
a((dp1338
I3913
g1321
sI2388
g1324
sF0.15555555555555556
tp1339
a((dp1340
I3913
g1324
sI2388
g1324
sF0.08888888888888888
tp1341
aa(lp1342
((dp1343
I841
S'A'
p1344
sI5519
S'A'
p1345
sF0.375
tp1346
a((dp1347
I841
g1344
sI5519
S'C'
p1348
sF0.0
tp1349
a((dp1350
I841
g1344
sI5519
S'T'
p1351
sF0.0
tp1352
a((dp1353
I841
g1344
sI5519
S'G'
p1354
sF0.625
tp1355
aa(lp1356
((dp1357
I952
S'C'
p1358
sI1082
S'A'
p1359
sF0.2333333333333333
tp1360
a((dp1361
I952
S'T'
p1362
sI1082
g1359
sF0.2333333333333333
tp1363
a((dp1364
I952
S'G'
p1365
sI1082
g1359
sF0.2333333333333333
tp1366
a((dp1367
I952
g1358
sI1082
g1358
sF0.03333333333333333
tp1368
a((dp1369
I952
g1362
sI1082
g1358
sF0.03333333333333333
tp1370
a((dp1371
I952
g1365
sI1082
g1358
sF0.03333333333333333
tp1372
a((dp1373
I952
g1358
sI1082
g1362
sF0.06666666666666667
tp1374
a((dp1375
I952
g1362
sI1082
g1362
sF0.06666666666666667
tp1376
a((dp1377
I952
g1365
sI1082
g1362
sF0.06666666666666667
tp1378
a((dp1379
I952
g1358
sI1082
g1365
sF0.0
tp1380
a((dp1381
I952
g1362
sI1082
g1365
sF0.0
tp1382
a((dp1383
I952
g1365
sI1082
g1365
sF0.0
tp1384
aa(lp1385
((dp1386
I7065
S'C'
p1387
sI2030
S'A'
p1388
sF0.0
tp1389
a((dp1390
I7065
g1387
sI2030
g1387
sF0.05128205128205128
tp1391
a((dp1392
I7065
g1387
sI2030
S'T'
p1393
sF0.05128205128205128
tp1394
a((dp1395
I7065
g1387
sI2030
S'G'
p1396
sF0.23076923076923075
tp1397
a((dp1398
I7065
g1393
sI2030
g1388
sF0.0
tp1399
a((dp1400
I7065
g1393
sI2030
g1387
sF0.05128205128205128
tp1401
a((dp1402
I7065
g1393
sI2030
g1393
sF0.05128205128205128
tp1403
a((dp1404
I7065
g1393
sI2030
g1396
sF0.23076923076923075
tp1405
a((dp1406
I7065
g1396
sI2030
g1388
sF0.0
tp1407
a((dp1408
I7065
g1396
sI2030
g1387
sF0.05128205128205128
tp1409
a((dp1410
I7065
g1396
sI2030
g1393
sF0.05128205128205128
tp1411
a((dp1412
I7065
g1396
sI2030
g1396
sF0.23076923076923075
tp1413
aatp1414
.