ccopy_reg
_reconstructor
p0
(cmlx
tree_
p1
c__builtin__
object
p2
Ntp3
Rp4
(dp5
S'decision_rules_'
p6
(dp7
I2
S'P821 %in% c("A", "C")'
p8
sI4
S'P821 %in% c("G", "N", "T") & P1689 %in% c("A", "T")'
p9
sI6
S'P821 %in% c("G", "N", "T") & P1689 %in% c("C", "N", "Y") & P764 %in% c("A", "NA")'
p10
sI7
S'P821 %in% c("G", "N", "T") & P1689 %in% c("C", "N", "Y") & P764 %in% c("C", "NA", "N", "T")'
p11
ssS'significant_feature_weight_'
p12
(dp13
S'P1689'
p14
F0.0
sS'P821'
p15
F0.4427692830262925
sS'P764'
p16
F0.0
ssS'children_left'
p17
(dp18
I1
I2
sI2
NsI3
I4
sI4
NsI5
I6
sI6
NsI7
NssS'ACCx_'
p19
F0.8873239436619719
sS'ACC_'
p20
F0.9014084507042254
sS'value'
p21
(dp22
I1
(dp23
S'A'
p24
F8.0
sS'C'
p25
F4.0
sS'T'
p26
F56.0
sS'G'
p27
F2.0
sS'N'
p28
F1.0
ssI2
(dp29
g24
F8.0
sg25
F1.0
sg26
F0.0
sg27
F0.0
sg28
F0.0
ssI3
(dp30
g24
F0.0
sg25
F3.0
sg26
F56.0
sg27
F2.0
sg28
F1.0
ssI4
(dp31
g24
F0.0
sg25
F0.0
sg26
F21.0
sg27
F2.0
sg28
F0.0
ssI5
(dp32
g24
F0.0
sg25
F3.0
sg26
F35.0
sg27
F0.0
sg28
F1.0
ssI6
(dp33
g24
F0.0
sg25
F0.0
sg26
F19.0
sg27
F0.0
sg28
F0.0
ssI7
(dp34
g24
F0.0
sg25
F3.0
sg26
F16.0
sg27
F0.0
sg28
F1.0
sssS'tprob_'
p35
(dp36
I2
F0.1267605633802817
sI4
F0.323943661971831
sI6
F0.2676056338028169
sI7
F0.28169014084507044
ssS'threshold'
p37
(dp38
I1
I0
sI3
I0
sI5
F1.52642687378801e-08
ssS'children'
p39
(dp40
I1
c__builtin__
set
p41
((lp42
I2
aI3
atp43
Rp44
sI2
g41
((lp45
tp46
Rp47
sI3
g41
((lp48
I4
aI5
atp49
Rp50
sI4
g41
((lp51
tp52
Rp53
sI5
g41
((lp54
I6
aI7
atp55
Rp56
sI6
g41
((lp57
tp58
Rp59
sI7
g41
((lp60
tp61
Rp62
ssS'children_right'
p63
(dp64
I1
I3
sI2
NsI3
I5
sI4
NsI5
I7
sI6
NsI7
NssS'feature'
p65
(dp66
I1
g15
sI2
S'2'
p67
sI3
g14
sI4
S'4'
p68
sI5
g16
sI6
S'6'
p69
sI7
S'7'
p70
ssS'nodes'
p71
crpy2.robjects.robject
_reduce_robjectmixin
p72
(S'X\n\x00\x00\x00\x02\x00\x03\x05\x03\x00\x02\x03\x00\x00\x00\x00\r\x00\x00\x00\x07\x00\x00\x00\x01\x00\x00\x00\x02\x00\x00\x00\x03\x00\x00\x00\x04\x00\x00\x00\x05\x00\x00\x00\x06\x00\x00\x00\x07'
p73
I13
crpy2.rinterface._rinterface
unserialize
p74
crpy2.robjects.vectors
IntVector
p75
tp76
Rp77
(dp78
S'ro'
p79
g0
(crpy2.robjects.vectors
VectorOperationsDelegator
p80
g2
Ntp81
Rp82
(dp83
S'_parent'
p84
g77
sbsS'rx'
p85
g0
(crpy2.robjects.vectors
ExtractDelegator
p86
g2
Ntp87
Rp88
(dp89
g84
g77
sbsS'rx2'
p90
g0
(crpy2.robjects.vectors
DoubleExtractDelegator
p91
g2
Ntp92
Rp93
(dp94
g84
g77
sbsbsS'response_var_'
p95
S'P747'
p96
sS'edge_cond_'
p97
(dp98
(I1
I2
tp99
(lp100
g24
ag25
as(I1
I3
tp101
(lp102
g26
ag27
ag28
as(I5
I6
tp103
(lp104
g24
as(I5
I7
tp105
(lp106
g25
ag26
ag28
as(I3
I4
tp107
(lp108
g24
ag26
as(I3
I5
tp109
(lp110
S'Y'
p111
ag25
ag28
assS'class_pred_'
p112
g22
sS'CLASSES'
p113
cnumpy.core.multiarray
_reconstruct
p114
(cnumpy
ndarray
p115
(I0
tp116
S'b'
p117
tp118
Rp119
(I1
(I5
tp120
cnumpy
dtype
p121
(S'O8'
p122
I0
I1
tp123
Rp124
(I3
S'|'
p125
NNNI-1
I-1
I63
tp126
bI00
(lp127
g24
ag25
ag27
ag28
ag26
atp128
bsS'TREE_LEAF'
p129
(dp130
I1
I00
sI2
I01
sI3
I00
sI4
I01
sI5
I00
sI6
I01
sI7
I01
ssS'num_pass_'
p131
(dp132
I1
I71
sI2
I9
sI3
I62
sI4
I23
sI5
I39
sI6
I19
sI7
I20
ssS'error'
p133
(dp134
I1
F21.126760563380284
sI2
F11.11111111111111
sI3
F9.67741935483871
sI4
F8.695652173913043
sI5
F10.256410256410255
sI6
F0.0
sI7
F20.0
ssS'pvalue'
p135
g38
sS'class_names'
p136
g119
sS'n_node_samples'
p137
g132
sb.