ccopy_reg
_reconstructor
p0
(cmlx
tree_
p1
c__builtin__
object
p2
Ntp3
Rp4
(dp5
S'decision_rules_'
p6
(dp7
I3
S'P643 %in% c("A") & P3209 %in% c("A", "C")'
p8
sI4
S'P643 %in% c("A") & P3209 %in% c("G", "T")'
p9
sI5
S'P643 %in% c("G")'
p10
ssS'significant_feature_weight_'
p11
(dp12
S'P643'
p13
F0.9839317400584278
sS'P3209'
p14
F0.0
ssS'children_left'
p15
(dp16
I1
I2
sI2
I3
sI3
NsI4
NsI5
NssS'ACCx_'
p17
F0.5774647887323944
sS'ACC_'
p18
F0.971830985915493
sS'value'
p19
(dp20
I1
(dp21
S'A'
p22
F40.0
sS'G'
p23
F31.0
ssI2
(dp24
g22
F39.0
sg23
F1.0
ssI3
(dp25
g22
F7.0
sg23
F1.0
ssI4
(dp26
g22
F32.0
sg23
F0.0
ssI5
(dp27
g22
F1.0
sg23
F30.0
sssS'tprob_'
p28
(dp29
I3
F0.11267605633802817
sI4
F0.4507042253521127
sI5
F0.43661971830985913
ssS'threshold'
p30
(dp31
I1
F1.5055068303127e-11
sI2
F8.478365095399008e-05
ssS'children'
p32
(dp33
I1
c__builtin__
set
p34
((lp35
I2
aI5
atp36
Rp37
sI2
g34
((lp38
I3
aI4
atp39
Rp40
sI3
g34
((lp41
tp42
Rp43
sI4
g34
((lp44
tp45
Rp46
sI5
g34
((lp47
tp48
Rp49
ssS'children_right'
p50
(dp51
I1
I5
sI2
I4
sI3
NsI4
NsI5
NssS'feature'
p52
(dp53
I1
g13
sI2
g14
sI3
S'3'
p54
sI4
S'4'
p55
sI5
S'5'
p56
ssS'nodes'
p57
crpy2.robjects.robject
_reduce_robjectmixin
p58
(S'X\n\x00\x00\x00\x02\x00\x03\x05\x03\x00\x02\x03\x00\x00\x00\x00\r\x00\x00\x00\x05\x00\x00\x00\x01\x00\x00\x00\x02\x00\x00\x00\x03\x00\x00\x00\x04\x00\x00\x00\x05'
p59
I13
crpy2.rinterface._rinterface
unserialize
p60
crpy2.robjects.vectors
IntVector
p61
tp62
Rp63
(dp64
S'ro'
p65
g0
(crpy2.robjects.vectors
VectorOperationsDelegator
p66
g2
Ntp67
Rp68
(dp69
S'_parent'
p70
g63
sbsS'rx'
p71
g0
(crpy2.robjects.vectors
ExtractDelegator
p72
g2
Ntp73
Rp74
(dp75
g70
g63
sbsS'rx2'
p76
g0
(crpy2.robjects.vectors
DoubleExtractDelegator
p77
g2
Ntp78
Rp79
(dp80
g70
g63
sbsbsS'response_var_'
p81
S'P3405'
p82
sS'edge_cond_'
p83
(dp84
(I1
I2
tp85
(lp86
S'A'
p87
as(I1
I5
tp88
(lp89
S'G'
p90
as(I2
I3
tp91
(lp92
g22
aS'C'
p93
as(I2
I4
tp94
(lp95
S'T'
p96
ag23
assS'class_pred_'
p97
g20
sS'CLASSES'
p98
cnumpy.core.multiarray
_reconstruct
p99
(cnumpy
ndarray
p100
(I0
tp101
S'b'
p102
tp103
Rp104
(I1
(I2
tp105
cnumpy
dtype
p106
(S'O8'
p107
I0
I1
tp108
Rp109
(I3
S'|'
p110
NNNI-1
I-1
I63
tp111
bI00
(lp112
g22
ag23
atp113
bsS'TREE_LEAF'
p114
(dp115
I1
I00
sI2
I00
sI3
I01
sI4
I01
sI5
I01
ssS'num_pass_'
p116
(dp117
I1
I71
sI2
I40
sI3
I8
sI4
I32
sI5
I31
ssS'error'
p118
(dp119
I1
F43.66197183098591
sI2
F2.5
sI3
F12.5
sI4
F0.0
sI5
F3.225806451612903
ssS'pvalue'
p120
g31
sS'class_names'
p121
g104
sS'n_node_samples'
p122
g117
sb.