ccopy_reg
_reconstructor
p0
(cmlx
tree_
p1
c__builtin__
object
p2
Ntp3
Rp4
(dp5
S'decision_rules_'
p6
(dp7
I8
S'P807 %in% c("T") & P4363 %in% c("A", "C", "G")'
p8
sI9
S'P807 %in% c("T") & P4363 %in% c("T")'
p9
sI3
S'P807 %in% c("A", "C", "G", "N") & P807 %in% c("A", "G", "N", "NA")'
p10
sI5
S'P807 %in% c("A", "C", "G", "N") & P807 %in% c("C", "NA") & P192 %in% c("A", "NA", "T")'
p11
sI6
S'P807 %in% c("A", "C", "G", "N") & P807 %in% c("C", "NA") & P192 %in% c("C", "NA")'
p12
ssS'significant_feature_weight_'
p13
(dp14
S'P192'
p15
F0.23174594643639423
sS'P807'
p16
F1.1872259847175213
sS'P4363'
p17
F0.3414425636289417
ssS'children_left'
p18
(dp19
I1
I2
sI2
I3
sI3
NsI4
I5
sI5
NsI6
NsI7
I8
sI8
NsI9
NssS'ACCx_'
p20
F0.5070422535211268
sS'ACC_'
p21
F0.8873239436619719
sS'value'
p22
(dp23
I1
(dp24
S'A'
p25
F15.0
sS'C'
p26
F25.0
sS'T'
p27
F4.0
sS'G'
p28
F26.0
sS'N'
p29
F1.0
ssI2
(dp30
g25
F12.0
sg26
F0.0
sg27
F2.0
sg28
F23.0
sg29
F1.0
ssI3
(dp31
g25
F5.0
sg26
F0.0
sg27
F2.0
sg28
F0.0
sg29
F1.0
ssI4
(dp32
g25
F7.0
sg26
F0.0
sg27
F0.0
sg28
F23.0
sg29
F0.0
ssI5
(dp33
g25
F7.0
sg26
F0.0
sg27
F0.0
sg28
F0.0
sg29
F0.0
ssI6
(dp34
g25
F0.0
sg26
F0.0
sg27
F0.0
sg28
F23.0
sg29
F0.0
ssI7
(dp35
g25
F3.0
sg26
F25.0
sg27
F2.0
sg28
F3.0
sg29
F0.0
ssI8
(dp36
g25
F3.0
sg26
F0.0
sg27
F2.0
sg28
F3.0
sg29
F0.0
ssI9
(dp37
g25
F0.0
sg26
F25.0
sg27
F0.0
sg28
F0.0
sg29
F0.0
sssS'tprob_'
p38
(dp39
I8
F0.11267605633802817
sI9
F0.352112676056338
sI3
F0.11267605633802817
sI5
F0.09859154929577464
sI6
F0.323943661971831
ssS'threshold'
p40
(dp41
I1
I0
sI2
F5.466815888866e-11
sI4
F0.00246070643907259
sI7
F4.9382720135327e-13
ssS'children'
p42
(dp43
I1
c__builtin__
set
p44
((lp45
I2
aI7
atp46
Rp47
sI2
g44
((lp48
I3
aI4
atp49
Rp50
sI3
g44
((lp51
tp52
Rp53
sI4
g44
((lp54
I5
aI6
atp55
Rp56
sI5
g44
((lp57
tp58
Rp59
sI6
g44
((lp60
tp61
Rp62
sI7
g44
((lp63
I8
aI9
atp64
Rp65
sI8
g44
((lp66
tp67
Rp68
sI9
g44
((lp69
tp70
Rp71
ssS'children_right'
p72
(dp73
I1
I7
sI2
I4
sI3
NsI4
I6
sI5
NsI6
NsI7
I9
sI8
NsI9
NssS'feature'
p74
(dp75
I1
g16
sI2
S'P807'
p76
sI3
S'3'
p77
sI4
g15
sI5
S'5'
p78
sI6
S'6'
p79
sI7
g17
sI8
S'8'
p80
sI9
S'9'
p81
ssS'nodes'
p82
crpy2.robjects.robject
_reduce_robjectmixin
p83
(S'X\n\x00\x00\x00\x02\x00\x03\x05\x03\x00\x02\x03\x00\x00\x00\x00\r\x00\x00\x00\t\x00\x00\x00\x01\x00\x00\x00\x02\x00\x00\x00\x03\x00\x00\x00\x04\x00\x00\x00\x05\x00\x00\x00\x06\x00\x00\x00\x07\x00\x00\x00\x08\x00\x00\x00\t'
p84
I13
crpy2.rinterface._rinterface
unserialize
p85
crpy2.robjects.vectors
IntVector
p86
tp87
Rp88
(dp89
S'ro'
p90
g0
(crpy2.robjects.vectors
VectorOperationsDelegator
p91
g2
Ntp92
Rp93
(dp94
S'_parent'
p95
g88
sbsS'rx'
p96
g0
(crpy2.robjects.vectors
ExtractDelegator
p97
g2
Ntp98
Rp99
(dp100
g95
g88
sbsS'rx2'
p101
g0
(crpy2.robjects.vectors
DoubleExtractDelegator
p102
g2
Ntp103
Rp104
(dp105
g95
g88
sbsbsS'response_var_'
p106
S'P1683'
p107
sS'edge_cond_'
p108
(dp109
(I1
I2
tp110
(lp111
g25
ag26
ag28
ag29
as(I4
I6
tp112
(lp113
g26
as(I4
I5
tp114
(lp115
g25
ag27
as(I2
I3
tp116
(lp117
g25
ag28
ag29
as(I1
I7
tp118
(lp119
S'T'
p120
as(I7
I8
tp121
(lp122
g25
ag26
ag28
as(I2
I4
tp123
(lp124
g26
as(I7
I9
tp125
(lp126
S'T'
p127
assS'class_pred_'
p128
g23
sS'CLASSES'
p129
cnumpy.core.multiarray
_reconstruct
p130
(cnumpy
ndarray
p131
(I0
tp132
S'b'
p133
tp134
Rp135
(I1
(I5
tp136
cnumpy
dtype
p137
(S'O8'
p138
I0
I1
tp139
Rp140
(I3
S'|'
p141
NNNI-1
I-1
I63
tp142
bI00
(lp143
g25
ag26
ag28
ag29
ag27
atp144
bsS'TREE_LEAF'
p145
(dp146
I1
I00
sI2
I00
sI3
I01
sI4
I00
sI5
I01
sI6
I01
sI7
I00
sI8
I01
sI9
I01
ssS'num_pass_'
p147
(dp148
I1
I71
sI2
I38
sI3
I8
sI4
I30
sI5
I7
sI6
I23
sI7
I33
sI8
I8
sI9
I25
ssS'error'
p149
(dp150
I1
F63.38028169014084
sI2
F39.473684210526315
sI3
F37.5
sI4
F23.333333333333332
sI5
F0.0
sI6
F0.0
sI7
F24.242424242424242
sI8
F62.5
sI9
F0.0
ssS'pvalue'
p151
g41
sS'class_names'
p152
g135
sS'n_node_samples'
p153
g148
sb.