ccopy_reg
_reconstructor
p0
(cmlx
tree_
p1
c__builtin__
object
p2
Ntp3
Rp4
(dp5
S'decision_rules_'
p6
(dp7
I4
S'P1629 %in% c("A", "K", "T") & P2352 %in% c("A", "C", "G", "Y") & P2697 %in% c("A", "G")'
p8
sI5
S'P1629 %in% c("A", "K", "T") & P2352 %in% c("A", "C", "G", "Y") & P2697 %in% c("C", "T")'
p9
sI6
S'P1629 %in% c("A", "K", "T") & P2352 %in% c("T")'
p10
sI7
S'P1629 %in% c("C", "G")'
p11
ssS'significant_feature_weight_'
p12
(dp13
S'P2697'
p14
F0.2868117205647288
sS'P1629'
p15
F0.6332076843279237
sS'P2352'
p16
F0.7610575500950962
ssS'children_left'
p17
(dp18
I1
I2
sI2
I3
sI3
I4
sI4
NsI5
NsI6
NsI7
NssS'ACCx_'
p19
F0.7746478873239436
sS'ACC_'
p20
F0.8309859154929577
sS'value'
p21
(dp22
I1
(dp23
S'A'
p24
F3.0
sS'Y'
p25
F1.0
sS'C'
p26
F18.0
sS'T'
p27
F44.0
sS'G'
p28
F5.0
ssI2
(dp29
g24
F3.0
sg25
F1.0
sg26
F6.0
sg27
F42.0
sg28
F5.0
ssI3
(dp30
g24
F2.0
sg25
F1.0
sg26
F6.0
sg27
F8.0
sg28
F5.0
ssI4
(dp31
g24
F0.0
sg25
F1.0
sg26
F5.0
sg27
F8.0
sg28
F0.0
ssI5
(dp32
g24
F2.0
sg25
F0.0
sg26
F1.0
sg27
F0.0
sg28
F5.0
ssI6
(dp33
g24
F1.0
sg25
F0.0
sg26
F0.0
sg27
F34.0
sg28
F0.0
ssI7
(dp34
g24
F0.0
sg25
F0.0
sg26
F12.0
sg27
F2.0
sg28
F0.0
sssS'tprob_'
p35
(dp36
I4
F0.19718309859154928
sI5
F0.11267605633802817
sI6
F0.49295774647887325
sI7
F0.19718309859154928
ssS'threshold'
p37
(dp38
I1
I0
sI2
I0
sI3
F0.000629629235769924
ssS'children'
p39
(dp40
I1
c__builtin__
set
p41
((lp42
I2
aI7
atp43
Rp44
sI2
g41
((lp45
I3
aI6
atp46
Rp47
sI3
g41
((lp48
I4
aI5
atp49
Rp50
sI4
g41
((lp51
tp52
Rp53
sI5
g41
((lp54
tp55
Rp56
sI6
g41
((lp57
tp58
Rp59
sI7
g41
((lp60
tp61
Rp62
ssS'children_right'
p63
(dp64
I1
I7
sI2
I6
sI3
I5
sI4
NsI5
NsI6
NsI7
NssS'feature'
p65
(dp66
I1
g15
sI2
g16
sI3
g14
sI4
S'4'
p67
sI5
S'5'
p68
sI6
S'6'
p69
sI7
S'7'
p70
ssS'nodes'
p71
crpy2.robjects.robject
_reduce_robjectmixin
p72
(S'X\n\x00\x00\x00\x02\x00\x03\x05\x03\x00\x02\x03\x00\x00\x00\x00\r\x00\x00\x00\x07\x00\x00\x00\x01\x00\x00\x00\x02\x00\x00\x00\x03\x00\x00\x00\x04\x00\x00\x00\x05\x00\x00\x00\x06\x00\x00\x00\x07'
p73
I13
crpy2.rinterface._rinterface
unserialize
p74
crpy2.robjects.vectors
IntVector
p75
tp76
Rp77
(dp78
S'ro'
p79
g0
(crpy2.robjects.vectors
VectorOperationsDelegator
p80
g2
Ntp81
Rp82
(dp83
S'_parent'
p84
g77
sbsS'rx'
p85
g0
(crpy2.robjects.vectors
ExtractDelegator
p86
g2
Ntp87
Rp88
(dp89
g84
g77
sbsS'rx2'
p90
g0
(crpy2.robjects.vectors
DoubleExtractDelegator
p91
g2
Ntp92
Rp93
(dp94
g84
g77
sbsbsS'response_var_'
p95
S'P1386'
p96
sS'edge_cond_'
p97
(dp98
(I1
I2
tp99
(lp100
g24
aS'K'
p101
ag27
as(I2
I6
tp102
(lp103
S'T'
p104
as(I2
I3
tp105
(lp106
g24
ag25
ag26
ag28
as(I1
I7
tp107
(lp108
g26
ag28
as(I3
I4
tp109
(lp110
g24
ag28
as(I3
I5
tp111
(lp112
g26
ag27
assS'class_pred_'
p113
g22
sS'CLASSES'
p114
cnumpy.core.multiarray
_reconstruct
p115
(cnumpy
ndarray
p116
(I0
tp117
S'b'
p118
tp119
Rp120
(I1
(I5
tp121
cnumpy
dtype
p122
(S'O8'
p123
I0
I1
tp124
Rp125
(I3
S'|'
p126
NNNI-1
I-1
I63
tp127
bI00
(lp128
g24
ag26
ag28
ag27
ag25
atp129
bsS'TREE_LEAF'
p130
(dp131
I1
I00
sI2
I00
sI3
I00
sI4
I01
sI5
I01
sI6
I01
sI7
I01
ssS'num_pass_'
p132
(dp133
I1
I71
sI2
I57
sI3
I22
sI4
I14
sI5
I8
sI6
I35
sI7
I14
ssS'error'
p134
(dp135
I1
F38.028169014084504
sI2
F26.31578947368421
sI3
F63.63636363636363
sI4
F42.85714285714286
sI5
F37.5
sI6
F2.857142857142857
sI7
F14.285714285714285
ssS'pvalue'
p136
g38
sS'class_names'
p137
g120
sS'n_node_samples'
p138
g133
sb.