ccopy_reg
_reconstructor
p0
(cmlx
tree_
p1
c__builtin__
object
p2
Ntp3
Rp4
(dp5
S'decision_rules_'
p6
(dp7
I2
S'P1817 %in% c("A")'
p8
sI3
S'P1817 %in% c("C", "G", "T")'
p9
ssS'significant_feature_weight_'
p10
(dp11
S'P1817'
p12
F0.48403093664164587
ssS'children_left'
p13
(dp14
I1
I2
sI2
NsI3
NssS'ACCx_'
p15
F0.8450704225352113
sS'ACC_'
p16
F0.9295774647887324
sS'value'
p17
(dp18
I1
(dp19
S'A'
p20
F1.0
sS'C'
p21
F5.0
sS'T'
p22
F65.0
ssI2
(dp23
g20
F0.0
sg21
F0.0
sg22
F61.0
ssI3
(dp24
g20
F1.0
sg21
F5.0
sg22
F4.0
sssS'tprob_'
p25
(dp26
I2
F0.8591549295774648
sI3
F0.14084507042253522
ssS'threshold'
p27
(dp28
I1
I0
ssS'children'
p29
(dp30
I1
c__builtin__
set
p31
((lp32
I2
aI3
atp33
Rp34
sI2
g31
((lp35
tp36
Rp37
sI3
g31
((lp38
tp39
Rp40
ssS'children_right'
p41
(dp42
I1
I3
sI2
NsI3
NssS'feature'
p43
(dp44
I1
g12
sI2
S'2'
p45
sI3
S'3'
p46
ssS'nodes'
p47
crpy2.robjects.robject
_reduce_robjectmixin
p48
(S'X\n\x00\x00\x00\x02\x00\x03\x05\x03\x00\x02\x03\x00\x00\x00\x00\r\x00\x00\x00\x03\x00\x00\x00\x01\x00\x00\x00\x02\x00\x00\x00\x03'
p49
I13
crpy2.rinterface._rinterface
unserialize
p50
crpy2.robjects.vectors
IntVector
p51
tp52
Rp53
(dp54
S'ro'
p55
g0
(crpy2.robjects.vectors
VectorOperationsDelegator
p56
g2
Ntp57
Rp58
(dp59
S'_parent'
p60
g53
sbsS'rx'
p61
g0
(crpy2.robjects.vectors
ExtractDelegator
p62
g2
Ntp63
Rp64
(dp65
g60
g53
sbsS'rx2'
p66
g0
(crpy2.robjects.vectors
DoubleExtractDelegator
p67
g2
Ntp68
Rp69
(dp70
g60
g53
sbsbsS'response_var_'
p71
S'P2815'
p72
sS'edge_cond_'
p73
(dp74
(I1
I2
tp75
(lp76
S'A'
p77
as(I1
I3
tp78
(lp79
g21
ag22
aS'G'
p80
assS'class_pred_'
p81
g18
sS'CLASSES'
p82
cnumpy.core.multiarray
_reconstruct
p83
(cnumpy
ndarray
p84
(I0
tp85
S'b'
p86
tp87
Rp88
(I1
(I3
tp89
cnumpy
dtype
p90
(S'O8'
p91
I0
I1
tp92
Rp93
(I3
S'|'
p94
NNNI-1
I-1
I63
tp95
bI00
(lp96
g20
ag21
ag22
atp97
bsS'TREE_LEAF'
p98
(dp99
I1
I00
sI2
I01
sI3
I01
ssS'num_pass_'
p100
(dp101
I1
I71
sI2
I61
sI3
I10
ssS'error'
p102
(dp103
I1
F8.450704225352114
sI2
F0.0
sI3
F50.0
ssS'pvalue'
p104
g28
sS'class_names'
p105
g88
sS'n_node_samples'
p106
g101
sb.