ccopy_reg
_reconstructor
p0
(cmlx
tree_
p1
c__builtin__
object
p2
Ntp3
Rp4
(dp5
S'decision_rules_'
p6
(dp7
I4
S'P1629 %in% c("A", "C", "K", "T") & P1629 %in% c("A", "NA") & P1845 %in% c("A")'
p8
sI5
S'P1629 %in% c("A", "C", "K", "T") & P1629 %in% c("A", "NA") & P1845 %in% c("C", "G", "T")'
p9
sI6
S'P1629 %in% c("A", "C", "K", "T") & P1629 %in% c("C", "NA", "K", "T")'
p10
sI7
S'P1629 %in% c("G")'
p11
ssS'significant_feature_weight_'
p12
(dp13
S'P1629'
p14
F0.7797492680750244
sS'P1845'
p15
F0.0
ssS'children_left'
p16
(dp17
I1
I2
sI2
I3
sI3
I4
sI4
NsI5
NsI6
NsI7
NssS'ACCx_'
p18
F0.8732394366197183
sS'ACC_'
p19
F0.8873239436619719
sS'value'
p20
(dp21
I1
(dp22
S'A'
p23
F53.0
sS'C'
p24
F4.0
sS'R'
p25
F1.0
sS'T'
p26
F9.0
sS'G'
p27
F4.0
ssI2
(dp28
g23
F52.0
sg24
F3.0
sg25
F1.0
sg26
F0.0
sg27
F4.0
ssI3
(dp29
g23
F51.0
sg24
F0.0
sg25
F0.0
sg26
F0.0
sg27
F2.0
ssI4
(dp30
g23
F45.0
sg24
F0.0
sg25
F0.0
sg26
F0.0
sg27
F0.0
ssI5
(dp31
g23
F6.0
sg24
F0.0
sg25
F0.0
sg26
F0.0
sg27
F2.0
ssI6
(dp32
g23
F1.0
sg24
F3.0
sg25
F1.0
sg26
F0.0
sg27
F2.0
ssI7
(dp33
g23
F1.0
sg24
F1.0
sg25
F0.0
sg26
F9.0
sg27
F0.0
sssS'tprob_'
p34
(dp35
I4
F0.6338028169014085
sI5
F0.11267605633802817
sI6
F0.09859154929577464
sI7
F0.15492957746478872
ssS'threshold'
p36
(dp37
I1
I0
sI2
I0
sI3
F1.46309651838372e-07
ssS'children'
p38
(dp39
I1
c__builtin__
set
p40
((lp41
I2
aI7
atp42
Rp43
sI2
g40
((lp44
I3
aI6
atp45
Rp46
sI3
g40
((lp47
I4
aI5
atp48
Rp49
sI4
g40
((lp50
tp51
Rp52
sI5
g40
((lp53
tp54
Rp55
sI6
g40
((lp56
tp57
Rp58
sI7
g40
((lp59
tp60
Rp61
ssS'children_right'
p62
(dp63
I1
I7
sI2
I6
sI3
I5
sI4
NsI5
NsI6
NsI7
NssS'feature'
p64
(dp65
I1
S'P1629'
p66
sI2
g14
sI3
g15
sI4
S'4'
p67
sI5
S'5'
p68
sI6
S'6'
p69
sI7
S'7'
p70
ssS'nodes'
p71
crpy2.robjects.robject
_reduce_robjectmixin
p72
(S'X\n\x00\x00\x00\x02\x00\x03\x05\x03\x00\x02\x03\x00\x00\x00\x00\r\x00\x00\x00\x07\x00\x00\x00\x01\x00\x00\x00\x02\x00\x00\x00\x03\x00\x00\x00\x04\x00\x00\x00\x05\x00\x00\x00\x06\x00\x00\x00\x07'
p73
I13
crpy2.rinterface._rinterface
unserialize
p74
crpy2.robjects.vectors
IntVector
p75
tp76
Rp77
(dp78
S'ro'
p79
g0
(crpy2.robjects.vectors
VectorOperationsDelegator
p80
g2
Ntp81
Rp82
(dp83
S'_parent'
p84
g77
sbsS'rx'
p85
g0
(crpy2.robjects.vectors
ExtractDelegator
p86
g2
Ntp87
Rp88
(dp89
g84
g77
sbsS'rx2'
p90
g0
(crpy2.robjects.vectors
DoubleExtractDelegator
p91
g2
Ntp92
Rp93
(dp94
g84
g77
sbsbsS'response_var_'
p95
S'P2472'
p96
sS'edge_cond_'
p97
(dp98
(I1
I2
tp99
(lp100
g23
ag24
aS'K'
p101
ag26
as(I2
I6
tp102
(lp103
g24
ag101
ag26
as(I2
I3
tp104
(lp105
g23
as(I1
I7
tp106
(lp107
S'G'
p108
as(I3
I4
tp109
(lp110
S'A'
p111
as(I3
I5
tp112
(lp113
g24
ag26
ag27
assS'class_pred_'
p114
g21
sS'CLASSES'
p115
cnumpy.core.multiarray
_reconstruct
p116
(cnumpy
ndarray
p117
(I0
tp118
S'b'
p119
tp120
Rp121
(I1
(I5
tp122
cnumpy
dtype
p123
(S'O8'
p124
I0
I1
tp125
Rp126
(I3
S'|'
p127
NNNI-1
I-1
I63
tp128
bI00
(lp129
g23
ag24
ag27
ag25
ag26
atp130
bsS'TREE_LEAF'
p131
(dp132
I1
I00
sI2
I00
sI3
I00
sI4
I01
sI5
I01
sI6
I01
sI7
I01
ssS'num_pass_'
p133
(dp134
I1
I71
sI2
I60
sI3
I53
sI4
I45
sI5
I8
sI6
I7
sI7
I11
ssS'error'
p135
(dp136
I1
F25.35211267605634
sI2
F13.333333333333334
sI3
F3.7735849056603774
sI4
F0.0
sI5
F25.0
sI6
F57.14285714285714
sI7
F18.181818181818183
ssS'pvalue'
p137
g37
sS'class_names'
p138
g121
sS'n_node_samples'
p139
g134
sb.