ccopy_reg
_reconstructor
p0
(cmlx
tree_
p1
c__builtin__
object
p2
Ntp3
Rp4
(dp5
S'decision_rules_'
p6
(dp7
I3
S'P3246 %in% c("A", "T", "Y") & P3762 %in% c("A")'
p8
sI4
S'P3246 %in% c("A", "T", "Y") & P3762 %in% c("C", "G", "M", "T")'
p9
sI5
S'P3246 %in% c("C", "G")'
p10
ssS'significant_feature_weight_'
p11
(dp12
S'P3762'
p13
F0.6172688012147298
sS'P3246'
p14
F0.912517339570316
ssS'children_left'
p15
(dp16
I1
I2
sI2
I3
sI3
NsI4
NsI5
NssS'ACCx_'
p17
F0.8169014084507042
sS'ACC_'
p18
F0.8873239436619719
sS'value'
p19
(dp20
I1
(dp21
S'A'
p22
F29.0
sS'Y'
p23
F1.0
sS'C'
p24
F25.0
sS'T'
p25
F12.0
sS'G'
p26
F4.0
ssI2
(dp27
g22
F29.0
sg23
F1.0
sg24
F1.0
sg25
F11.0
sg26
F4.0
ssI3
(dp28
g22
F28.0
sg23
F0.0
sg24
F0.0
sg25
F0.0
sg26
F0.0
ssI4
(dp29
g22
F1.0
sg23
F1.0
sg24
F1.0
sg25
F11.0
sg26
F4.0
ssI5
(dp30
g22
F0.0
sg23
F0.0
sg24
F24.0
sg25
F1.0
sg26
F0.0
sssS'tprob_'
p31
(dp32
I3
F0.39436619718309857
sI4
F0.2535211267605634
sI5
F0.352112676056338
ssS'threshold'
p33
(dp34
I1
I0
sI2
F5.551115123125781e-16
ssS'children'
p35
(dp36
I1
c__builtin__
set
p37
((lp38
I2
aI5
atp39
Rp40
sI2
g37
((lp41
I3
aI4
atp42
Rp43
sI3
g37
((lp44
tp45
Rp46
sI4
g37
((lp47
tp48
Rp49
sI5
g37
((lp50
tp51
Rp52
ssS'children_right'
p53
(dp54
I1
I5
sI2
I4
sI3
NsI4
NsI5
NssS'feature'
p55
(dp56
I1
g14
sI2
g13
sI3
S'3'
p57
sI4
S'4'
p58
sI5
S'5'
p59
ssS'nodes'
p60
crpy2.robjects.robject
_reduce_robjectmixin
p61
(S'X\n\x00\x00\x00\x02\x00\x03\x05\x03\x00\x02\x03\x00\x00\x00\x00\r\x00\x00\x00\x05\x00\x00\x00\x01\x00\x00\x00\x02\x00\x00\x00\x03\x00\x00\x00\x04\x00\x00\x00\x05'
p62
I13
crpy2.rinterface._rinterface
unserialize
p63
crpy2.robjects.vectors
IntVector
p64
tp65
Rp66
(dp67
S'ro'
p68
g0
(crpy2.robjects.vectors
VectorOperationsDelegator
p69
g2
Ntp70
Rp71
(dp72
S'_parent'
p73
g66
sbsS'rx'
p74
g0
(crpy2.robjects.vectors
ExtractDelegator
p75
g2
Ntp76
Rp77
(dp78
g73
g66
sbsS'rx2'
p79
g0
(crpy2.robjects.vectors
DoubleExtractDelegator
p80
g2
Ntp81
Rp82
(dp83
g73
g66
sbsbsS'response_var_'
p84
S'P2958'
p85
sS'edge_cond_'
p86
(dp87
(I1
I2
tp88
(lp89
g22
ag23
ag25
as(I1
I5
tp90
(lp91
g24
ag26
as(I2
I3
tp92
(lp93
S'A'
p94
as(I2
I4
tp95
(lp96
g24
aS'M'
p97
ag25
ag26
assS'class_pred_'
p98
g20
sS'CLASSES'
p99
cnumpy.core.multiarray
_reconstruct
p100
(cnumpy
ndarray
p101
(I0
tp102
S'b'
p103
tp104
Rp105
(I1
(I5
tp106
cnumpy
dtype
p107
(S'O8'
p108
I0
I1
tp109
Rp110
(I3
S'|'
p111
NNNI-1
I-1
I63
tp112
bI00
(lp113
g22
ag24
ag26
ag25
ag23
atp114
bsS'TREE_LEAF'
p115
(dp116
I1
I00
sI2
I00
sI3
I01
sI4
I01
sI5
I01
ssS'num_pass_'
p117
(dp118
I1
I71
sI2
I46
sI3
I28
sI4
I18
sI5
I25
ssS'error'
p119
(dp120
I1
F59.154929577464785
sI2
F36.95652173913044
sI3
F0.0
sI4
F38.888888888888886
sI5
F4.0
ssS'pvalue'
p121
g34
sS'class_names'
p122
g105
sS'n_node_samples'
p123
g118
sb.