ccopy_reg
_reconstructor
p0
(cmlx
tree_
p1
c__builtin__
object
p2
Ntp3
Rp4
(dp5
S'decision_rules_'
p6
(dp7
I3
S'P1632 %in% c("A", "C", "G", "Y") & P2958 %in% c("A", "C", "G", "Y")'
p8
sI4
S'P1632 %in% c("A", "C", "G", "Y") & P2958 %in% c("T")'
p9
sI6
S'P1632 %in% c("T") & P4842 %in% c("A", "C", "G")'
p10
sI7
S'P1632 %in% c("T") & P4842 %in% c("T")'
p11
ssS'significant_feature_weight_'
p12
(dp13
S'P1632'
p14
F0.8553858191798267
sS'P2958'
p15
F0.0
sS'P4842'
p16
F0.0
ssS'children_left'
p17
(dp18
I1
I2
sI2
I3
sI3
NsI4
NsI5
I6
sI6
NsI7
NssS'ACCx_'
p19
F0.9154929577464789
sS'ACC_'
p20
F0.9014084507042254
sS'value'
p21
(dp22
I1
(dp23
S'A'
p24
F47.0
sS'C'
p25
F3.0
sS'R'
p26
F1.0
sS'T'
p27
F2.0
sS'G'
p28
F18.0
ssI2
(dp29
g24
F0.0
sg25
F3.0
sg26
F1.0
sg27
F1.0
sg28
F17.0
ssI3
(dp30
g24
F0.0
sg25
F3.0
sg26
F1.0
sg27
F1.0
sg28
F7.0
ssI4
(dp31
g24
F0.0
sg25
F0.0
sg26
F0.0
sg27
F0.0
sg28
F10.0
ssI5
(dp32
g24
F47.0
sg25
F0.0
sg26
F0.0
sg27
F1.0
sg28
F1.0
ssI6
(dp33
g24
F22.0
sg25
F0.0
sg26
F0.0
sg27
F1.0
sg28
F1.0
ssI7
(dp34
g24
F25.0
sg25
F0.0
sg26
F0.0
sg27
F0.0
sg28
F0.0
sssS'tprob_'
p35
(dp36
I3
F0.16901408450704225
sI4
F0.14084507042253522
sI6
F0.3380281690140845
sI7
F0.352112676056338
ssS'threshold'
p37
(dp38
I1
I0
sI2
F3.11299164484913e-05
sI5
F8.32667268468867e-15
ssS'children'
p39
(dp40
I1
c__builtin__
set
p41
((lp42
I2
aI5
atp43
Rp44
sI2
g41
((lp45
I3
aI4
atp46
Rp47
sI3
g41
((lp48
tp49
Rp50
sI4
g41
((lp51
tp52
Rp53
sI5
g41
((lp54
I6
aI7
atp55
Rp56
sI6
g41
((lp57
tp58
Rp59
sI7
g41
((lp60
tp61
Rp62
ssS'children_right'
p63
(dp64
I1
I5
sI2
I4
sI3
NsI4
NsI5
I7
sI6
NsI7
NssS'feature'
p65
(dp66
I1
g14
sI2
g15
sI3
S'3'
p67
sI4
S'4'
p68
sI5
g16
sI6
S'6'
p69
sI7
S'7'
p70
ssS'nodes'
p71
crpy2.robjects.robject
_reduce_robjectmixin
p72
(S'X\n\x00\x00\x00\x02\x00\x03\x05\x03\x00\x02\x03\x00\x00\x00\x00\r\x00\x00\x00\x07\x00\x00\x00\x01\x00\x00\x00\x02\x00\x00\x00\x03\x00\x00\x00\x04\x00\x00\x00\x05\x00\x00\x00\x06\x00\x00\x00\x07'
p73
I13
crpy2.rinterface._rinterface
unserialize
p74
crpy2.robjects.vectors
IntVector
p75
tp76
Rp77
(dp78
S'ro'
p79
g0
(crpy2.robjects.vectors
VectorOperationsDelegator
p80
g2
Ntp81
Rp82
(dp83
S'_parent'
p84
g77
sbsS'rx'
p85
g0
(crpy2.robjects.vectors
ExtractDelegator
p86
g2
Ntp87
Rp88
(dp89
g84
g77
sbsS'rx2'
p90
g0
(crpy2.robjects.vectors
DoubleExtractDelegator
p91
g2
Ntp92
Rp93
(dp94
g84
g77
sbsbsS'response_var_'
p95
S'P1575'
p96
sS'edge_cond_'
p97
(dp98
(I1
I2
tp99
(lp100
g24
aS'Y'
p101
ag25
ag28
as(I5
I6
tp102
(lp103
g24
ag25
ag28
as(I5
I7
tp104
(lp105
S'T'
p106
as(I1
I5
tp107
(lp108
S'T'
p109
as(I2
I3
tp110
(lp111
g24
ag101
ag25
ag28
as(I2
I4
tp112
(lp113
S'T'
p114
assS'class_pred_'
p115
g22
sS'CLASSES'
p116
cnumpy.core.multiarray
_reconstruct
p117
(cnumpy
ndarray
p118
(I0
tp119
S'b'
p120
tp121
Rp122
(I1
(I5
tp123
cnumpy
dtype
p124
(S'O8'
p125
I0
I1
tp126
Rp127
(I3
S'|'
p128
NNNI-1
I-1
I63
tp129
bI00
(lp130
g24
ag25
ag28
ag26
ag27
atp131
bsS'TREE_LEAF'
p132
(dp133
I1
I00
sI2
I00
sI3
I01
sI4
I01
sI5
I00
sI6
I01
sI7
I01
ssS'num_pass_'
p134
(dp135
I1
I71
sI2
I22
sI3
I12
sI4
I10
sI5
I49
sI6
I24
sI7
I25
ssS'error'
p136
(dp137
I1
F33.80281690140845
sI2
F22.727272727272727
sI3
F41.666666666666664
sI4
F0.0
sI5
F4.081632653061225
sI6
F8.333333333333332
sI7
F0.0
ssS'pvalue'
p138
g38
sS'class_names'
p139
g122
sS'n_node_samples'
p140
g135
sb.