ccopy_reg
_reconstructor
p0
(cmlx
tree_
p1
c__builtin__
object
p2
Ntp3
Rp4
(dp5
S'decision_rules_'
p6
(dp7
I3
S'P3403 %in% c("A", "C", "T") & P3403 %in% c("A", "NA")'
p8
sI4
S'P3403 %in% c("A", "C", "T") & P3403 %in% c("C", "NA", "T")'
p9
sI5
S'P3403 %in% c("G")'
p10
ssS'significant_feature_weight_'
p11
(dp12
S'P3403'
p13
F1.4064669249307817
ssS'children_left'
p14
(dp15
I1
I2
sI2
I3
sI3
NsI4
NsI5
NssS'ACCx_'
p16
F0.9859154929577465
sS'ACC_'
p17
F1.0
sS'value'
p18
(dp19
I1
(dp20
S'A'
p21
F30.0
sS'T'
p22
F10.0
sS'G'
p23
F31.0
ssI2
(dp24
g21
F30.0
sg22
F10.0
sg23
F0.0
ssI3
(dp25
g21
F30.0
sg22
F0.0
sg23
F0.0
ssI4
(dp26
g21
F0.0
sg22
F10.0
sg23
F0.0
ssI5
(dp27
g21
F0.0
sg22
F0.0
sg23
F31.0
sssS'tprob_'
p28
(dp29
I3
F0.4225352112676056
sI4
F0.14084507042253522
sI5
F0.43661971830985913
ssS'threshold'
p30
(dp31
I1
I0
sI2
F1.66004005383025e-05
ssS'children'
p32
(dp33
I1
c__builtin__
set
p34
((lp35
I2
aI5
atp36
Rp37
sI2
g34
((lp38
I3
aI4
atp39
Rp40
sI3
g34
((lp41
tp42
Rp43
sI4
g34
((lp44
tp45
Rp46
sI5
g34
((lp47
tp48
Rp49
ssS'children_right'
p50
(dp51
I1
I5
sI2
I4
sI3
NsI4
NsI5
NssS'feature'
p52
(dp53
I1
S'P3403'
p54
sI2
g13
sI3
S'3'
p55
sI4
S'4'
p56
sI5
S'5'
p57
ssS'nodes'
p58
crpy2.robjects.robject
_reduce_robjectmixin
p59
(S'X\n\x00\x00\x00\x02\x00\x03\x05\x03\x00\x02\x03\x00\x00\x00\x00\r\x00\x00\x00\x05\x00\x00\x00\x01\x00\x00\x00\x02\x00\x00\x00\x03\x00\x00\x00\x04\x00\x00\x00\x05'
p60
I13
crpy2.rinterface._rinterface
unserialize
p61
crpy2.robjects.vectors
IntVector
p62
tp63
Rp64
(dp65
S'ro'
p66
g0
(crpy2.robjects.vectors
VectorOperationsDelegator
p67
g2
Ntp68
Rp69
(dp70
S'_parent'
p71
g64
sbsS'rx'
p72
g0
(crpy2.robjects.vectors
ExtractDelegator
p73
g2
Ntp74
Rp75
(dp76
g71
g64
sbsS'rx2'
p77
g0
(crpy2.robjects.vectors
DoubleExtractDelegator
p78
g2
Ntp79
Rp80
(dp81
g71
g64
sbsbsS'response_var_'
p82
S'P4459'
p83
sS'edge_cond_'
p84
(dp85
(I1
I2
tp86
(lp87
g21
aS'C'
p88
ag22
as(I1
I5
tp89
(lp90
S'G'
p91
as(I2
I3
tp92
(lp93
g21
as(I2
I4
tp94
(lp95
g88
ag22
assS'class_pred_'
p96
g19
sS'CLASSES'
p97
cnumpy.core.multiarray
_reconstruct
p98
(cnumpy
ndarray
p99
(I0
tp100
S'b'
p101
tp102
Rp103
(I1
(I3
tp104
cnumpy
dtype
p105
(S'O8'
p106
I0
I1
tp107
Rp108
(I3
S'|'
p109
NNNI-1
I-1
I63
tp110
bI00
(lp111
g21
ag23
ag22
atp112
bsS'TREE_LEAF'
p113
(dp114
I1
I00
sI2
I00
sI3
I01
sI4
I01
sI5
I01
ssS'num_pass_'
p115
(dp116
I1
I71
sI2
I40
sI3
I30
sI4
I10
sI5
I31
ssS'error'
p117
(dp118
I1
F56.33802816901408
sI2
F25.0
sI3
F0.0
sI4
F0.0
sI5
F0.0
ssS'pvalue'
p119
g31
sS'class_names'
p120
g103
sS'n_node_samples'
p121
g116
sb.