ccopy_reg
_reconstructor
p0
(cmlx
tree_
p1
c__builtin__
object
p2
Ntp3
Rp4
(dp5
S'decision_rules_'
p6
(dp7
I4
S'P766 %in% c("A", "C", "N") & P1708 %in% c("A", "C", "N") & P835 %in% c("A", "T")'
p8
sI5
S'P766 %in% c("A", "C", "N") & P1708 %in% c("A", "C", "N") & P835 %in% c("C", "G", "N")'
p9
sI6
S'P766 %in% c("A", "C", "N") & P1708 %in% c("G")'
p10
sI7
S'P766 %in% c("G")'
p11
ssS'significant_feature_weight_'
p12
(dp13
S'P835'
p14
F0.25585809769445933
sS'P1708'
p15
F0.6338099801053247
sS'P766'
p16
F0.6008265194543905
ssS'children_left'
p17
(dp18
I1
I2
sI2
I3
sI3
I4
sI4
NsI5
NsI6
NsI7
NssS'ACCx_'
p19
F0.5352112676056338
sS'ACC_'
p20
F0.8450704225352113
sS'value'
p21
(dp22
I1
(dp23
S'A'
p24
F9.0
sS'C'
p25
F22.0
sS'T'
p26
F12.0
sS'G'
p27
F27.0
sS'N'
p28
F1.0
ssI2
(dp29
g24
F9.0
sg25
F18.0
sg26
F1.0
sg27
F27.0
sg28
F1.0
ssI3
(dp30
g24
F8.0
sg25
F0.0
sg26
F0.0
sg27
F27.0
sg28
F1.0
ssI4
(dp31
g24
F3.0
sg25
F0.0
sg26
F0.0
sg27
F26.0
sg28
F0.0
ssI5
(dp32
g24
F5.0
sg25
F0.0
sg26
F0.0
sg27
F1.0
sg28
F1.0
ssI6
(dp33
g24
F1.0
sg25
F18.0
sg26
F1.0
sg27
F0.0
sg28
F0.0
ssI7
(dp34
g24
F0.0
sg25
F4.0
sg26
F11.0
sg27
F0.0
sg28
F0.0
sssS'tprob_'
p35
(dp36
I4
F0.4084507042253521
sI5
F0.09859154929577464
sI6
F0.28169014084507044
sI7
F0.2112676056338028
ssS'threshold'
p37
(dp38
I1
I0
sI2
F6.994405055138491e-14
sI3
F2.1300254388068e-05
ssS'children'
p39
(dp40
I1
c__builtin__
set
p41
((lp42
I2
aI7
atp43
Rp44
sI2
g41
((lp45
I3
aI6
atp46
Rp47
sI3
g41
((lp48
I4
aI5
atp49
Rp50
sI4
g41
((lp51
tp52
Rp53
sI5
g41
((lp54
tp55
Rp56
sI6
g41
((lp57
tp58
Rp59
sI7
g41
((lp60
tp61
Rp62
ssS'children_right'
p63
(dp64
I1
I7
sI2
I6
sI3
I5
sI4
NsI5
NsI6
NsI7
NssS'feature'
p65
(dp66
I1
g16
sI2
g15
sI3
g14
sI4
S'4'
p67
sI5
S'5'
p68
sI6
S'6'
p69
sI7
S'7'
p70
ssS'nodes'
p71
crpy2.robjects.robject
_reduce_robjectmixin
p72
(S'X\n\x00\x00\x00\x02\x00\x03\x05\x03\x00\x02\x03\x00\x00\x00\x00\r\x00\x00\x00\x07\x00\x00\x00\x01\x00\x00\x00\x02\x00\x00\x00\x03\x00\x00\x00\x04\x00\x00\x00\x05\x00\x00\x00\x06\x00\x00\x00\x07'
p73
I13
crpy2.rinterface._rinterface
unserialize
p74
crpy2.robjects.vectors
IntVector
p75
tp76
Rp77
(dp78
S'ro'
p79
g0
(crpy2.robjects.vectors
VectorOperationsDelegator
p80
g2
Ntp81
Rp82
(dp83
S'_parent'
p84
g77
sbsS'rx'
p85
g0
(crpy2.robjects.vectors
ExtractDelegator
p86
g2
Ntp87
Rp88
(dp89
g84
g77
sbsS'rx2'
p90
g0
(crpy2.robjects.vectors
DoubleExtractDelegator
p91
g2
Ntp92
Rp93
(dp94
g84
g77
sbsbsS'response_var_'
p95
S'P852'
p96
sS'edge_cond_'
p97
(dp98
(I1
I2
tp99
(lp100
g24
ag25
ag28
as(I2
I6
tp101
(lp102
S'G'
p103
as(I2
I3
tp104
(lp105
g24
ag25
ag28
as(I1
I7
tp106
(lp107
S'G'
p108
as(I3
I4
tp109
(lp110
g24
ag26
as(I3
I5
tp111
(lp112
g25
ag27
ag28
assS'class_pred_'
p113
g22
sS'CLASSES'
p114
cnumpy.core.multiarray
_reconstruct
p115
(cnumpy
ndarray
p116
(I0
tp117
S'b'
p118
tp119
Rp120
(I1
(I5
tp121
cnumpy
dtype
p122
(S'O8'
p123
I0
I1
tp124
Rp125
(I3
S'|'
p126
NNNI-1
I-1
I63
tp127
bI00
(lp128
g24
ag25
ag27
ag28
ag26
atp129
bsS'TREE_LEAF'
p130
(dp131
I1
I00
sI2
I00
sI3
I00
sI4
I01
sI5
I01
sI6
I01
sI7
I01
ssS'num_pass_'
p132
(dp133
I1
I71
sI2
I56
sI3
I36
sI4
I29
sI5
I7
sI6
I20
sI7
I15
ssS'error'
p134
(dp135
I1
F61.97183098591549
sI2
F51.78571428571429
sI3
F25.0
sI4
F10.344827586206897
sI5
F28.57142857142857
sI6
F10.0
sI7
F26.666666666666668
ssS'pvalue'
p136
g38
sS'class_names'
p137
g120
sS'n_node_samples'
p138
g133
sb.