ccopy_reg
_reconstructor
p0
(cmlx
tree_
p1
c__builtin__
object
p2
Ntp3
Rp4
(dp5
S'decision_rules_'
p6
(dp7
I3
S'P466 %in% c("A", "C", "T") & P1072 %in% c("A", "G", "T")'
p8
sI4
S'P466 %in% c("A", "C", "T") & P1072 %in% c("C")'
p9
sI5
S'P466 %in% c("G")'
p10
ssS'significant_feature_weight_'
p11
(dp12
S'P466'
p13
F0.5982939774226246
sS'P1072'
p14
F0.6993686047637562
ssS'children_left'
p15
(dp16
I1
I2
sI2
I3
sI3
NsI4
NsI5
NssS'ACCx_'
p17
F0.8450704225352113
sS'ACC_'
p18
F0.9577464788732395
sS'value'
p19
(dp20
I1
(dp21
S'A'
p22
F19.0
sS'C'
p23
F13.0
sS'G'
p24
F39.0
ssI2
(dp25
g22
F19.0
sg23
F0.0
sg24
F39.0
ssI3
(dp26
g22
F17.0
sg23
F0.0
sg24
F1.0
ssI4
(dp27
g22
F2.0
sg23
F0.0
sg24
F38.0
ssI5
(dp28
g22
F0.0
sg23
F13.0
sg24
F0.0
sssS'tprob_'
p29
(dp30
I3
F0.2535211267605634
sI4
F0.5633802816901409
sI5
F0.18309859154929578
ssS'threshold'
p31
(dp32
I1
F3.65263375101677e-14
sI2
F4.97215841233078e-06
ssS'children'
p33
(dp34
I1
c__builtin__
set
p35
((lp36
I2
aI5
atp37
Rp38
sI2
g35
((lp39
I3
aI4
atp40
Rp41
sI3
g35
((lp42
tp43
Rp44
sI4
g35
((lp45
tp46
Rp47
sI5
g35
((lp48
tp49
Rp50
ssS'children_right'
p51
(dp52
I1
I5
sI2
I4
sI3
NsI4
NsI5
NssS'feature'
p53
(dp54
I1
g13
sI2
g14
sI3
S'3'
p55
sI4
S'4'
p56
sI5
S'5'
p57
ssS'nodes'
p58
crpy2.robjects.robject
_reduce_robjectmixin
p59
(S'X\n\x00\x00\x00\x02\x00\x03\x05\x03\x00\x02\x03\x00\x00\x00\x00\r\x00\x00\x00\x05\x00\x00\x00\x01\x00\x00\x00\x02\x00\x00\x00\x03\x00\x00\x00\x04\x00\x00\x00\x05'
p60
I13
crpy2.rinterface._rinterface
unserialize
p61
crpy2.robjects.vectors
IntVector
p62
tp63
Rp64
(dp65
S'ro'
p66
g0
(crpy2.robjects.vectors
VectorOperationsDelegator
p67
g2
Ntp68
Rp69
(dp70
S'_parent'
p71
g64
sbsS'rx'
p72
g0
(crpy2.robjects.vectors
ExtractDelegator
p73
g2
Ntp74
Rp75
(dp76
g71
g64
sbsS'rx2'
p77
g0
(crpy2.robjects.vectors
DoubleExtractDelegator
p78
g2
Ntp79
Rp80
(dp81
g71
g64
sbsbsS'response_var_'
p82
S'P625'
p83
sS'edge_cond_'
p84
(dp85
(I1
I2
tp86
(lp87
g22
ag23
aS'T'
p88
as(I1
I5
tp89
(lp90
S'G'
p91
as(I2
I3
tp92
(lp93
g22
ag88
ag24
as(I2
I4
tp94
(lp95
S'C'
p96
assS'class_pred_'
p97
g20
sS'CLASSES'
p98
cnumpy.core.multiarray
_reconstruct
p99
(cnumpy
ndarray
p100
(I0
tp101
S'b'
p102
tp103
Rp104
(I1
(I3
tp105
cnumpy
dtype
p106
(S'O8'
p107
I0
I1
tp108
Rp109
(I3
S'|'
p110
NNNI-1
I-1
I63
tp111
bI00
(lp112
g22
ag23
ag24
atp113
bsS'TREE_LEAF'
p114
(dp115
I1
I00
sI2
I00
sI3
I01
sI4
I01
sI5
I01
ssS'num_pass_'
p116
(dp117
I1
I71
sI2
I58
sI3
I18
sI4
I40
sI5
I13
ssS'error'
p118
(dp119
I1
F45.070422535211264
sI2
F32.758620689655174
sI3
F5.555555555555555
sI4
F5.0
sI5
F0.0
ssS'pvalue'
p120
g32
sS'class_names'
p121
g104
sS'n_node_samples'
p122
g117
sb.