ccopy_reg
_reconstructor
p0
(cmlx
tree_
p1
c__builtin__
object
p2
Ntp3
Rp4
(dp5
S'decision_rules_'
p6
(dp7
I3
S'P782 %in% c("A", "C", "N", "T") & P783 %in% c("A", "G")'
p8
sI4
S'P782 %in% c("A", "C", "N", "T") & P783 %in% c("C", "N", "T", "Y")'
p9
sI5
S'P782 %in% c("G")'
p10
ssS'significant_feature_weight_'
p11
(dp12
S'P783'
p13
F0.5057008432438517
sS'P782'
p14
F0.9664748866057782
ssS'children_left'
p15
(dp16
I1
I2
sI2
I3
sI3
NsI4
NsI5
NssS'ACCx_'
p17
F0.7323943661971831
sS'ACC_'
p18
F0.8028169014084507
sS'value'
p19
(dp20
I1
(dp21
S'A'
p22
F26.0
sS'C'
p23
F6.0
sS'G'
p24
F8.0
sS'N'
p25
F1.0
sS'T'
p26
F29.0
sS'Y'
p27
F1.0
ssI2
(dp28
g22
F26.0
sg23
F5.0
sg24
F7.0
sg25
F1.0
sg26
F2.0
sg27
F1.0
ssI3
(dp29
g22
F25.0
sg23
F0.0
sg24
F4.0
sg25
F0.0
sg26
F0.0
sg27
F0.0
ssI4
(dp30
g22
F1.0
sg23
F5.0
sg24
F3.0
sg25
F1.0
sg26
F2.0
sg27
F1.0
ssI5
(dp31
g22
F0.0
sg23
F1.0
sg24
F1.0
sg25
F0.0
sg26
F27.0
sg27
F0.0
sssS'tprob_'
p32
(dp33
I3
F0.4084507042253521
sI4
F0.18309859154929578
sI5
F0.4084507042253521
ssS'threshold'
p34
(dp35
I1
I0
sI2
F8.88178419700125e-16
ssS'children'
p36
(dp37
I1
c__builtin__
set
p38
((lp39
I2
aI5
atp40
Rp41
sI2
g38
((lp42
I3
aI4
atp43
Rp44
sI3
g38
((lp45
tp46
Rp47
sI4
g38
((lp48
tp49
Rp50
sI5
g38
((lp51
tp52
Rp53
ssS'children_right'
p54
(dp55
I1
I5
sI2
I4
sI3
NsI4
NsI5
NssS'feature'
p56
(dp57
I1
g14
sI2
g13
sI3
S'3'
p58
sI4
S'4'
p59
sI5
S'5'
p60
ssS'nodes'
p61
crpy2.robjects.robject
_reduce_robjectmixin
p62
(S'X\n\x00\x00\x00\x02\x00\x03\x05\x03\x00\x02\x03\x00\x00\x00\x00\r\x00\x00\x00\x05\x00\x00\x00\x01\x00\x00\x00\x02\x00\x00\x00\x03\x00\x00\x00\x04\x00\x00\x00\x05'
p63
I13
crpy2.rinterface._rinterface
unserialize
p64
crpy2.robjects.vectors
IntVector
p65
tp66
Rp67
(dp68
S'ro'
p69
g0
(crpy2.robjects.vectors
VectorOperationsDelegator
p70
g2
Ntp71
Rp72
(dp73
S'_parent'
p74
g67
sbsS'rx'
p75
g0
(crpy2.robjects.vectors
ExtractDelegator
p76
g2
Ntp77
Rp78
(dp79
g74
g67
sbsS'rx2'
p80
g0
(crpy2.robjects.vectors
DoubleExtractDelegator
p81
g2
Ntp82
Rp83
(dp84
g74
g67
sbsbsS'response_var_'
p85
S'P843'
p86
sS'edge_cond_'
p87
(dp88
(I1
I2
tp89
(lp90
g22
ag23
ag26
ag25
as(I1
I5
tp91
(lp92
S'G'
p93
as(I2
I3
tp94
(lp95
g22
ag24
as(I2
I4
tp96
(lp97
g27
ag23
ag26
ag25
assS'class_pred_'
p98
g20
sS'CLASSES'
p99
cnumpy.core.multiarray
_reconstruct
p100
(cnumpy
ndarray
p101
(I0
tp102
S'b'
p103
tp104
Rp105
(I1
(I6
tp106
cnumpy
dtype
p107
(S'O8'
p108
I0
I1
tp109
Rp110
(I3
S'|'
p111
NNNI-1
I-1
I63
tp112
bI00
(lp113
g22
ag23
ag24
ag25
ag26
ag27
atp114
bsS'TREE_LEAF'
p115
(dp116
I1
I00
sI2
I00
sI3
I01
sI4
I01
sI5
I01
ssS'num_pass_'
p117
(dp118
I1
I71
sI2
I42
sI3
I29
sI4
I13
sI5
I29
ssS'error'
p119
(dp120
I1
F59.15492957746479
sI2
F38.09523809523809
sI3
F13.793103448275861
sI4
F61.53846153846154
sI5
F6.896551724137931
ssS'pvalue'
p121
g35
sS'class_names'
p122
g105
sS'n_node_samples'
p123
g118
sb.