ccopy_reg
_reconstructor
p0
(cmlx
tree_
p1
c__builtin__
object
p2
Ntp3
Rp4
(dp5
S'decision_rules_'
p6
(dp7
I2
S'P1503 %in% c("A")'
p8
sI5
S'P1503 %in% c("C", "G", "T") & P3786 %in% c("A", "G", "T") & P3352 %in% c("A")'
p9
sI6
S'P1503 %in% c("C", "G", "T") & P3786 %in% c("A", "G", "T") & P3352 %in% c("G")'
p10
sI7
S'P1503 %in% c("C", "G", "T") & P3786 %in% c("C")'
p11
ssS'significant_feature_weight_'
p12
(dp13
S'P1503'
p14
F0.8553858191798267
sS'P3786'
p15
F0.4484046953301475
sS'P3352'
p16
F0.5402672089902762
ssS'children_left'
p17
(dp18
I1
I2
sI2
NsI3
I4
sI4
I5
sI5
NsI6
NsI7
NssS'ACCx_'
p19
F0.8169014084507042
sS'ACC_'
p20
F0.9577464788732395
sS'value'
p21
(dp22
I1
(dp23
S'A'
p24
F19.0
sS'C'
p25
F10.0
sS'T'
p26
F23.0
sS'G'
p27
F19.0
ssI2
(dp28
g24
F2.0
sg25
F0.0
sg26
F1.0
sg27
F19.0
ssI3
(dp29
g24
F17.0
sg25
F10.0
sg26
F22.0
sg27
F0.0
ssI4
(dp30
g24
F17.0
sg25
F0.0
sg26
F22.0
sg27
F0.0
ssI5
(dp31
g24
F17.0
sg25
F0.0
sg26
F0.0
sg27
F0.0
ssI6
(dp32
g24
F0.0
sg25
F0.0
sg26
F22.0
sg27
F0.0
ssI7
(dp33
g24
F0.0
sg25
F10.0
sg26
F0.0
sg27
F0.0
sssS'tprob_'
p34
(dp35
I2
F0.30985915492957744
sI5
F0.23943661971830985
sI6
F0.30985915492957744
sI7
F0.14084507042253522
ssS'threshold'
p36
(dp37
I1
I0
sI3
F8.32667268468867e-15
sI4
F3.45586925354358e-06
ssS'children'
p38
(dp39
I1
c__builtin__
set
p40
((lp41
I2
aI3
atp42
Rp43
sI2
g40
((lp44
tp45
Rp46
sI3
g40
((lp47
I4
aI7
atp48
Rp49
sI4
g40
((lp50
I5
aI6
atp51
Rp52
sI5
g40
((lp53
tp54
Rp55
sI6
g40
((lp56
tp57
Rp58
sI7
g40
((lp59
tp60
Rp61
ssS'children_right'
p62
(dp63
I1
I3
sI2
NsI3
I7
sI4
I6
sI5
NsI6
NsI7
NssS'feature'
p64
(dp65
I1
g14
sI2
S'2'
p66
sI3
g15
sI4
g16
sI5
S'5'
p67
sI6
S'6'
p68
sI7
S'7'
p69
ssS'nodes'
p70
crpy2.robjects.robject
_reduce_robjectmixin
p71
(S'X\n\x00\x00\x00\x02\x00\x03\x05\x03\x00\x02\x03\x00\x00\x00\x00\r\x00\x00\x00\x07\x00\x00\x00\x01\x00\x00\x00\x02\x00\x00\x00\x03\x00\x00\x00\x04\x00\x00\x00\x05\x00\x00\x00\x06\x00\x00\x00\x07'
p72
I13
crpy2.rinterface._rinterface
unserialize
p73
crpy2.robjects.vectors
IntVector
p74
tp75
Rp76
(dp77
S'ro'
p78
g0
(crpy2.robjects.vectors
VectorOperationsDelegator
p79
g2
Ntp80
Rp81
(dp82
S'_parent'
p83
g76
sbsS'rx'
p84
g0
(crpy2.robjects.vectors
ExtractDelegator
p85
g2
Ntp86
Rp87
(dp88
g83
g76
sbsS'rx2'
p89
g0
(crpy2.robjects.vectors
DoubleExtractDelegator
p90
g2
Ntp91
Rp92
(dp93
g83
g76
sbsbsS'response_var_'
p94
S'P694'
p95
sS'edge_cond_'
p96
(dp97
(I1
I2
tp98
(lp99
S'A'
p100
as(I1
I3
tp101
(lp102
g25
ag26
ag27
as(I4
I6
tp103
(lp104
S'G'
p105
as(I4
I5
tp106
(lp107
S'A'
p108
as(I3
I7
tp109
(lp110
S'C'
p111
as(I3
I4
tp112
(lp113
g24
ag26
ag27
assS'class_pred_'
p114
g22
sS'CLASSES'
p115
cnumpy.core.multiarray
_reconstruct
p116
(cnumpy
ndarray
p117
(I0
tp118
S'b'
p119
tp120
Rp121
(I1
(I4
tp122
cnumpy
dtype
p123
(S'O8'
p124
I0
I1
tp125
Rp126
(I3
S'|'
p127
NNNI-1
I-1
I63
tp128
bI00
(lp129
g24
ag25
ag27
ag26
atp130
bsS'TREE_LEAF'
p131
(dp132
I1
I00
sI2
I01
sI3
I00
sI4
I00
sI5
I01
sI6
I01
sI7
I01
ssS'num_pass_'
p133
(dp134
I1
I71
sI2
I22
sI3
I49
sI4
I39
sI5
I17
sI6
I22
sI7
I10
ssS'error'
p135
(dp136
I1
F67.6056338028169
sI2
F13.636363636363637
sI3
F55.10204081632653
sI4
F43.58974358974359
sI5
F0.0
sI6
F0.0
sI7
F0.0
ssS'pvalue'
p137
g37
sS'class_names'
p138
g121
sS'n_node_samples'
p139
g134
sb.