ccopy_reg
_reconstructor
p0
(cmlx
tree_
p1
c__builtin__
object
p2
Ntp3
Rp4
(dp5
S'decision_rules_'
p6
(dp7
I2
S'P843 %in% c("A")'
p8
sI5
S'P843 %in% c("C", "G", "N", "T", "Y") & P1689 %in% c("A", "N", "T", "Y") & P773 %in% c("NA", "C")'
p9
sI6
S'P843 %in% c("C", "G", "N", "T", "Y") & P1689 %in% c("A", "N", "T", "Y") & P773 %in% c("NA", "N", "T")'
p10
sI7
S'P843 %in% c("C", "G", "N", "T", "Y") & P1689 %in% c("C")'
p11
ssS'significant_feature_weight_'
p12
(dp13
S'P773'
p14
F0.2704224676731888
sS'P843'
p15
F0.9283872063454519
sS'P1689'
p16
F0.6259780598680591
ssS'children_left'
p17
(dp18
I1
I2
sI2
NsI3
I4
sI4
I5
sI5
NsI6
NsI7
NssS'ACCx_'
p19
F0.7464788732394366
sS'ACC_'
p20
F0.8309859154929577
sS'value'
p21
(dp22
I1
(dp23
S'A'
p24
F20.0
sS'R'
p25
F1.0
sS'T'
p26
F6.0
sS'G'
p27
F43.0
sS'N'
p28
F1.0
ssI2
(dp29
g24
F1.0
sg25
F0.0
sg26
F0.0
sg27
F25.0
sg28
F0.0
ssI3
(dp30
g24
F19.0
sg25
F1.0
sg26
F6.0
sg27
F18.0
sg28
F1.0
ssI4
(dp31
g24
F11.0
sg25
F1.0
sg26
F6.0
sg27
F1.0
sg28
F1.0
ssI5
(dp32
g24
F11.0
sg25
F1.0
sg26
F0.0
sg27
F0.0
sg28
F0.0
ssI6
(dp33
g24
F0.0
sg25
F0.0
sg26
F6.0
sg27
F1.0
sg28
F1.0
ssI7
(dp34
g24
F8.0
sg25
F0.0
sg26
F0.0
sg27
F17.0
sg28
F0.0
sssS'tprob_'
p35
(dp36
I2
F0.36619718309859156
sI5
F0.16901408450704225
sI6
F0.11267605633802817
sI7
F0.352112676056338
ssS'threshold'
p37
(dp38
I1
I0
sI3
F1.60249591374395e-12
sI4
F0.0361078218820385
ssS'children'
p39
(dp40
I1
c__builtin__
set
p41
((lp42
I2
aI3
atp43
Rp44
sI2
g41
((lp45
tp46
Rp47
sI3
g41
((lp48
I4
aI7
atp49
Rp50
sI4
g41
((lp51
I5
aI6
atp52
Rp53
sI5
g41
((lp54
tp55
Rp56
sI6
g41
((lp57
tp58
Rp59
sI7
g41
((lp60
tp61
Rp62
ssS'children_right'
p63
(dp64
I1
I3
sI2
NsI3
I7
sI4
I6
sI5
NsI6
NsI7
NssS'feature'
p65
(dp66
I1
g15
sI2
S'2'
p67
sI3
g16
sI4
g14
sI5
S'5'
p68
sI6
S'6'
p69
sI7
S'7'
p70
ssS'nodes'
p71
crpy2.robjects.robject
_reduce_robjectmixin
p72
(S'X\n\x00\x00\x00\x02\x00\x03\x05\x03\x00\x02\x03\x00\x00\x00\x00\r\x00\x00\x00\x07\x00\x00\x00\x01\x00\x00\x00\x02\x00\x00\x00\x03\x00\x00\x00\x04\x00\x00\x00\x05\x00\x00\x00\x06\x00\x00\x00\x07'
p73
I13
crpy2.rinterface._rinterface
unserialize
p74
crpy2.robjects.vectors
IntVector
p75
tp76
Rp77
(dp78
S'ro'
p79
g0
(crpy2.robjects.vectors
VectorOperationsDelegator
p80
g2
Ntp81
Rp82
(dp83
S'_parent'
p84
g77
sbsS'rx'
p85
g0
(crpy2.robjects.vectors
ExtractDelegator
p86
g2
Ntp87
Rp88
(dp89
g84
g77
sbsS'rx2'
p90
g0
(crpy2.robjects.vectors
DoubleExtractDelegator
p91
g2
Ntp92
Rp93
(dp94
g84
g77
sbsbsS'response_var_'
p95
S'P813'
p96
sS'edge_cond_'
p97
(dp98
(I1
I2
tp99
(lp100
S'A'
p101
as(I1
I3
tp102
(lp103
S'Y'
p104
aS'C'
p105
ag26
ag27
ag28
as(I4
I6
tp106
(lp107
g26
ag28
as(I4
I5
tp108
(lp109
g105
as(I3
I7
tp110
(lp111
S'C'
p112
as(I3
I4
tp113
(lp114
g24
ag104
ag26
ag28
assS'class_pred_'
p115
g22
sS'CLASSES'
p116
cnumpy.core.multiarray
_reconstruct
p117
(cnumpy
ndarray
p118
(I0
tp119
S'b'
p120
tp121
Rp122
(I1
(I5
tp123
cnumpy
dtype
p124
(S'O8'
p125
I0
I1
tp126
Rp127
(I3
S'|'
p128
NNNI-1
I-1
I63
tp129
bI00
(lp130
g24
ag27
ag28
ag25
ag26
atp131
bsS'TREE_LEAF'
p132
(dp133
I1
I00
sI2
I01
sI3
I00
sI4
I00
sI5
I01
sI6
I01
sI7
I01
ssS'num_pass_'
p134
(dp135
I1
I71
sI2
I26
sI3
I45
sI4
I20
sI5
I12
sI6
I8
sI7
I25
ssS'error'
p136
(dp137
I1
F39.43661971830986
sI2
F3.8461538461538463
sI3
F57.77777777777778
sI4
F45.0
sI5
F8.333333333333332
sI6
F25.0
sI7
F32.0
ssS'pvalue'
p138
g38
sS'class_names'
p139
g122
sS'n_node_samples'
p140
g135
sb.