ccopy_reg
_reconstructor
p0
(cmlx
tree_
p1
c__builtin__
object
p2
Ntp3
Rp4
(dp5
S'decision_rules_'
p6
(dp7
I8
S'P3786 %in% c("A", "G", "T") & P622 %in% c("C")'
p8
sI9
S'P3786 %in% c("C")'
p9
sI4
S'P3786 %in% c("A", "G", "T") & P622 %in% c("A", "G", "T") & P2050 %in% c("A", "C")'
p10
sI6
S'P3786 %in% c("A", "G", "T") & P622 %in% c("A", "G", "T") & P2050 %in% c("G", "T") & P3786 %in% c("A", "NA", "T")'
p11
sI7
S'P3786 %in% c("A", "G", "T") & P622 %in% c("A", "G", "T") & P2050 %in% c("G", "T") & P3786 %in% c("NA", "G")'
p12
ssS'significant_feature_weight_'
p13
(dp14
S'P2050'
p15
F0.2654504307807623
sS'P3786'
p16
F0.8007517787224323
sS'P622'
p17
F0.7014989578737594
ssS'children_left'
p18
(dp19
I1
I9
sI2
I8
sI3
I4
sI4
NsI5
I6
sI6
NsI7
NsI8
NsI9
NssS'ACCx_'
p20
F0.8028169014084507
sS'ACC_'
p21
F0.8873239436619719
sS'value'
p22
(dp23
I1
(dp24
S'A'
p25
F12.0
sS'C'
p26
F12.0
sS'T'
p27
F30.0
sS'G'
p28
F17.0
ssI2
(dp29
g25
F12.0
sg26
F2.0
sg27
F30.0
sg28
F17.0
ssI3
(dp30
g25
F12.0
sg26
F2.0
sg27
F8.0
sg28
F17.0
ssI4
(dp31
g25
F0.0
sg26
F2.0
sg27
F5.0
sg28
F0.0
ssI5
(dp32
g25
F12.0
sg26
F0.0
sg27
F3.0
sg28
F17.0
ssI6
(dp33
g25
F3.0
sg26
F0.0
sg27
F3.0
sg28
F17.0
ssI7
(dp34
g25
F9.0
sg26
F0.0
sg27
F0.0
sg28
F0.0
ssI8
(dp35
g25
F0.0
sg26
F0.0
sg27
F22.0
sg28
F0.0
ssI9
(dp36
g25
F0.0
sg26
F10.0
sg27
F0.0
sg28
F0.0
sssS'tprob_'
p37
(dp38
I8
F0.30985915492957744
sI9
F0.14084507042253522
sI4
F0.09859154929577464
sI6
F0.323943661971831
sI7
F0.1267605633802817
ssS'threshold'
p39
(dp40
I1
I0
sI2
F2.8885672742617893e-09
sI3
F4.5035808441395994e-06
sI5
F0.0301347429587174
ssS'children'
p41
(dp42
I1
c__builtin__
set
p43
((lp44
I9
aI2
atp45
Rp46
sI2
g43
((lp47
I8
aI3
atp48
Rp49
sI3
g43
((lp50
I4
aI5
atp51
Rp52
sI4
g43
((lp53
tp54
Rp55
sI5
g43
((lp56
I6
aI7
atp57
Rp58
sI6
g43
((lp59
tp60
Rp61
sI7
g43
((lp62
tp63
Rp64
sI8
g43
((lp65
tp66
Rp67
sI9
g43
((lp68
tp69
Rp70
ssS'children_right'
p71
(dp72
I1
I2
sI2
I3
sI3
I5
sI4
NsI5
I7
sI6
NsI7
NsI8
NsI9
NssS'feature'
p73
(dp74
I1
g16
sI2
g17
sI3
g15
sI4
S'4'
p75
sI5
S'P3786'
p76
sI6
S'6'
p77
sI7
S'7'
p78
sI8
S'8'
p79
sI9
S'9'
p80
ssS'nodes'
p81
crpy2.robjects.robject
_reduce_robjectmixin
p82
(S'X\n\x00\x00\x00\x02\x00\x03\x05\x03\x00\x02\x03\x00\x00\x00\x00\r\x00\x00\x00\t\x00\x00\x00\x01\x00\x00\x00\x02\x00\x00\x00\x03\x00\x00\x00\x04\x00\x00\x00\x05\x00\x00\x00\x06\x00\x00\x00\x07\x00\x00\x00\x08\x00\x00\x00\t'
p83
I13
crpy2.rinterface._rinterface
unserialize
p84
crpy2.robjects.vectors
IntVector
p85
tp86
Rp87
(dp88
S'ro'
p89
g0
(crpy2.robjects.vectors
VectorOperationsDelegator
p90
g2
Ntp91
Rp92
(dp93
S'_parent'
p94
g87
sbsS'rx'
p95
g0
(crpy2.robjects.vectors
ExtractDelegator
p96
g2
Ntp97
Rp98
(dp99
g94
g87
sbsS'rx2'
p100
g0
(crpy2.robjects.vectors
DoubleExtractDelegator
p101
g2
Ntp102
Rp103
(dp104
g94
g87
sbsbsS'response_var_'
p105
S'P1128'
p106
sS'edge_cond_'
p107
(dp108
(I1
I2
tp109
(lp110
g25
ag27
ag28
as(I5
I6
tp111
(lp112
g25
ag27
as(I2
I8
tp113
(lp114
S'C'
p115
as(I5
I7
tp116
(lp117
g28
as(I2
I3
tp118
(lp119
g25
ag27
ag28
as(I1
I9
tp120
(lp121
S'C'
p122
as(I3
I4
tp123
(lp124
g25
ag26
as(I3
I5
tp125
(lp126
g27
ag28
assS'class_pred_'
p127
g23
sS'CLASSES'
p128
cnumpy.core.multiarray
_reconstruct
p129
(cnumpy
ndarray
p130
(I0
tp131
S'b'
p132
tp133
Rp134
(I1
(I4
tp135
cnumpy
dtype
p136
(S'O8'
p137
I0
I1
tp138
Rp139
(I3
S'|'
p140
NNNI-1
I-1
I63
tp141
bI00
(lp142
g25
ag26
ag28
ag27
atp143
bsS'TREE_LEAF'
p144
(dp145
I1
I00
sI2
I00
sI3
I00
sI4
I01
sI5
I00
sI6
I01
sI7
I01
sI8
I01
sI9
I01
ssS'num_pass_'
p146
(dp147
I1
I71
sI2
I61
sI3
I39
sI4
I7
sI5
I32
sI6
I23
sI7
I9
sI8
I22
sI9
I10
ssS'error'
p148
(dp149
I1
F57.74647887323943
sI2
F50.81967213114754
sI3
F56.41025641025641
sI4
F28.57142857142857
sI5
F46.875
sI6
F26.08695652173913
sI7
F0.0
sI8
F0.0
sI9
F0.0
ssS'pvalue'
p150
g40
sS'class_names'
p151
g134
sS'n_node_samples'
p152
g147
sb.