ccopy_reg
_reconstructor
p0
(cmlx
tree_
p1
c__builtin__
object
p2
Ntp3
Rp4
(dp5
S'decision_rules_'
p6
(dp7
I2
S'P2958 %in% c("A")'
p8
sI4
S'P2958 %in% c("C", "G", "T", "Y") & P2958 %in% c("NA", "T", "Y")'
p9
sI6
S'P2958 %in% c("C", "G", "T", "Y") & P2958 %in% c("NA", "C", "G") & P335 %in% c("A")'
p10
sI7
S'P2958 %in% c("C", "G", "T", "Y") & P2958 %in% c("NA", "C", "G") & P335 %in% c("C", "G", "T")'
p11
ssS'significant_feature_weight_'
p12
(dp13
S'P2958'
p14
F1.4721757298496299
sS'P335'
p15
F0.0
ssS'children_left'
p16
(dp17
I1
I2
sI2
NsI3
I4
sI4
NsI5
I6
sI6
NsI7
NssS'ACCx_'
p18
F0.9014084507042254
sS'ACC_'
p19
F0.8732394366197183
sS'value'
p20
(dp21
I1
(dp22
S'A'
p23
F26.0
sS'Y'
p24
F1.0
sS'C'
p25
F27.0
sS'T'
p26
F12.0
sS'G'
p27
F5.0
ssI2
(dp28
g23
F26.0
sg24
F0.0
sg25
F1.0
sg26
F0.0
sg27
F2.0
ssI3
(dp29
g23
F0.0
sg24
F1.0
sg25
F26.0
sg26
F12.0
sg27
F3.0
ssI4
(dp30
g23
F0.0
sg24
F1.0
sg25
F0.0
sg26
F10.0
sg27
F2.0
ssI5
(dp31
g23
F0.0
sg24
F0.0
sg25
F26.0
sg26
F2.0
sg27
F1.0
ssI6
(dp32
g23
F0.0
sg24
F0.0
sg25
F21.0
sg26
F0.0
sg27
F0.0
ssI7
(dp33
g23
F0.0
sg24
F0.0
sg25
F5.0
sg26
F2.0
sg27
F1.0
sssS'tprob_'
p34
(dp35
I2
F0.4084507042253521
sI4
F0.18309859154929578
sI6
F0.29577464788732394
sI7
F0.11267605633802817
ssS'threshold'
p36
(dp37
I1
I0
sI3
F6.600368918086021e-09
sI5
F0.00046701064166931904
ssS'children'
p38
(dp39
I1
c__builtin__
set
p40
((lp41
I2
aI3
atp42
Rp43
sI2
g40
((lp44
tp45
Rp46
sI3
g40
((lp47
I4
aI5
atp48
Rp49
sI4
g40
((lp50
tp51
Rp52
sI5
g40
((lp53
I6
aI7
atp54
Rp55
sI6
g40
((lp56
tp57
Rp58
sI7
g40
((lp59
tp60
Rp61
ssS'children_right'
p62
(dp63
I1
I3
sI2
NsI3
I5
sI4
NsI5
I7
sI6
NsI7
NssS'feature'
p64
(dp65
I1
g14
sI2
S'2'
p66
sI3
S'P2958'
p67
sI4
S'4'
p68
sI5
g15
sI6
S'6'
p69
sI7
S'7'
p70
ssS'nodes'
p71
crpy2.robjects.robject
_reduce_robjectmixin
p72
(S'X\n\x00\x00\x00\x02\x00\x03\x05\x03\x00\x02\x03\x00\x00\x00\x00\r\x00\x00\x00\x07\x00\x00\x00\x01\x00\x00\x00\x02\x00\x00\x00\x03\x00\x00\x00\x04\x00\x00\x00\x05\x00\x00\x00\x06\x00\x00\x00\x07'
p73
I13
crpy2.rinterface._rinterface
unserialize
p74
crpy2.robjects.vectors
IntVector
p75
tp76
Rp77
(dp78
S'ro'
p79
g0
(crpy2.robjects.vectors
VectorOperationsDelegator
p80
g2
Ntp81
Rp82
(dp83
S'_parent'
p84
g77
sbsS'rx'
p85
g0
(crpy2.robjects.vectors
ExtractDelegator
p86
g2
Ntp87
Rp88
(dp89
g84
g77
sbsS'rx2'
p90
g0
(crpy2.robjects.vectors
DoubleExtractDelegator
p91
g2
Ntp92
Rp93
(dp94
g84
g77
sbsbsS'response_var_'
p95
S'P4614'
p96
sS'edge_cond_'
p97
(dp98
(I1
I2
tp99
(lp100
S'A'
p101
as(I1
I3
tp102
(lp103
g24
ag25
ag26
ag27
as(I5
I6
tp104
(lp105
S'A'
p106
as(I5
I7
tp107
(lp108
g25
ag26
ag27
as(I3
I4
tp109
(lp110
g24
ag26
as(I3
I5
tp111
(lp112
g25
ag27
assS'class_pred_'
p113
g21
sS'CLASSES'
p114
cnumpy.core.multiarray
_reconstruct
p115
(cnumpy
ndarray
p116
(I0
tp117
S'b'
p118
tp119
Rp120
(I1
(I5
tp121
cnumpy
dtype
p122
(S'O8'
p123
I0
I1
tp124
Rp125
(I3
S'|'
p126
NNNI-1
I-1
I63
tp127
bI00
(lp128
g23
ag25
ag27
ag26
ag24
atp129
bsS'TREE_LEAF'
p130
(dp131
I1
I00
sI2
I01
sI3
I00
sI4
I01
sI5
I00
sI6
I01
sI7
I01
ssS'num_pass_'
p132
(dp133
I1
I71
sI2
I29
sI3
I42
sI4
I13
sI5
I29
sI6
I21
sI7
I8
ssS'error'
p134
(dp135
I1
F61.971830985915496
sI2
F10.344827586206897
sI3
F38.095238095238095
sI4
F23.076923076923077
sI5
F10.344827586206897
sI6
F0.0
sI7
F37.5
ssS'pvalue'
p136
g37
sS'class_names'
p137
g120
sS'n_node_samples'
p138
g133
sb.