ccopy_reg
_reconstructor
p0
(cmlx
tree_
p1
c__builtin__
object
p2
Ntp3
Rp4
(dp5
S'decision_rules_'
p6
(dp7
I2
S'P1714 %in% c("A")'
p8
sI4
S'P1714 %in% c("C", "G") & P118 %in% c("A", "C")'
p9
sI6
S'P1714 %in% c("C", "G") & P118 %in% c("G") & P2170 %in% c("A")'
p10
sI7
S'P1714 %in% c("C", "G") & P118 %in% c("G") & P2170 %in% c("G", "T")'
p11
ssS'significant_feature_weight_'
p12
(dp13
S'P118'
p14
F0.27114755522942335
sS'P2170'
p15
F0.0
sS'P1714'
p16
F0.8797754044924959
ssS'children_left'
p17
(dp18
I1
I2
sI2
NsI3
I4
sI4
NsI5
I6
sI6
NsI7
NssS'ACCx_'
p19
F0.8873239436619719
sS'ACC_'
p20
F0.8873239436619719
sS'value'
p21
(dp22
I1
(dp23
S'A'
p24
F29.0
sS'T'
p25
F3.0
sS'G'
p26
F39.0
ssI2
(dp27
g24
F0.0
sg25
F0.0
sg26
F30.0
ssI3
(dp28
g24
F29.0
sg25
F3.0
sg26
F9.0
ssI4
(dp29
g24
F0.0
sg25
F3.0
sg26
F4.0
ssI5
(dp30
g24
F29.0
sg25
F0.0
sg26
F5.0
ssI6
(dp31
g24
F23.0
sg25
F0.0
sg26
F1.0
ssI7
(dp32
g24
F6.0
sg25
F0.0
sg26
F4.0
sssS'tprob_'
p33
(dp34
I2
F0.4225352112676056
sI4
F0.09859154929577464
sI6
F0.3380281690140845
sI7
F0.14084507042253522
ssS'threshold'
p35
(dp36
I1
I0
sI3
F1.4668062608969e-07
sI5
F0.0134994890214543
ssS'children'
p37
(dp38
I1
c__builtin__
set
p39
((lp40
I2
aI3
atp41
Rp42
sI2
g39
((lp43
tp44
Rp45
sI3
g39
((lp46
I4
aI5
atp47
Rp48
sI4
g39
((lp49
tp50
Rp51
sI5
g39
((lp52
I6
aI7
atp53
Rp54
sI6
g39
((lp55
tp56
Rp57
sI7
g39
((lp58
tp59
Rp60
ssS'children_right'
p61
(dp62
I1
I3
sI2
NsI3
I5
sI4
NsI5
I7
sI6
NsI7
NssS'feature'
p63
(dp64
I1
g16
sI2
S'2'
p65
sI3
g14
sI4
S'4'
p66
sI5
g15
sI6
S'6'
p67
sI7
S'7'
p68
ssS'nodes'
p69
crpy2.robjects.robject
_reduce_robjectmixin
p70
(S'X\n\x00\x00\x00\x02\x00\x03\x05\x03\x00\x02\x03\x00\x00\x00\x00\r\x00\x00\x00\x07\x00\x00\x00\x01\x00\x00\x00\x02\x00\x00\x00\x03\x00\x00\x00\x04\x00\x00\x00\x05\x00\x00\x00\x06\x00\x00\x00\x07'
p71
I13
crpy2.rinterface._rinterface
unserialize
p72
crpy2.robjects.vectors
IntVector
p73
tp74
Rp75
(dp76
S'ro'
p77
g0
(crpy2.robjects.vectors
VectorOperationsDelegator
p78
g2
Ntp79
Rp80
(dp81
S'_parent'
p82
g75
sbsS'rx'
p83
g0
(crpy2.robjects.vectors
ExtractDelegator
p84
g2
Ntp85
Rp86
(dp87
g82
g75
sbsS'rx2'
p88
g0
(crpy2.robjects.vectors
DoubleExtractDelegator
p89
g2
Ntp90
Rp91
(dp92
g82
g75
sbsbsS'response_var_'
p93
S'P1744'
p94
sS'edge_cond_'
p95
(dp96
(I1
I2
tp97
(lp98
S'A'
p99
as(I1
I3
tp100
(lp101
S'C'
p102
ag26
as(I5
I6
tp103
(lp104
S'A'
p105
as(I5
I7
tp106
(lp107
g25
ag26
as(I3
I4
tp108
(lp109
g24
ag102
as(I3
I5
tp110
(lp111
S'G'
p112
assS'class_pred_'
p113
g22
sS'CLASSES'
p114
cnumpy.core.multiarray
_reconstruct
p115
(cnumpy
ndarray
p116
(I0
tp117
S'b'
p118
tp119
Rp120
(I1
(I3
tp121
cnumpy
dtype
p122
(S'O8'
p123
I0
I1
tp124
Rp125
(I3
S'|'
p126
NNNI-1
I-1
I63
tp127
bI00
(lp128
g24
ag26
ag25
atp129
bsS'TREE_LEAF'
p130
(dp131
I1
I00
sI2
I01
sI3
I00
sI4
I01
sI5
I00
sI6
I01
sI7
I01
ssS'num_pass_'
p132
(dp133
I1
I71
sI2
I30
sI3
I41
sI4
I7
sI5
I34
sI6
I24
sI7
I10
ssS'error'
p134
(dp135
I1
F45.07042253521127
sI2
F0.0
sI3
F29.26829268292683
sI4
F42.857142857142854
sI5
F14.705882352941178
sI6
F4.166666666666666
sI7
F40.0
ssS'pvalue'
p136
g36
sS'class_names'
p137
g120
sS'n_node_samples'
p138
g133
sb.