ccopy_reg
_reconstructor
p0
(cmlx
tree_
p1
c__builtin__
object
p2
Ntp3
Rp4
(dp5
S'decision_rules_'
p6
(dp7
I8
S'P41 %in% c("A", "G", "R") & P2934 %in% c("T") & P4284 %in% c("C", "NA", "T")'
p8
sI9
S'P41 %in% c("C", "T")'
p9
sI4
S'P41 %in% c("A", "G", "R") & P2934 %in% c("C", "G", "Y") & P1248 %in% c("A", "C", "R", "NA")'
p10
sI5
S'P41 %in% c("A", "G", "R") & P2934 %in% c("C", "G", "Y") & P1248 %in% c("G", "NA")'
p11
sI7
S'P41 %in% c("A", "G", "R") & P2934 %in% c("T") & P4284 %in% c("A", "NA")'
p12
ssS'significant_feature_weight_'
p13
(dp14
S'P1248'
p15
F0.281690070492905
sS'P2934'
p16
F0.7746478684175505
sS'P41'
p17
F0.3203970129399113
sS'P4284'
p18
F0.0
ssS'children_left'
p19
(dp20
I1
I9
sI2
I3
sI3
I4
sI4
NsI5
NsI6
I8
sI7
NsI8
NsI9
NssS'ACCx_'
p21
F0.7605633802816901
sS'ACC_'
p22
F0.8450704225352113
sS'value'
p23
(dp24
I1
(dp25
S'A'
p26
F8.0
sS'Y'
p27
F1.0
sS'C'
p28
F44.0
sS'T'
p29
F18.0
ssI2
(dp30
g26
F2.0
sg27
F1.0
sg28
F44.0
sg29
F17.0
ssI3
(dp31
g26
F2.0
sg27
F1.0
sg28
F6.0
sg29
F11.0
ssI4
(dp32
g26
F2.0
sg27
F1.0
sg28
F6.0
sg29
F1.0
ssI5
(dp33
g26
F0.0
sg27
F0.0
sg28
F0.0
sg29
F10.0
ssI6
(dp34
g26
F0.0
sg27
F0.0
sg28
F38.0
sg29
F6.0
ssI7
(dp35
g26
F0.0
sg27
F0.0
sg28
F25.0
sg29
F1.0
ssI8
(dp36
g26
F0.0
sg27
F0.0
sg28
F13.0
sg29
F5.0
ssI9
(dp37
g26
F6.0
sg27
F0.0
sg28
F0.0
sg29
F1.0
sssS'tprob_'
p38
(dp39
I8
F0.2535211267605634
sI9
F0.09859154929577464
sI4
F0.14084507042253522
sI5
F0.14084507042253522
sI7
F0.36619718309859156
ssS'threshold'
p40
(dp41
I1
I0
sI2
I0
sI3
F0.000155443263608057
sI6
F0.000121378723407117
ssS'children'
p42
(dp43
I1
c__builtin__
set
p44
((lp45
I9
aI2
atp46
Rp47
sI2
g44
((lp48
I3
aI6
atp49
Rp50
sI3
g44
((lp51
I4
aI5
atp52
Rp53
sI4
g44
((lp54
tp55
Rp56
sI5
g44
((lp57
tp58
Rp59
sI6
g44
((lp60
I8
aI7
atp61
Rp62
sI7
g44
((lp63
tp64
Rp65
sI8
g44
((lp66
tp67
Rp68
sI9
g44
((lp69
tp70
Rp71
ssS'children_right'
p72
(dp73
I1
I2
sI2
I6
sI3
I5
sI4
NsI5
NsI6
I7
sI7
NsI8
NsI9
NssS'feature'
p74
(dp75
I1
g17
sI2
g16
sI3
g15
sI4
S'4'
p76
sI5
S'5'
p77
sI6
g18
sI7
S'7'
p78
sI8
S'8'
p79
sI9
S'9'
p80
ssS'nodes'
p81
crpy2.robjects.robject
_reduce_robjectmixin
p82
(S'X\n\x00\x00\x00\x02\x00\x03\x05\x03\x00\x02\x03\x00\x00\x00\x00\r\x00\x00\x00\t\x00\x00\x00\x01\x00\x00\x00\x02\x00\x00\x00\x03\x00\x00\x00\x04\x00\x00\x00\x05\x00\x00\x00\x06\x00\x00\x00\x07\x00\x00\x00\x08\x00\x00\x00\t'
p83
I13
crpy2.rinterface._rinterface
unserialize
p84
crpy2.robjects.vectors
IntVector
p85
tp86
Rp87
(dp88
S'ro'
p89
g0
(crpy2.robjects.vectors
VectorOperationsDelegator
p90
g2
Ntp91
Rp92
(dp93
S'_parent'
p94
g87
sbsS'rx'
p95
g0
(crpy2.robjects.vectors
ExtractDelegator
p96
g2
Ntp97
Rp98
(dp99
g94
g87
sbsS'rx2'
p100
g0
(crpy2.robjects.vectors
DoubleExtractDelegator
p101
g2
Ntp102
Rp103
(dp104
g94
g87
sbsbsS'response_var_'
p105
S'P3783'
p106
sS'edge_cond_'
p107
(dp108
(I1
I2
tp109
(lp110
g26
aS'R'
p111
aS'G'
p112
as(I2
I6
tp113
(lp114
S'T'
p115
as(I6
I7
tp116
(lp117
g26
as(I6
I8
tp118
(lp119
g28
ag29
as(I2
I3
tp120
(lp121
g27
ag28
ag112
as(I1
I9
tp122
(lp123
g28
ag29
as(I3
I4
tp124
(lp125
g26
ag28
ag111
as(I3
I5
tp126
(lp127
g112
assS'class_pred_'
p128
g24
sS'CLASSES'
p129
cnumpy.core.multiarray
_reconstruct
p130
(cnumpy
ndarray
p131
(I0
tp132
S'b'
p133
tp134
Rp135
(I1
(I4
tp136
cnumpy
dtype
p137
(S'O8'
p138
I0
I1
tp139
Rp140
(I3
S'|'
p141
NNNI-1
I-1
I63
tp142
bI00
(lp143
g26
ag28
ag29
ag27
atp144
bsS'TREE_LEAF'
p145
(dp146
I1
I00
sI2
I00
sI3
I00
sI4
I01
sI5
I01
sI6
I00
sI7
I01
sI8
I01
sI9
I01
ssS'num_pass_'
p147
(dp148
I1
I71
sI2
I64
sI3
I20
sI4
I10
sI5
I10
sI6
I44
sI7
I26
sI8
I18
sI9
I7
ssS'error'
p149
(dp150
I1
F38.028169014084504
sI2
F31.25
sI3
F45.0
sI4
F40.0
sI5
F0.0
sI6
F13.636363636363635
sI7
F3.8461538461538463
sI8
F27.77777777777778
sI9
F14.285714285714285
ssS'pvalue'
p151
g41
sS'class_names'
p152
g135
sS'n_node_samples'
p153
g148
sb.