ccopy_reg
_reconstructor
p0
(cmlx
tree_
p1
c__builtin__
object
p2
Ntp3
Rp4
(dp5
S'decision_rules_'
p6
(dp7
I2
S'P1042 %in% c("A")'
p8
sI4
S'P1042 %in% c("C", "K", "T") & P1629 %in% c("A")'
p9
sI5
S'P1042 %in% c("C", "K", "T") & P1629 %in% c("C", "G", "K", "T")'
p10
ssS'significant_feature_weight_'
p11
(dp12
S'P1042'
p13
F0.9553659798631832
sS'P1629'
p14
F0.589583983850424
ssS'children_left'
p15
(dp16
I1
I2
sI2
NsI3
I4
sI4
NsI5
NssS'ACCx_'
p17
F0.9154929577464789
sS'ACC_'
p18
F0.8591549295774648
sS'value'
p19
(dp20
I1
(dp21
S'A'
p22
F31.0
sS'Y'
p23
F1.0
sS'C'
p24
F25.0
sS'T'
p25
F14.0
ssI2
(dp26
g22
F28.0
sg23
F0.0
sg24
F0.0
sg25
F0.0
ssI3
(dp27
g22
F3.0
sg23
F1.0
sg24
F25.0
sg25
F14.0
ssI4
(dp28
g22
F0.0
sg23
F0.0
sg24
F22.0
sg25
F3.0
ssI5
(dp29
g22
F3.0
sg23
F1.0
sg24
F3.0
sg25
F11.0
sssS'tprob_'
p30
(dp31
I2
F0.39436619718309857
sI4
F0.352112676056338
sI5
F0.2535211267605634
ssS'threshold'
p32
(dp33
I1
I0
sI3
F5.76316772082919e-13
ssS'children'
p34
(dp35
I1
c__builtin__
set
p36
((lp37
I2
aI3
atp38
Rp39
sI2
g36
((lp40
tp41
Rp42
sI3
g36
((lp43
I4
aI5
atp44
Rp45
sI4
g36
((lp46
tp47
Rp48
sI5
g36
((lp49
tp50
Rp51
ssS'children_right'
p52
(dp53
I1
I3
sI2
NsI3
I5
sI4
NsI5
NssS'feature'
p54
(dp55
I1
g13
sI2
S'2'
p56
sI3
g14
sI4
S'4'
p57
sI5
S'5'
p58
ssS'nodes'
p59
crpy2.robjects.robject
_reduce_robjectmixin
p60
(S'X\n\x00\x00\x00\x02\x00\x03\x05\x03\x00\x02\x03\x00\x00\x00\x00\r\x00\x00\x00\x05\x00\x00\x00\x01\x00\x00\x00\x02\x00\x00\x00\x03\x00\x00\x00\x04\x00\x00\x00\x05'
p61
I13
crpy2.rinterface._rinterface
unserialize
p62
crpy2.robjects.vectors
IntVector
p63
tp64
Rp65
(dp66
S'ro'
p67
g0
(crpy2.robjects.vectors
VectorOperationsDelegator
p68
g2
Ntp69
Rp70
(dp71
S'_parent'
p72
g65
sbsS'rx'
p73
g0
(crpy2.robjects.vectors
ExtractDelegator
p74
g2
Ntp75
Rp76
(dp77
g72
g65
sbsS'rx2'
p78
g0
(crpy2.robjects.vectors
DoubleExtractDelegator
p79
g2
Ntp80
Rp81
(dp82
g72
g65
sbsbsS'response_var_'
p83
S'P2365'
p84
sS'edge_cond_'
p85
(dp86
(I1
I2
tp87
(lp88
S'A'
p89
as(I1
I3
tp90
(lp91
g24
aS'K'
p92
ag25
as(I3
I4
tp93
(lp94
S'A'
p95
as(I3
I5
tp96
(lp97
g24
ag92
aS'G'
p98
ag25
assS'class_pred_'
p99
g20
sS'CLASSES'
p100
cnumpy.core.multiarray
_reconstruct
p101
(cnumpy
ndarray
p102
(I0
tp103
S'b'
p104
tp105
Rp106
(I1
(I4
tp107
cnumpy
dtype
p108
(S'O8'
p109
I0
I1
tp110
Rp111
(I3
S'|'
p112
NNNI-1
I-1
I63
tp113
bI00
(lp114
g22
ag24
ag25
ag23
atp115
bsS'TREE_LEAF'
p116
(dp117
I1
I00
sI2
I01
sI3
I00
sI4
I01
sI5
I01
ssS'num_pass_'
p118
(dp119
I1
I71
sI2
I28
sI3
I43
sI4
I25
sI5
I18
ssS'error'
p120
(dp121
I1
F56.33802816901408
sI2
F0.0
sI3
F41.86046511627907
sI4
F12.0
sI5
F38.888888888888886
ssS'pvalue'
p122
g33
sS'class_names'
p123
g106
sS'n_node_samples'
p124
g119
sb.