ccopy_reg
_reconstructor
p0
(cmlx
tree_
p1
c__builtin__
object
p2
Ntp3
Rp4
(dp5
S'decision_rules_'
p6
(dp7
I8
S'P198 %in% c("A", "C", "G") & P1659 %in% c("G")'
p8
sI9
S'P198 %in% c("T")'
p9
sI4
S'P198 %in% c("A", "C", "G") & P1659 %in% c("A", "C", "N", "T") & P3441 %in% c("A", "G", "T")'
p10
sI6
S'P198 %in% c("A", "C", "G") & P1659 %in% c("A", "C", "N", "T") & P3441 %in% c("C") & P2609 %in% c("A", "NA", "T")'
p11
sI7
S'P198 %in% c("A", "C", "G") & P1659 %in% c("A", "C", "N", "T") & P3441 %in% c("C") & P2609 %in% c("C", "NA")'
p12
ssS'significant_feature_weight_'
p13
(dp14
S'P1659'
p15
F0.6724793034287283
sS'P2609'
p16
F0.0
sS'P198'
p17
F0.3999206427334255
sS'P3441'
p18
F0.37398859560320086
ssS'children_left'
p19
(dp20
I1
I9
sI2
I8
sI3
I4
sI4
NsI5
I6
sI6
NsI7
NsI8
NsI9
NssS'ACCx_'
p21
F0.7323943661971831
sS'ACC_'
p22
F0.8732394366197183
sS'value'
p23
(dp24
I1
(dp25
S'A'
p26
F15.0
sS'C'
p27
F38.0
sS'T'
p28
F15.0
sS'G'
p29
F3.0
ssI2
(dp30
g26
F8.0
sg27
F38.0
sg28
F14.0
sg29
F3.0
ssI3
(dp31
g26
F8.0
sg27
F36.0
sg28
F0.0
sg29
F3.0
ssI4
(dp32
g26
F5.0
sg27
F0.0
sg28
F0.0
sg29
F3.0
ssI5
(dp33
g26
F3.0
sg27
F36.0
sg28
F0.0
sg29
F0.0
ssI6
(dp34
g26
F3.0
sg27
F12.0
sg28
F0.0
sg29
F0.0
ssI7
(dp35
g26
F0.0
sg27
F24.0
sg28
F0.0
sg29
F0.0
ssI8
(dp36
g26
F0.0
sg27
F2.0
sg28
F14.0
sg29
F0.0
ssI9
(dp37
g26
F7.0
sg27
F0.0
sg28
F1.0
sg29
F0.0
sssS'tprob_'
p38
(dp39
I8
F0.22535211267605634
sI9
F0.11267605633802817
sI4
F0.11267605633802817
sI6
F0.2112676056338028
sI7
F0.3380281690140845
ssS'threshold'
p40
(dp41
I1
F1.1102230246251599e-15
sI2
F2.2204460492503099e-16
sI3
F6.01618532769521e-10
sI5
F2.7369286128342602e-05
ssS'children'
p42
(dp43
I1
c__builtin__
set
p44
((lp45
I9
aI2
atp46
Rp47
sI2
g44
((lp48
I8
aI3
atp49
Rp50
sI3
g44
((lp51
I4
aI5
atp52
Rp53
sI4
g44
((lp54
tp55
Rp56
sI5
g44
((lp57
I6
aI7
atp58
Rp59
sI6
g44
((lp60
tp61
Rp62
sI7
g44
((lp63
tp64
Rp65
sI8
g44
((lp66
tp67
Rp68
sI9
g44
((lp69
tp70
Rp71
ssS'children_right'
p72
(dp73
I1
I2
sI2
I3
sI3
I5
sI4
NsI5
I7
sI6
NsI7
NsI8
NsI9
NssS'feature'
p74
(dp75
I1
g17
sI2
g15
sI3
g18
sI4
S'4'
p76
sI5
g16
sI6
S'6'
p77
sI7
S'7'
p78
sI8
S'8'
p79
sI9
S'9'
p80
ssS'nodes'
p81
crpy2.robjects.robject
_reduce_robjectmixin
p82
(S'X\n\x00\x00\x00\x02\x00\x03\x05\x03\x00\x02\x03\x00\x00\x00\x00\r\x00\x00\x00\t\x00\x00\x00\x01\x00\x00\x00\x02\x00\x00\x00\x03\x00\x00\x00\x04\x00\x00\x00\x05\x00\x00\x00\x06\x00\x00\x00\x07\x00\x00\x00\x08\x00\x00\x00\t'
p83
I13
crpy2.rinterface._rinterface
unserialize
p84
crpy2.robjects.vectors
IntVector
p85
tp86
Rp87
(dp88
S'ro'
p89
g0
(crpy2.robjects.vectors
VectorOperationsDelegator
p90
g2
Ntp91
Rp92
(dp93
S'_parent'
p94
g87
sbsS'rx'
p95
g0
(crpy2.robjects.vectors
ExtractDelegator
p96
g2
Ntp97
Rp98
(dp99
g94
g87
sbsS'rx2'
p100
g0
(crpy2.robjects.vectors
DoubleExtractDelegator
p101
g2
Ntp102
Rp103
(dp104
g94
g87
sbsbsS'response_var_'
p105
S'P3072'
p106
sS'edge_cond_'
p107
(dp108
(I1
I2
tp109
(lp110
g26
ag27
ag29
as(I5
I6
tp111
(lp112
g26
ag28
as(I2
I8
tp113
(lp114
S'G'
p115
as(I5
I7
tp116
(lp117
g27
as(I2
I3
tp118
(lp119
g26
ag27
ag28
aS'N'
p120
as(I1
I9
tp121
(lp122
S'T'
p123
as(I3
I4
tp124
(lp125
g26
ag28
ag29
as(I3
I5
tp126
(lp127
S'C'
p128
assS'class_pred_'
p129
g24
sS'CLASSES'
p130
cnumpy.core.multiarray
_reconstruct
p131
(cnumpy
ndarray
p132
(I0
tp133
S'b'
p134
tp135
Rp136
(I1
(I4
tp137
cnumpy
dtype
p138
(S'O8'
p139
I0
I1
tp140
Rp141
(I3
S'|'
p142
NNNI-1
I-1
I63
tp143
bI00
(lp144
g26
ag27
ag29
ag28
atp145
bsS'TREE_LEAF'
p146
(dp147
I1
I00
sI2
I00
sI3
I00
sI4
I01
sI5
I00
sI6
I01
sI7
I01
sI8
I01
sI9
I01
ssS'num_pass_'
p148
(dp149
I1
I71
sI2
I63
sI3
I47
sI4
I8
sI5
I39
sI6
I15
sI7
I24
sI8
I16
sI9
I8
ssS'error'
p150
(dp151
I1
F46.478873239436616
sI2
F39.682539682539684
sI3
F23.404255319148938
sI4
F37.5
sI5
F7.6923076923076925
sI6
F20.0
sI7
F0.0
sI8
F12.5
sI9
F12.5
ssS'pvalue'
p152
g41
sS'class_names'
p153
g136
sS'n_node_samples'
p154
g149
sb.