ccopy_reg
_reconstructor
p0
(cmlx
tree_
p1
c__builtin__
object
p2
Ntp3
Rp4
(dp5
S'decision_rules_'
p6
(dp7
I3
S'P4821 %in% c("A", "C") & P1002 %in% c("A", "T")'
p8
sI4
S'P4821 %in% c("A", "C") & P1002 %in% c("C")'
p9
sI6
S'P4821 %in% c("G", "T") & P3531 %in% c("A", "C", "G")'
p10
sI7
S'P4821 %in% c("G", "T") & P3531 %in% c("T")'
p11
ssS'significant_feature_weight_'
p12
(dp13
S'P3531'
p14
F0.0
sS'P1002'
p15
F0.35752974130115
sS'P4821'
p16
F0.9283872063454519
ssS'children_left'
p17
(dp18
I1
I2
sI2
I3
sI3
NsI4
NsI5
I6
sI6
NsI7
NssS'ACCx_'
p19
F0.8309859154929577
sS'ACC_'
p20
F0.8732394366197183
sS'value'
p21
(dp22
I1
(dp23
S'A'
p24
F47.0
sS'C'
p25
F4.0
sS'G'
p26
F20.0
ssI2
(dp27
g24
F7.0
sg25
F4.0
sg26
F15.0
ssI3
(dp28
g24
F7.0
sg25
F4.0
sg26
F0.0
ssI4
(dp29
g24
F0.0
sg25
F0.0
sg26
F15.0
ssI5
(dp30
g24
F40.0
sg25
F0.0
sg26
F5.0
ssI6
(dp31
g24
F10.0
sg25
F0.0
sg26
F4.0
ssI7
(dp32
g24
F30.0
sg25
F0.0
sg26
F1.0
sssS'tprob_'
p33
(dp34
I3
F0.15492957746478872
sI4
F0.2112676056338028
sI6
F0.19718309859154928
sI7
F0.43661971830985913
ssS'threshold'
p35
(dp36
I1
F4.88498130835069e-15
sI2
F1.76390619488487e-06
sI5
F0.000788997331599983
ssS'children'
p37
(dp38
I1
c__builtin__
set
p39
((lp40
I2
aI5
atp41
Rp42
sI2
g39
((lp43
I3
aI4
atp44
Rp45
sI3
g39
((lp46
tp47
Rp48
sI4
g39
((lp49
tp50
Rp51
sI5
g39
((lp52
I6
aI7
atp53
Rp54
sI6
g39
((lp55
tp56
Rp57
sI7
g39
((lp58
tp59
Rp60
ssS'children_right'
p61
(dp62
I1
I5
sI2
I4
sI3
NsI4
NsI5
I7
sI6
NsI7
NssS'feature'
p63
(dp64
I1
g16
sI2
g15
sI3
S'3'
p65
sI4
S'4'
p66
sI5
g14
sI6
S'6'
p67
sI7
S'7'
p68
ssS'nodes'
p69
crpy2.robjects.robject
_reduce_robjectmixin
p70
(S'X\n\x00\x00\x00\x02\x00\x03\x05\x03\x00\x02\x03\x00\x00\x00\x00\r\x00\x00\x00\x07\x00\x00\x00\x01\x00\x00\x00\x02\x00\x00\x00\x03\x00\x00\x00\x04\x00\x00\x00\x05\x00\x00\x00\x06\x00\x00\x00\x07'
p71
I13
crpy2.rinterface._rinterface
unserialize
p72
crpy2.robjects.vectors
IntVector
p73
tp74
Rp75
(dp76
S'ro'
p77
g0
(crpy2.robjects.vectors
VectorOperationsDelegator
p78
g2
Ntp79
Rp80
(dp81
S'_parent'
p82
g75
sbsS'rx'
p83
g0
(crpy2.robjects.vectors
ExtractDelegator
p84
g2
Ntp85
Rp86
(dp87
g82
g75
sbsS'rx2'
p88
g0
(crpy2.robjects.vectors
DoubleExtractDelegator
p89
g2
Ntp90
Rp91
(dp92
g82
g75
sbsbsS'response_var_'
p93
S'P2514'
p94
sS'edge_cond_'
p95
(dp96
(I1
I2
tp97
(lp98
g24
ag25
as(I5
I6
tp99
(lp100
g24
ag25
ag26
as(I5
I7
tp101
(lp102
S'T'
p103
as(I1
I5
tp104
(lp105
S'T'
p106
ag26
as(I2
I3
tp107
(lp108
g24
ag106
as(I2
I4
tp109
(lp110
S'C'
p111
assS'class_pred_'
p112
g22
sS'CLASSES'
p113
cnumpy.core.multiarray
_reconstruct
p114
(cnumpy
ndarray
p115
(I0
tp116
S'b'
p117
tp118
Rp119
(I1
(I3
tp120
cnumpy
dtype
p121
(S'O8'
p122
I0
I1
tp123
Rp124
(I3
S'|'
p125
NNNI-1
I-1
I63
tp126
bI00
(lp127
g24
ag25
ag26
atp128
bsS'TREE_LEAF'
p129
(dp130
I1
I00
sI2
I00
sI3
I01
sI4
I01
sI5
I00
sI6
I01
sI7
I01
ssS'num_pass_'
p131
(dp132
I1
I71
sI2
I26
sI3
I11
sI4
I15
sI5
I45
sI6
I14
sI7
I31
ssS'error'
p133
(dp134
I1
F33.802816901408455
sI2
F42.30769230769231
sI3
F36.36363636363637
sI4
F0.0
sI5
F11.11111111111111
sI6
F28.57142857142857
sI7
F3.225806451612903
ssS'pvalue'
p135
g36
sS'class_names'
p136
g119
sS'n_node_samples'
p137
g132
sb.