ccopy_reg
_reconstructor
p0
(cmlx
tree_
p1
c__builtin__
object
p2
Ntp3
Rp4
(dp5
S'decision_rules_'
p6
(dp7
I2
S'P3168 %in% c("A")'
p8
sI5
S'P3168 %in% c("C", "G", "T") & P4053 %in% c("A", "G", "T", "Y") & P4053 %in% c("A", "NA")'
p9
sI6
S'P3168 %in% c("C", "G", "T") & P4053 %in% c("A", "G", "T", "Y") & P4053 %in% c("NA", "G", "T", "Y")'
p10
sI7
S'P3168 %in% c("C", "G", "T") & P4053 %in% c("C")'
p11
ssS'significant_feature_weight_'
p12
(dp13
S'P4053'
p14
F0.9026423312847769
sS'P3168'
p15
F0.8950604861176664
ssS'children_left'
p16
(dp17
I1
I2
sI2
NsI3
I4
sI4
I5
sI5
NsI6
NsI7
NssS'ACCx_'
p18
F0.676056338028169
sS'ACC_'
p19
F0.8309859154929577
sS'value'
p20
(dp21
I1
(dp22
S'A'
p23
F27.0
sS'C'
p24
F11.0
sS'T'
p25
F23.0
sS'G'
p26
F10.0
ssI2
(dp27
g23
F2.0
sg24
F0.0
sg25
F22.0
sg26
F0.0
ssI3
(dp28
g23
F25.0
sg24
F11.0
sg25
F1.0
sg26
F10.0
ssI4
(dp29
g23
F24.0
sg24
F0.0
sg25
F1.0
sg26
F9.0
ssI5
(dp30
g23
F21.0
sg24
F0.0
sg25
F0.0
sg26
F4.0
ssI6
(dp31
g23
F3.0
sg24
F0.0
sg25
F1.0
sg26
F5.0
ssI7
(dp32
g23
F1.0
sg24
F11.0
sg25
F0.0
sg26
F1.0
sssS'tprob_'
p33
(dp34
I2
F0.3380281690140845
sI5
F0.352112676056338
sI6
F0.1267605633802817
sI7
F0.18309859154929578
ssS'threshold'
p35
(dp36
I1
I0
sI3
F6.01296790136985e-13
sI4
F3.54283297574476e-05
ssS'children'
p37
(dp38
I1
c__builtin__
set
p39
((lp40
I2
aI3
atp41
Rp42
sI2
g39
((lp43
tp44
Rp45
sI3
g39
((lp46
I4
aI7
atp47
Rp48
sI4
g39
((lp49
I5
aI6
atp50
Rp51
sI5
g39
((lp52
tp53
Rp54
sI6
g39
((lp55
tp56
Rp57
sI7
g39
((lp58
tp59
Rp60
ssS'children_right'
p61
(dp62
I1
I3
sI2
NsI3
I7
sI4
I6
sI5
NsI6
NsI7
NssS'feature'
p63
(dp64
I1
g15
sI2
S'2'
p65
sI3
S'P4053'
p66
sI4
g14
sI5
S'5'
p67
sI6
S'6'
p68
sI7
S'7'
p69
ssS'nodes'
p70
crpy2.robjects.robject
_reduce_robjectmixin
p71
(S'X\n\x00\x00\x00\x02\x00\x03\x05\x03\x00\x02\x03\x00\x00\x00\x00\r\x00\x00\x00\x07\x00\x00\x00\x01\x00\x00\x00\x02\x00\x00\x00\x03\x00\x00\x00\x04\x00\x00\x00\x05\x00\x00\x00\x06\x00\x00\x00\x07'
p72
I13
crpy2.rinterface._rinterface
unserialize
p73
crpy2.robjects.vectors
IntVector
p74
tp75
Rp76
(dp77
S'ro'
p78
g0
(crpy2.robjects.vectors
VectorOperationsDelegator
p79
g2
Ntp80
Rp81
(dp82
S'_parent'
p83
g76
sbsS'rx'
p84
g0
(crpy2.robjects.vectors
ExtractDelegator
p85
g2
Ntp86
Rp87
(dp88
g83
g76
sbsS'rx2'
p89
g0
(crpy2.robjects.vectors
DoubleExtractDelegator
p90
g2
Ntp91
Rp92
(dp93
g83
g76
sbsbsS'response_var_'
p94
S'P2433'
p95
sS'edge_cond_'
p96
(dp97
(I1
I2
tp98
(lp99
S'A'
p100
as(I1
I3
tp101
(lp102
g24
ag25
ag26
as(I4
I6
tp103
(lp104
S'Y'
p105
ag25
ag26
as(I4
I5
tp106
(lp107
g23
as(I3
I7
tp108
(lp109
S'C'
p110
as(I3
I4
tp111
(lp112
g23
ag105
ag25
ag26
assS'class_pred_'
p113
g21
sS'CLASSES'
p114
cnumpy.core.multiarray
_reconstruct
p115
(cnumpy
ndarray
p116
(I0
tp117
S'b'
p118
tp119
Rp120
(I1
(I4
tp121
cnumpy
dtype
p122
(S'O8'
p123
I0
I1
tp124
Rp125
(I3
S'|'
p126
NNNI-1
I-1
I63
tp127
bI00
(lp128
g23
ag24
ag26
ag25
atp129
bsS'TREE_LEAF'
p130
(dp131
I1
I00
sI2
I01
sI3
I00
sI4
I00
sI5
I01
sI6
I01
sI7
I01
ssS'num_pass_'
p132
(dp133
I1
I71
sI2
I24
sI3
I47
sI4
I34
sI5
I25
sI6
I9
sI7
I13
ssS'error'
p134
(dp135
I1
F61.971830985915496
sI2
F8.333333333333332
sI3
F46.808510638297875
sI4
F29.411764705882355
sI5
F16.0
sI6
F44.44444444444444
sI7
F15.384615384615385
ssS'pvalue'
p136
g36
sS'class_names'
p137
g120
sS'n_node_samples'
p138
g133
sb.