ccopy_reg
_reconstructor
p0
(cmlx
tree_
p1
c__builtin__
object
p2
Ntp3
Rp4
(dp5
S'decision_rules_'
p6
(dp7
I3
S'P1117 %in% c("A", "G", "T") & P1117 %in% c("A", "NA", "G")'
p8
sI4
S'P1117 %in% c("A", "G", "T") & P1117 %in% c("NA", "T")'
p9
sI5
S'P1117 %in% c("C")'
p10
ssS'significant_feature_weight_'
p11
(dp12
S'P1117'
p13
F1.4332274866393644
ssS'children_left'
p14
(dp15
I1
I2
sI2
I3
sI3
NsI4
NsI5
NssS'ACCx_'
p16
F0.5352112676056338
sS'ACC_'
p17
F0.9859154929577465
sS'value'
p18
(dp19
I1
(dp20
S'A'
p21
F29.0
sS'C'
p22
F31.0
sS'T'
p23
F1.0
sS'G'
p24
F10.0
ssI2
(dp25
g21
F29.0
sg22
F0.0
sg23
F1.0
sg24
F10.0
ssI3
(dp26
g21
F0.0
sg22
F0.0
sg23
F1.0
sg24
F10.0
ssI4
(dp27
g21
F29.0
sg22
F0.0
sg23
F0.0
sg24
F0.0
ssI5
(dp28
g21
F0.0
sg22
F31.0
sg23
F0.0
sg24
F0.0
sssS'tprob_'
p29
(dp30
I3
F0.15492957746478872
sI4
F0.4084507042253521
sI5
F0.43661971830985913
ssS'threshold'
p31
(dp32
I1
I0
sI2
F2.25652829755063e-12
ssS'children'
p33
(dp34
I1
c__builtin__
set
p35
((lp36
I2
aI5
atp37
Rp38
sI2
g35
((lp39
I3
aI4
atp40
Rp41
sI3
g35
((lp42
tp43
Rp44
sI4
g35
((lp45
tp46
Rp47
sI5
g35
((lp48
tp49
Rp50
ssS'children_right'
p51
(dp52
I1
I5
sI2
I4
sI3
NsI4
NsI5
NssS'feature'
p53
(dp54
I1
S'P1117'
p55
sI2
g13
sI3
S'3'
p56
sI4
S'4'
p57
sI5
S'5'
p58
ssS'nodes'
p59
crpy2.robjects.robject
_reduce_robjectmixin
p60
(S'X\n\x00\x00\x00\x02\x00\x03\x05\x03\x00\x02\x03\x00\x00\x00\x00\r\x00\x00\x00\x05\x00\x00\x00\x01\x00\x00\x00\x02\x00\x00\x00\x03\x00\x00\x00\x04\x00\x00\x00\x05'
p61
I13
crpy2.rinterface._rinterface
unserialize
p62
crpy2.robjects.vectors
IntVector
p63
tp64
Rp65
(dp66
S'ro'
p67
g0
(crpy2.robjects.vectors
VectorOperationsDelegator
p68
g2
Ntp69
Rp70
(dp71
S'_parent'
p72
g65
sbsS'rx'
p73
g0
(crpy2.robjects.vectors
ExtractDelegator
p74
g2
Ntp75
Rp76
(dp77
g72
g65
sbsS'rx2'
p78
g0
(crpy2.robjects.vectors
DoubleExtractDelegator
p79
g2
Ntp80
Rp81
(dp82
g72
g65
sbsbsS'response_var_'
p83
S'P3607'
p84
sS'edge_cond_'
p85
(dp86
(I1
I2
tp87
(lp88
g21
ag23
ag24
as(I1
I5
tp89
(lp90
S'C'
p91
as(I2
I3
tp92
(lp93
g21
ag24
as(I2
I4
tp94
(lp95
g23
assS'class_pred_'
p96
g19
sS'CLASSES'
p97
cnumpy.core.multiarray
_reconstruct
p98
(cnumpy
ndarray
p99
(I0
tp100
S'b'
p101
tp102
Rp103
(I1
(I4
tp104
cnumpy
dtype
p105
(S'O8'
p106
I0
I1
tp107
Rp108
(I3
S'|'
p109
NNNI-1
I-1
I63
tp110
bI00
(lp111
g21
ag22
ag24
ag23
atp112
bsS'TREE_LEAF'
p113
(dp114
I1
I00
sI2
I00
sI3
I01
sI4
I01
sI5
I01
ssS'num_pass_'
p115
(dp116
I1
I71
sI2
I40
sI3
I11
sI4
I29
sI5
I31
ssS'error'
p117
(dp118
I1
F56.33802816901409
sI2
F27.5
sI3
F9.090909090909092
sI4
F0.0
sI5
F0.0
ssS'pvalue'
p119
g32
sS'class_names'
p120
g103
sS'n_node_samples'
p121
g116
sb.