ccopy_reg
_reconstructor
p0
(cmlx
tree_
p1
c__builtin__
object
p2
Ntp3
Rp4
(dp5
S'decision_rules_'
p6
(dp7
I3
S'P758 %in% c("A", "G", "N", "T") & P1305 %in% c("A", "C", "G")'
p8
sI4
S'P758 %in% c("A", "G", "N", "T") & P1305 %in% c("T")'
p9
sI5
S'P758 %in% c("C")'
p10
ssS'significant_feature_weight_'
p11
(dp12
S'P1305'
p13
F0.236319496092884
sS'P758'
p14
F0.8869204198421856
ssS'children_left'
p15
(dp16
I1
I2
sI2
I3
sI3
NsI4
NsI5
NssS'ACCx_'
p17
F0.7746478873239436
sS'ACC_'
p18
F0.8732394366197183
sS'value'
p19
(dp20
I1
(dp21
S'A'
p22
F44.0
sS'C'
p23
F1.0
sS'T'
p24
F2.0
sS'G'
p25
F24.0
ssI2
(dp26
g22
F7.0
sg23
F1.0
sg24
F2.0
sg25
F21.0
ssI3
(dp27
g22
F4.0
sg23
F1.0
sg24
F2.0
sg25
F0.0
ssI4
(dp28
g22
F3.0
sg23
F0.0
sg24
F0.0
sg25
F21.0
ssI5
(dp29
g22
F37.0
sg23
F0.0
sg24
F0.0
sg25
F3.0
sssS'tprob_'
p30
(dp31
I3
F0.09859154929577464
sI4
F0.3380281690140845
sI5
F0.5633802816901409
ssS'threshold'
p32
(dp33
I1
I0
sI2
F7.719753725154989e-09
ssS'children'
p34
(dp35
I1
c__builtin__
set
p36
((lp37
I2
aI5
atp38
Rp39
sI2
g36
((lp40
I3
aI4
atp41
Rp42
sI3
g36
((lp43
tp44
Rp45
sI4
g36
((lp46
tp47
Rp48
sI5
g36
((lp49
tp50
Rp51
ssS'children_right'
p52
(dp53
I1
I5
sI2
I4
sI3
NsI4
NsI5
NssS'feature'
p54
(dp55
I1
g14
sI2
g13
sI3
S'3'
p56
sI4
S'4'
p57
sI5
S'5'
p58
ssS'nodes'
p59
crpy2.robjects.robject
_reduce_robjectmixin
p60
(S'X\n\x00\x00\x00\x02\x00\x03\x05\x03\x00\x02\x03\x00\x00\x00\x00\r\x00\x00\x00\x05\x00\x00\x00\x01\x00\x00\x00\x02\x00\x00\x00\x03\x00\x00\x00\x04\x00\x00\x00\x05'
p61
I13
crpy2.rinterface._rinterface
unserialize
p62
crpy2.robjects.vectors
IntVector
p63
tp64
Rp65
(dp66
S'ro'
p67
g0
(crpy2.robjects.vectors
VectorOperationsDelegator
p68
g2
Ntp69
Rp70
(dp71
S'_parent'
p72
g65
sbsS'rx'
p73
g0
(crpy2.robjects.vectors
ExtractDelegator
p74
g2
Ntp75
Rp76
(dp77
g72
g65
sbsS'rx2'
p78
g0
(crpy2.robjects.vectors
DoubleExtractDelegator
p79
g2
Ntp80
Rp81
(dp82
g72
g65
sbsbsS'response_var_'
p83
S'P415'
p84
sS'edge_cond_'
p85
(dp86
(I1
I2
tp87
(lp88
g22
ag24
ag25
aS'N'
p89
as(I1
I5
tp90
(lp91
S'C'
p92
as(I2
I3
tp93
(lp94
g22
ag23
ag25
as(I2
I4
tp95
(lp96
S'T'
p97
assS'class_pred_'
p98
g20
sS'CLASSES'
p99
cnumpy.core.multiarray
_reconstruct
p100
(cnumpy
ndarray
p101
(I0
tp102
S'b'
p103
tp104
Rp105
(I1
(I4
tp106
cnumpy
dtype
p107
(S'O8'
p108
I0
I1
tp109
Rp110
(I3
S'|'
p111
NNNI-1
I-1
I63
tp112
bI00
(lp113
g22
ag23
ag25
ag24
atp114
bsS'TREE_LEAF'
p115
(dp116
I1
I00
sI2
I00
sI3
I01
sI4
I01
sI5
I01
ssS'num_pass_'
p117
(dp118
I1
I71
sI2
I31
sI3
I7
sI4
I24
sI5
I40
ssS'error'
p119
(dp120
I1
F38.028169014084504
sI2
F32.25806451612903
sI3
F42.857142857142854
sI4
F12.5
sI5
F7.5
ssS'pvalue'
p121
g33
sS'class_names'
p122
g105
sS'n_node_samples'
p123
g118
sb.