ccopy_reg
_reconstructor
p0
(cmlx
tree_
p1
c__builtin__
object
p2
Ntp3
Rp4
(dp5
S'decision_rules_'
p6
(dp7
I4
S'P4015 %in% c("A", "C", "Y") & P307 %in% c("A", "NA") & P1191 %in% c("A", "T")'
p8
sI5
S'P4015 %in% c("A", "C", "Y") & P307 %in% c("A", "NA") & P1191 %in% c("C", "G")'
p9
sI6
S'P4015 %in% c("A", "C", "Y") & P307 %in% c("NA", "G")'
p10
sI7
S'P4015 %in% c("G", "T")'
p11
ssS'significant_feature_weight_'
p12
(dp13
S'P307'
p14
F0.3127734819448349
sS'P1191'
p15
F0.0
sS'P4015'
p16
F0.2853535896496085
ssS'children_left'
p17
(dp18
I1
I2
sI2
I3
sI3
I4
sI4
NsI5
NsI6
NsI7
NssS'ACCx_'
p19
F0.9014084507042254
sS'ACC_'
p20
F0.9436619718309859
sS'value'
p21
(dp22
I1
(dp23
S'A'
p24
F4.0
sS'C'
p25
F8.0
sS'T'
p26
F56.0
sS'G'
p27
F3.0
ssI2
(dp28
g24
F0.0
sg25
F8.0
sg26
F56.0
sg27
F0.0
ssI3
(dp29
g24
F0.0
sg25
F1.0
sg26
F56.0
sg27
F0.0
ssI4
(dp30
g24
F0.0
sg25
F0.0
sg26
F31.0
sg27
F0.0
ssI5
(dp31
g24
F0.0
sg25
F1.0
sg26
F25.0
sg27
F0.0
ssI6
(dp32
g24
F0.0
sg25
F7.0
sg26
F0.0
sg27
F0.0
ssI7
(dp33
g24
F4.0
sg25
F0.0
sg26
F0.0
sg27
F3.0
sssS'tprob_'
p34
(dp35
I4
F0.43661971830985913
sI5
F0.36619718309859156
sI6
F0.09859154929577464
sI7
F0.09859154929577464
ssS'threshold'
p36
(dp37
I1
I0
sI2
F9.037692816349359e-10
sI3
F2.05215711091e-08
ssS'children'
p38
(dp39
I1
c__builtin__
set
p40
((lp41
I2
aI7
atp42
Rp43
sI2
g40
((lp44
I3
aI6
atp45
Rp46
sI3
g40
((lp47
I4
aI5
atp48
Rp49
sI4
g40
((lp50
tp51
Rp52
sI5
g40
((lp53
tp54
Rp55
sI6
g40
((lp56
tp57
Rp58
sI7
g40
((lp59
tp60
Rp61
ssS'children_right'
p62
(dp63
I1
I7
sI2
I6
sI3
I5
sI4
NsI5
NsI6
NsI7
NssS'feature'
p64
(dp65
I1
g16
sI2
g14
sI3
g15
sI4
S'4'
p66
sI5
S'5'
p67
sI6
S'6'
p68
sI7
S'7'
p69
ssS'nodes'
p70
crpy2.robjects.robject
_reduce_robjectmixin
p71
(S'X\n\x00\x00\x00\x02\x00\x03\x05\x03\x00\x02\x03\x00\x00\x00\x00\r\x00\x00\x00\x07\x00\x00\x00\x01\x00\x00\x00\x02\x00\x00\x00\x03\x00\x00\x00\x04\x00\x00\x00\x05\x00\x00\x00\x06\x00\x00\x00\x07'
p72
I13
crpy2.rinterface._rinterface
unserialize
p73
crpy2.robjects.vectors
IntVector
p74
tp75
Rp76
(dp77
S'ro'
p78
g0
(crpy2.robjects.vectors
VectorOperationsDelegator
p79
g2
Ntp80
Rp81
(dp82
S'_parent'
p83
g76
sbsS'rx'
p84
g0
(crpy2.robjects.vectors
ExtractDelegator
p85
g2
Ntp86
Rp87
(dp88
g83
g76
sbsS'rx2'
p89
g0
(crpy2.robjects.vectors
DoubleExtractDelegator
p90
g2
Ntp91
Rp92
(dp93
g83
g76
sbsbsS'response_var_'
p94
S'P2592'
p95
sS'edge_cond_'
p96
(dp97
(I1
I2
tp98
(lp99
g24
aS'Y'
p100
ag25
as(I2
I6
tp101
(lp102
g27
as(I2
I3
tp103
(lp104
g24
as(I1
I7
tp105
(lp106
g26
ag27
as(I3
I4
tp107
(lp108
g24
ag26
as(I3
I5
tp109
(lp110
g25
ag27
assS'class_pred_'
p111
g22
sS'CLASSES'
p112
cnumpy.core.multiarray
_reconstruct
p113
(cnumpy
ndarray
p114
(I0
tp115
S'b'
p116
tp117
Rp118
(I1
(I4
tp119
cnumpy
dtype
p120
(S'O8'
p121
I0
I1
tp122
Rp123
(I3
S'|'
p124
NNNI-1
I-1
I63
tp125
bI00
(lp126
g24
ag25
ag27
ag26
atp127
bsS'TREE_LEAF'
p128
(dp129
I1
I00
sI2
I00
sI3
I00
sI4
I01
sI5
I01
sI6
I01
sI7
I01
ssS'num_pass_'
p130
(dp131
I1
I71
sI2
I64
sI3
I57
sI4
I31
sI5
I26
sI6
I7
sI7
I7
ssS'error'
p132
(dp133
I1
F21.126760563380284
sI2
F12.5
sI3
F1.7543859649122806
sI4
F0.0
sI5
F3.8461538461538463
sI6
F0.0
sI7
F42.857142857142854
ssS'pvalue'
p134
g37
sS'class_names'
p135
g118
sS'n_node_samples'
p136
g131
sb.