ccopy_reg
_reconstructor
p0
(cmlx
tree_
p1
c__builtin__
object
p2
Ntp3
Rp4
(dp5
S'decision_rules_'
p6
(dp7
I3
S'P837 %in% c("A", "N", "T") & P771 %in% c("A", "N")'
p8
sI5
S'P837 %in% c("A", "N", "T") & P771 %in% c("C", "G", "T") & P11 %in% c("A", "C", "G")'
p9
sI6
S'P837 %in% c("A", "N", "T") & P771 %in% c("C", "G", "T") & P11 %in% c("T")'
p10
sI7
S'P837 %in% c("C", "G")'
p11
ssS'significant_feature_weight_'
p12
(dp13
S'P11'
p14
F0.0
sS'P837'
p15
F0.3999206427334255
sS'P771'
p16
F0.7243460582144547
ssS'children_left'
p17
(dp18
I1
I2
sI2
I3
sI3
NsI4
I5
sI5
NsI6
NsI7
NssS'ACCx_'
p19
F0.8028169014084507
sS'ACC_'
p20
F0.8591549295774648
sS'value'
p21
(dp22
I1
(dp23
S'A'
p24
F24.0
sS'T'
p25
F3.0
sS'G'
p26
F43.0
sS'N'
p27
F1.0
ssI2
(dp28
g24
F19.0
sg25
F0.0
sg26
F43.0
sg27
F1.0
ssI3
(dp29
g24
F15.0
sg25
F0.0
sg26
F2.0
sg27
F1.0
ssI4
(dp30
g24
F4.0
sg25
F0.0
sg26
F41.0
sg27
F0.0
ssI5
(dp31
g24
F3.0
sg25
F0.0
sg26
F12.0
sg27
F0.0
ssI6
(dp32
g24
F1.0
sg25
F0.0
sg26
F29.0
sg27
F0.0
ssI7
(dp33
g24
F5.0
sg25
F3.0
sg26
F0.0
sg27
F0.0
sssS'tprob_'
p34
(dp35
I3
F0.2535211267605634
sI5
F0.2112676056338028
sI6
F0.4225352112676056
sI7
F0.11267605633802817
ssS'threshold'
p36
(dp37
I1
I0
sI2
F2.8199664825478998e-14
sI4
F0.0021765942647648
ssS'children'
p38
(dp39
I1
c__builtin__
set
p40
((lp41
I2
aI7
atp42
Rp43
sI2
g40
((lp44
I3
aI4
atp45
Rp46
sI3
g40
((lp47
tp48
Rp49
sI4
g40
((lp50
I5
aI6
atp51
Rp52
sI5
g40
((lp53
tp54
Rp55
sI6
g40
((lp56
tp57
Rp58
sI7
g40
((lp59
tp60
Rp61
ssS'children_right'
p62
(dp63
I1
I7
sI2
I4
sI3
NsI4
I6
sI5
NsI6
NsI7
NssS'feature'
p64
(dp65
I1
g15
sI2
g16
sI3
S'3'
p66
sI4
g14
sI5
S'5'
p67
sI6
S'6'
p68
sI7
S'7'
p69
ssS'nodes'
p70
crpy2.robjects.robject
_reduce_robjectmixin
p71
(S'X\n\x00\x00\x00\x02\x00\x03\x05\x03\x00\x02\x03\x00\x00\x00\x00\r\x00\x00\x00\x07\x00\x00\x00\x01\x00\x00\x00\x02\x00\x00\x00\x03\x00\x00\x00\x04\x00\x00\x00\x05\x00\x00\x00\x06\x00\x00\x00\x07'
p72
I13
crpy2.rinterface._rinterface
unserialize
p73
crpy2.robjects.vectors
IntVector
p74
tp75
Rp76
(dp77
S'ro'
p78
g0
(crpy2.robjects.vectors
VectorOperationsDelegator
p79
g2
Ntp80
Rp81
(dp82
S'_parent'
p83
g76
sbsS'rx'
p84
g0
(crpy2.robjects.vectors
ExtractDelegator
p85
g2
Ntp86
Rp87
(dp88
g83
g76
sbsS'rx2'
p89
g0
(crpy2.robjects.vectors
DoubleExtractDelegator
p90
g2
Ntp91
Rp92
(dp93
g83
g76
sbsbsS'response_var_'
p94
S'P811'
p95
sS'edge_cond_'
p96
(dp97
(I1
I2
tp98
(lp99
g24
ag25
ag27
as(I4
I6
tp100
(lp101
S'T'
p102
as(I4
I5
tp103
(lp104
g24
aS'C'
p105
ag26
as(I2
I3
tp106
(lp107
g24
ag27
as(I1
I7
tp108
(lp109
g105
ag26
as(I2
I4
tp110
(lp111
g105
ag25
ag26
assS'class_pred_'
p112
g22
sS'CLASSES'
p113
cnumpy.core.multiarray
_reconstruct
p114
(cnumpy
ndarray
p115
(I0
tp116
S'b'
p117
tp118
Rp119
(I1
(I4
tp120
cnumpy
dtype
p121
(S'O8'
p122
I0
I1
tp123
Rp124
(I3
S'|'
p125
NNNI-1
I-1
I63
tp126
bI00
(lp127
g24
ag26
ag27
ag25
atp128
bsS'TREE_LEAF'
p129
(dp130
I1
I00
sI2
I00
sI3
I01
sI4
I00
sI5
I01
sI6
I01
sI7
I01
ssS'num_pass_'
p131
(dp132
I1
I71
sI2
I63
sI3
I18
sI4
I45
sI5
I15
sI6
I30
sI7
I8
ssS'error'
p133
(dp134
I1
F39.436619718309856
sI2
F31.746031746031747
sI3
F16.666666666666664
sI4
F8.88888888888889
sI5
F20.0
sI6
F3.3333333333333335
sI7
F37.5
ssS'pvalue'
p135
g37
sS'class_names'
p136
g119
sS'n_node_samples'
p137
g132
sb.