ccopy_reg
_reconstructor
p0
(cmlx
tree_
p1
c__builtin__
object
p2
Ntp3
Rp4
(dp5
S'decision_rules_'
p6
(dp7
I2
S'P4015 %in% c("A", "G", "T")'
p8
sI4
S'P4015 %in% c("C", "Y") & P749 %in% c("A", "N", "T")'
p9
sI6
S'P4015 %in% c("C", "Y") & P749 %in% c("C") & P2460 %in% c("A", "C", "NA")'
p10
sI7
S'P4015 %in% c("C", "Y") & P749 %in% c("C") & P2460 %in% c("NA", "T")'
p11
ssS'significant_feature_weight_'
p12
(dp13
S'P2460'
p14
F0.37057901144189104
sS'P749'
p15
F0.7243460582144546
sS'P4015'
p16
F0.39992064273342554
ssS'children_left'
p17
(dp18
I1
I2
sI2
NsI3
I4
sI4
NsI5
I6
sI6
NsI7
NssS'ACCx_'
p19
F0.07042253521126762
sS'ACC_'
p20
F0.8450704225352113
sS'value'
p21
(dp22
I1
(dp23
S'A'
p24
F44.0
sS'C'
p25
F2.0
sS'T'
p26
F5.0
sS'G'
p27
F19.0
sS'N'
p28
F1.0
ssI2
(dp29
g24
F0.0
sg25
F2.0
sg26
F5.0
sg27
F1.0
sg28
F0.0
ssI3
(dp30
g24
F44.0
sg25
F0.0
sg26
F0.0
sg27
F18.0
sg28
F1.0
ssI4
(dp31
g24
F4.0
sg25
F0.0
sg26
F0.0
sg27
F13.0
sg28
F1.0
ssI5
(dp32
g24
F40.0
sg25
F0.0
sg26
F0.0
sg27
F5.0
sg28
F0.0
ssI6
(dp33
g24
F3.0
sg25
F0.0
sg26
F0.0
sg27
F5.0
sg28
F0.0
ssI7
(dp34
g24
F37.0
sg25
F0.0
sg26
F0.0
sg27
F0.0
sg28
F0.0
sssS'tprob_'
p35
(dp36
I2
F0.11267605633802817
sI4
F0.2535211267605634
sI6
F0.11267605633802817
sI7
F0.5211267605633803
ssS'threshold'
p37
(dp38
I1
I0
sI3
F1.01918473660589e-13
sI5
F1.36265423511528e-06
ssS'children'
p39
(dp40
I1
c__builtin__
set
p41
((lp42
I2
aI3
atp43
Rp44
sI2
g41
((lp45
tp46
Rp47
sI3
g41
((lp48
I4
aI5
atp49
Rp50
sI4
g41
((lp51
tp52
Rp53
sI5
g41
((lp54
I6
aI7
atp55
Rp56
sI6
g41
((lp57
tp58
Rp59
sI7
g41
((lp60
tp61
Rp62
ssS'children_right'
p63
(dp64
I1
I3
sI2
NsI3
I5
sI4
NsI5
I7
sI6
NsI7
NssS'feature'
p65
(dp66
I1
g16
sI2
S'2'
p67
sI3
g15
sI4
S'4'
p68
sI5
g14
sI6
S'6'
p69
sI7
S'7'
p70
ssS'nodes'
p71
crpy2.robjects.robject
_reduce_robjectmixin
p72
(S'X\n\x00\x00\x00\x02\x00\x03\x05\x03\x00\x02\x03\x00\x00\x00\x00\r\x00\x00\x00\x07\x00\x00\x00\x01\x00\x00\x00\x02\x00\x00\x00\x03\x00\x00\x00\x04\x00\x00\x00\x05\x00\x00\x00\x06\x00\x00\x00\x07'
p73
I13
crpy2.rinterface._rinterface
unserialize
p74
crpy2.robjects.vectors
IntVector
p75
tp76
Rp77
(dp78
S'ro'
p79
g0
(crpy2.robjects.vectors
VectorOperationsDelegator
p80
g2
Ntp81
Rp82
(dp83
S'_parent'
p84
g77
sbsS'rx'
p85
g0
(crpy2.robjects.vectors
ExtractDelegator
p86
g2
Ntp87
Rp88
(dp89
g84
g77
sbsS'rx2'
p90
g0
(crpy2.robjects.vectors
DoubleExtractDelegator
p91
g2
Ntp92
Rp93
(dp94
g84
g77
sbsbsS'response_var_'
p95
S'P849'
p96
sS'edge_cond_'
p97
(dp98
(I1
I2
tp99
(lp100
g24
ag26
ag27
as(I1
I3
tp101
(lp102
S'Y'
p103
ag25
as(I5
I6
tp104
(lp105
g24
ag25
as(I5
I7
tp106
(lp107
g26
as(I3
I4
tp108
(lp109
g24
ag26
ag28
as(I3
I5
tp110
(lp111
S'C'
p112
assS'class_pred_'
p113
g22
sS'CLASSES'
p114
cnumpy.core.multiarray
_reconstruct
p115
(cnumpy
ndarray
p116
(I0
tp117
S'b'
p118
tp119
Rp120
(I1
(I5
tp121
cnumpy
dtype
p122
(S'O8'
p123
I0
I1
tp124
Rp125
(I3
S'|'
p126
NNNI-1
I-1
I63
tp127
bI00
(lp128
g24
ag25
ag27
ag28
ag26
atp129
bsS'TREE_LEAF'
p130
(dp131
I1
I00
sI2
I01
sI3
I00
sI4
I01
sI5
I00
sI6
I01
sI7
I01
ssS'num_pass_'
p132
(dp133
I1
I71
sI2
I8
sI3
I63
sI4
I18
sI5
I45
sI6
I8
sI7
I37
ssS'error'
p134
(dp135
I1
F38.028169014084504
sI2
F37.5
sI3
F30.158730158730158
sI4
F27.77777777777778
sI5
F11.11111111111111
sI6
F37.5
sI7
F0.0
ssS'pvalue'
p136
g38
sS'class_names'
p137
g120
sS'n_node_samples'
p138
g133
sb.