ccopy_reg
_reconstructor
p0
(cmlx
tree_
p1
c__builtin__
object
p2
Ntp3
Rp4
(dp5
S'decision_rules_'
p6
(dp7
I2
S'P2352 %in% c("A", "C")'
p8
sI4
S'P2352 %in% c("G", "T", "Y") & P1689 %in% c("A", "NA", "T", "Y")'
p9
sI6
S'P2352 %in% c("G", "T", "Y") & P1689 %in% c("C", "NA") & P213 %in% c("A", "NA")'
p10
sI7
S'P2352 %in% c("G", "T", "Y") & P1689 %in% c("C", "NA") & P213 %in% c("C", "NA")'
p11
ssS'significant_feature_weight_'
p12
(dp13
S'P2352'
p14
F0.8553858191798268
sS'P213'
p15
F0.29510389022247596
sS'P1689'
p16
F0.6760563098823764
ssS'children_left'
p17
(dp18
I1
I2
sI2
NsI3
I4
sI4
NsI5
I6
sI6
NsI7
NssS'ACCx_'
p19
F0.7887323943661972
sS'ACC_'
p20
F0.8028169014084507
sS'value'
p21
(dp22
I1
(dp23
S'A'
p24
F13.0
sS'Y'
p25
F1.0
sS'C'
p26
F17.0
sS'T'
p27
F37.0
sS'G'
p28
F3.0
ssI2
(dp29
g24
F1.0
sg25
F0.0
sg26
F15.0
sg27
F6.0
sg28
F0.0
ssI3
(dp30
g24
F12.0
sg25
F1.0
sg26
F2.0
sg27
F31.0
sg28
F3.0
ssI4
(dp31
g24
F1.0
sg25
F1.0
sg26
F2.0
sg27
F21.0
sg28
F3.0
ssI5
(dp32
g24
F11.0
sg25
F0.0
sg26
F0.0
sg27
F10.0
sg28
F0.0
ssI6
(dp33
g24
F0.0
sg25
F0.0
sg26
F0.0
sg27
F10.0
sg28
F0.0
ssI7
(dp34
g24
F11.0
sg25
F0.0
sg26
F0.0
sg27
F0.0
sg28
F0.0
sssS'tprob_'
p35
(dp36
I2
F0.30985915492957744
sI4
F0.39436619718309857
sI6
F0.14084507042253522
sI7
F0.15492957746478872
ssS'threshold'
p37
(dp38
I1
I0
sI3
F1.8207657603852602e-14
sI5
F0.0371240038486593
ssS'children'
p39
(dp40
I1
c__builtin__
set
p41
((lp42
I2
aI3
atp43
Rp44
sI2
g41
((lp45
tp46
Rp47
sI3
g41
((lp48
I4
aI5
atp49
Rp50
sI4
g41
((lp51
tp52
Rp53
sI5
g41
((lp54
I6
aI7
atp55
Rp56
sI6
g41
((lp57
tp58
Rp59
sI7
g41
((lp60
tp61
Rp62
ssS'children_right'
p63
(dp64
I1
I3
sI2
NsI3
I5
sI4
NsI5
I7
sI6
NsI7
NssS'feature'
p65
(dp66
I1
g14
sI2
S'2'
p67
sI3
g16
sI4
S'4'
p68
sI5
g15
sI6
S'6'
p69
sI7
S'7'
p70
ssS'nodes'
p71
crpy2.robjects.robject
_reduce_robjectmixin
p72
(S'X\n\x00\x00\x00\x02\x00\x03\x05\x03\x00\x02\x03\x00\x00\x00\x00\r\x00\x00\x00\x07\x00\x00\x00\x01\x00\x00\x00\x02\x00\x00\x00\x03\x00\x00\x00\x04\x00\x00\x00\x05\x00\x00\x00\x06\x00\x00\x00\x07'
p73
I13
crpy2.rinterface._rinterface
unserialize
p74
crpy2.robjects.vectors
IntVector
p75
tp76
Rp77
(dp78
S'ro'
p79
g0
(crpy2.robjects.vectors
VectorOperationsDelegator
p80
g2
Ntp81
Rp82
(dp83
S'_parent'
p84
g77
sbsS'rx'
p85
g0
(crpy2.robjects.vectors
ExtractDelegator
p86
g2
Ntp87
Rp88
(dp89
g84
g77
sbsS'rx2'
p90
g0
(crpy2.robjects.vectors
DoubleExtractDelegator
p91
g2
Ntp92
Rp93
(dp94
g84
g77
sbsbsS'response_var_'
p95
S'P4278'
p96
sS'edge_cond_'
p97
(dp98
(I1
I2
tp99
(lp100
g24
ag26
as(I1
I3
tp101
(lp102
g25
ag27
ag28
as(I5
I6
tp103
(lp104
g24
as(I5
I7
tp105
(lp106
g26
as(I3
I4
tp107
(lp108
g24
ag25
ag27
as(I3
I5
tp109
(lp110
g26
assS'class_pred_'
p111
g22
sS'CLASSES'
p112
cnumpy.core.multiarray
_reconstruct
p113
(cnumpy
ndarray
p114
(I0
tp115
S'b'
p116
tp117
Rp118
(I1
(I5
tp119
cnumpy
dtype
p120
(S'O8'
p121
I0
I1
tp122
Rp123
(I3
S'|'
p124
NNNI-1
I-1
I63
tp125
bI00
(lp126
g24
ag26
ag28
ag27
ag25
atp127
bsS'TREE_LEAF'
p128
(dp129
I1
I00
sI2
I01
sI3
I00
sI4
I01
sI5
I00
sI6
I01
sI7
I01
ssS'num_pass_'
p130
(dp131
I1
I71
sI2
I22
sI3
I49
sI4
I28
sI5
I21
sI6
I10
sI7
I11
ssS'error'
p132
(dp133
I1
F47.887323943661976
sI2
F31.818181818181817
sI3
F36.73469387755102
sI4
F25.0
sI5
F47.61904761904761
sI6
F0.0
sI7
F0.0
ssS'pvalue'
p134
g38
sS'class_names'
p135
g118
sS'n_node_samples'
p136
g131
sb.