ccopy_reg
_reconstructor
p0
(cmlx
tree_
p1
c__builtin__
object
p2
Ntp3
Rp4
(dp5
S'decision_rules_'
p6
(dp7
I3
S'P2776 %in% c("A", "C", "T") & P2776 %in% c("A", "C", "NA")'
p8
sI5
S'P2776 %in% c("A", "C", "T") & P2776 %in% c("NA", "T") & P1960 %in% c("A", "C")'
p9
sI6
S'P2776 %in% c("A", "C", "T") & P2776 %in% c("NA", "T") & P1960 %in% c("G", "T")'
p10
sI7
S'P2776 %in% c("G")'
p11
ssS'significant_feature_weight_'
p12
(dp13
S'P1960'
p14
F0.0
sS'P2776'
p15
F1.345999130920324
ssS'children_left'
p16
(dp17
I1
I2
sI2
I3
sI3
NsI4
I5
sI5
NsI6
NsI7
NssS'ACCx_'
p18
F0.9295774647887324
sS'ACC_'
p19
F0.9295774647887324
sS'value'
p20
(dp21
I1
(dp22
S'A'
p23
F34.0
sS'C'
p24
F5.0
sS'T'
p25
F27.0
sS'G'
p26
F5.0
ssI2
(dp27
g23
F34.0
sg24
F5.0
sg25
F0.0
sg26
F5.0
ssI3
(dp28
g23
F0.0
sg24
F5.0
sg25
F0.0
sg26
F4.0
ssI4
(dp29
g23
F34.0
sg24
F0.0
sg25
F0.0
sg26
F1.0
ssI5
(dp30
g23
F14.0
sg24
F0.0
sg25
F0.0
sg26
F1.0
ssI6
(dp31
g23
F20.0
sg24
F0.0
sg25
F0.0
sg26
F0.0
ssI7
(dp32
g23
F0.0
sg24
F0.0
sg25
F27.0
sg26
F0.0
sssS'tprob_'
p33
(dp34
I3
F0.1267605633802817
sI5
F0.2112676056338028
sI6
F0.28169014084507044
sI7
F0.38028169014084506
ssS'threshold'
p35
(dp36
I1
I0
sI2
F4.880651438554651e-12
sI4
F0.000967342092520251
ssS'children'
p37
(dp38
I1
c__builtin__
set
p39
((lp40
I2
aI7
atp41
Rp42
sI2
g39
((lp43
I3
aI4
atp44
Rp45
sI3
g39
((lp46
tp47
Rp48
sI4
g39
((lp49
I5
aI6
atp50
Rp51
sI5
g39
((lp52
tp53
Rp54
sI6
g39
((lp55
tp56
Rp57
sI7
g39
((lp58
tp59
Rp60
ssS'children_right'
p61
(dp62
I1
I7
sI2
I4
sI3
NsI4
I6
sI5
NsI6
NsI7
NssS'feature'
p63
(dp64
I1
S'P2776'
p65
sI2
g15
sI3
S'3'
p66
sI4
g14
sI5
S'5'
p67
sI6
S'6'
p68
sI7
S'7'
p69
ssS'nodes'
p70
crpy2.robjects.robject
_reduce_robjectmixin
p71
(S'X\n\x00\x00\x00\x02\x00\x03\x05\x03\x00\x02\x03\x00\x00\x00\x00\r\x00\x00\x00\x07\x00\x00\x00\x01\x00\x00\x00\x02\x00\x00\x00\x03\x00\x00\x00\x04\x00\x00\x00\x05\x00\x00\x00\x06\x00\x00\x00\x07'
p72
I13
crpy2.rinterface._rinterface
unserialize
p73
crpy2.robjects.vectors
IntVector
p74
tp75
Rp76
(dp77
S'ro'
p78
g0
(crpy2.robjects.vectors
VectorOperationsDelegator
p79
g2
Ntp80
Rp81
(dp82
S'_parent'
p83
g76
sbsS'rx'
p84
g0
(crpy2.robjects.vectors
ExtractDelegator
p85
g2
Ntp86
Rp87
(dp88
g83
g76
sbsS'rx2'
p89
g0
(crpy2.robjects.vectors
DoubleExtractDelegator
p90
g2
Ntp91
Rp92
(dp93
g83
g76
sbsbsS'response_var_'
p94
S'P3438'
p95
sS'edge_cond_'
p96
(dp97
(I1
I2
tp98
(lp99
g23
ag24
ag25
as(I4
I6
tp100
(lp101
g25
ag26
as(I4
I5
tp102
(lp103
g23
ag24
as(I2
I3
tp104
(lp105
g23
ag24
as(I1
I7
tp106
(lp107
S'G'
p108
as(I2
I4
tp109
(lp110
g25
assS'class_pred_'
p111
g21
sS'CLASSES'
p112
cnumpy.core.multiarray
_reconstruct
p113
(cnumpy
ndarray
p114
(I0
tp115
S'b'
p116
tp117
Rp118
(I1
(I4
tp119
cnumpy
dtype
p120
(S'O8'
p121
I0
I1
tp122
Rp123
(I3
S'|'
p124
NNNI-1
I-1
I63
tp125
bI00
(lp126
g23
ag24
ag26
ag25
atp127
bsS'TREE_LEAF'
p128
(dp129
I1
I00
sI2
I00
sI3
I01
sI4
I00
sI5
I01
sI6
I01
sI7
I01
ssS'num_pass_'
p130
(dp131
I1
I71
sI2
I44
sI3
I9
sI4
I35
sI5
I15
sI6
I20
sI7
I27
ssS'error'
p132
(dp133
I1
F52.112676056338024
sI2
F22.727272727272727
sI3
F44.44444444444444
sI4
F2.857142857142857
sI5
F6.666666666666667
sI6
F0.0
sI7
F0.0
ssS'pvalue'
p134
g36
sS'class_names'
p135
g118
sS'n_node_samples'
p136
g131
sb.