ccopy_reg
_reconstructor
p0
(cmlx
tree_
p1
c__builtin__
object
p2
Ntp3
Rp4
(dp5
S'decision_rules_'
p6
(dp7
I3
S'P2087 %in% c("A", "C", "T") & P932 %in% c("A")'
p8
sI5
S'P2087 %in% c("A", "C", "T") & P932 %in% c("G", "T") & P2527 %in% c("A", "G", "T")'
p9
sI6
S'P2087 %in% c("A", "C", "T") & P932 %in% c("G", "T") & P2527 %in% c("C")'
p10
sI7
S'P2087 %in% c("G")'
p11
ssS'significant_feature_weight_'
p12
(dp13
S'P2527'
p14
F0.2406478770338311
sS'P2087'
p15
F0.36049669376970145
sS'P932'
p16
F0.7885341400687619
ssS'children_left'
p17
(dp18
I1
I2
sI2
I3
sI3
NsI4
I5
sI5
NsI6
NsI7
NssS'ACCx_'
p19
F0.8732394366197183
sS'ACC_'
p20
F0.9295774647887324
sS'value'
p21
(dp22
I1
(dp23
S'A'
p24
F3.0
sS'C'
p25
F27.0
sS'T'
p26
F34.0
sS'G'
p27
F7.0
ssI2
(dp28
g24
F3.0
sg25
F27.0
sg26
F33.0
sg27
F0.0
ssI3
(dp29
g24
F0.0
sg25
F0.0
sg26
F31.0
sg27
F0.0
ssI4
(dp30
g24
F3.0
sg25
F27.0
sg26
F2.0
sg27
F0.0
ssI5
(dp31
g24
F3.0
sg25
F2.0
sg26
F2.0
sg27
F0.0
ssI6
(dp32
g24
F0.0
sg25
F25.0
sg26
F0.0
sg27
F0.0
ssI7
(dp33
g24
F0.0
sg25
F0.0
sg26
F1.0
sg27
F7.0
sssS'tprob_'
p34
(dp35
I3
F0.43661971830985913
sI5
F0.09859154929577464
sI6
F0.352112676056338
sI7
F0.11267605633802817
ssS'threshold'
p36
(dp37
I1
I0
sI2
I0
sI4
F8.618456226461291e-08
ssS'children'
p38
(dp39
I1
c__builtin__
set
p40
((lp41
I2
aI7
atp42
Rp43
sI2
g40
((lp44
I3
aI4
atp45
Rp46
sI3
g40
((lp47
tp48
Rp49
sI4
g40
((lp50
I5
aI6
atp51
Rp52
sI5
g40
((lp53
tp54
Rp55
sI6
g40
((lp56
tp57
Rp58
sI7
g40
((lp59
tp60
Rp61
ssS'children_right'
p62
(dp63
I1
I7
sI2
I4
sI3
NsI4
I6
sI5
NsI6
NsI7
NssS'feature'
p64
(dp65
I1
g15
sI2
g16
sI3
S'3'
p66
sI4
g14
sI5
S'5'
p67
sI6
S'6'
p68
sI7
S'7'
p69
ssS'nodes'
p70
crpy2.robjects.robject
_reduce_robjectmixin
p71
(S'X\n\x00\x00\x00\x02\x00\x03\x05\x03\x00\x02\x03\x00\x00\x00\x00\r\x00\x00\x00\x07\x00\x00\x00\x01\x00\x00\x00\x02\x00\x00\x00\x03\x00\x00\x00\x04\x00\x00\x00\x05\x00\x00\x00\x06\x00\x00\x00\x07'
p72
I13
crpy2.rinterface._rinterface
unserialize
p73
crpy2.robjects.vectors
IntVector
p74
tp75
Rp76
(dp77
S'ro'
p78
g0
(crpy2.robjects.vectors
VectorOperationsDelegator
p79
g2
Ntp80
Rp81
(dp82
S'_parent'
p83
g76
sbsS'rx'
p84
g0
(crpy2.robjects.vectors
ExtractDelegator
p85
g2
Ntp86
Rp87
(dp88
g83
g76
sbsS'rx2'
p89
g0
(crpy2.robjects.vectors
DoubleExtractDelegator
p90
g2
Ntp91
Rp92
(dp93
g83
g76
sbsbsS'response_var_'
p94
S'P2031'
p95
sS'edge_cond_'
p96
(dp97
(I1
I2
tp98
(lp99
g24
ag25
ag26
as(I4
I6
tp100
(lp101
S'C'
p102
as(I4
I5
tp103
(lp104
g24
ag26
ag27
as(I2
I3
tp105
(lp106
S'A'
p107
as(I1
I7
tp108
(lp109
S'G'
p110
as(I2
I4
tp111
(lp112
g26
ag27
assS'class_pred_'
p113
g22
sS'CLASSES'
p114
cnumpy.core.multiarray
_reconstruct
p115
(cnumpy
ndarray
p116
(I0
tp117
S'b'
p118
tp119
Rp120
(I1
(I4
tp121
cnumpy
dtype
p122
(S'O8'
p123
I0
I1
tp124
Rp125
(I3
S'|'
p126
NNNI-1
I-1
I63
tp127
bI00
(lp128
g24
ag25
ag27
ag26
atp129
bsS'TREE_LEAF'
p130
(dp131
I1
I00
sI2
I00
sI3
I01
sI4
I00
sI5
I01
sI6
I01
sI7
I01
ssS'num_pass_'
p132
(dp133
I1
I71
sI2
I63
sI3
I31
sI4
I32
sI5
I7
sI6
I25
sI7
I8
ssS'error'
p134
(dp135
I1
F52.112676056338024
sI2
F47.61904761904761
sI3
F0.0
sI4
F15.625
sI5
F57.14285714285714
sI6
F0.0
sI7
F12.5
ssS'pvalue'
p136
g37
sS'class_names'
p137
g120
sS'n_node_samples'
p138
g133
sb.