ccopy_reg
_reconstructor
p0
(cmlx
tree_
p1
c__builtin__
object
p2
Ntp3
Rp4
(dp5
S'decision_rules_'
p6
(dp7
I4
S'P1662 %in% c("A", "C", "N", "T") & P837 %in% c("A", "T") & P1405 %in% c("A", "C")'
p8
sI5
S'P1662 %in% c("A", "C", "N", "T") & P837 %in% c("A", "T") & P1405 %in% c("G", "T")'
p9
sI6
S'P1662 %in% c("A", "C", "N", "T") & P837 %in% c("C", "G", "N")'
p10
sI7
S'P1662 %in% c("G")'
p11
ssS'significant_feature_weight_'
p12
(dp13
S'P837'
p14
F0.2711475552294233
sS'P1662'
p15
F0.8797754044924959
sS'P1405'
p16
F0.4192211733671172
ssS'children_left'
p17
(dp18
I1
I2
sI2
I3
sI3
I4
sI4
NsI5
NsI6
NsI7
NssS'ACCx_'
p19
F0.5774647887323944
sS'ACC_'
p20
F0.8591549295774648
sS'value'
p21
(dp22
I1
(dp23
S'A'
p24
F4.0
sS'C'
p25
F55.0
sS'T'
p26
F8.0
sS'G'
p27
F3.0
sS'N'
p28
F1.0
ssI2
(dp29
g24
F3.0
sg25
F26.0
sg26
F8.0
sg27
F3.0
sg28
F1.0
ssI3
(dp30
g24
F0.0
sg25
F23.0
sg26
F8.0
sg27
F3.0
sg28
F0.0
ssI4
(dp31
g24
F0.0
sg25
F22.0
sg26
F1.0
sg27
F0.0
sg28
F0.0
ssI5
(dp32
g24
F0.0
sg25
F1.0
sg26
F7.0
sg27
F3.0
sg28
F0.0
ssI6
(dp33
g24
F3.0
sg25
F3.0
sg26
F0.0
sg27
F0.0
sg28
F1.0
ssI7
(dp34
g24
F1.0
sg25
F29.0
sg26
F0.0
sg27
F0.0
sg28
F0.0
sssS'tprob_'
p35
(dp36
I4
F0.323943661971831
sI5
F0.15492957746478872
sI6
F0.09859154929577464
sI7
F0.4225352112676056
ssS'threshold'
p37
(dp38
I1
I0
sI2
F7.67075292174013e-12
sI3
F0.000420602816559645
ssS'children'
p39
(dp40
I1
c__builtin__
set
p41
((lp42
I2
aI7
atp43
Rp44
sI2
g41
((lp45
I3
aI6
atp46
Rp47
sI3
g41
((lp48
I4
aI5
atp49
Rp50
sI4
g41
((lp51
tp52
Rp53
sI5
g41
((lp54
tp55
Rp56
sI6
g41
((lp57
tp58
Rp59
sI7
g41
((lp60
tp61
Rp62
ssS'children_right'
p63
(dp64
I1
I7
sI2
I6
sI3
I5
sI4
NsI5
NsI6
NsI7
NssS'feature'
p65
(dp66
I1
g15
sI2
g14
sI3
g16
sI4
S'4'
p67
sI5
S'5'
p68
sI6
S'6'
p69
sI7
S'7'
p70
ssS'nodes'
p71
crpy2.robjects.robject
_reduce_robjectmixin
p72
(S'X\n\x00\x00\x00\x02\x00\x03\x05\x03\x00\x02\x03\x00\x00\x00\x00\r\x00\x00\x00\x07\x00\x00\x00\x01\x00\x00\x00\x02\x00\x00\x00\x03\x00\x00\x00\x04\x00\x00\x00\x05\x00\x00\x00\x06\x00\x00\x00\x07'
p73
I13
crpy2.rinterface._rinterface
unserialize
p74
crpy2.robjects.vectors
IntVector
p75
tp76
Rp77
(dp78
S'ro'
p79
g0
(crpy2.robjects.vectors
VectorOperationsDelegator
p80
g2
Ntp81
Rp82
(dp83
S'_parent'
p84
g77
sbsS'rx'
p85
g0
(crpy2.robjects.vectors
ExtractDelegator
p86
g2
Ntp87
Rp88
(dp89
g84
g77
sbsS'rx2'
p90
g0
(crpy2.robjects.vectors
DoubleExtractDelegator
p91
g2
Ntp92
Rp93
(dp94
g84
g77
sbsbsS'response_var_'
p95
S'P777'
p96
sS'edge_cond_'
p97
(dp98
(I1
I2
tp99
(lp100
g24
ag25
ag26
ag28
as(I2
I6
tp101
(lp102
g25
ag27
ag28
as(I2
I3
tp103
(lp104
g24
ag26
as(I1
I7
tp105
(lp106
S'G'
p107
as(I3
I4
tp108
(lp109
g24
ag25
as(I3
I5
tp110
(lp111
g26
ag27
assS'class_pred_'
p112
g22
sS'CLASSES'
p113
cnumpy.core.multiarray
_reconstruct
p114
(cnumpy
ndarray
p115
(I0
tp116
S'b'
p117
tp118
Rp119
(I1
(I5
tp120
cnumpy
dtype
p121
(S'O8'
p122
I0
I1
tp123
Rp124
(I3
S'|'
p125
NNNI-1
I-1
I63
tp126
bI00
(lp127
g24
ag25
ag27
ag28
ag26
atp128
bsS'TREE_LEAF'
p129
(dp130
I1
I00
sI2
I00
sI3
I00
sI4
I01
sI5
I01
sI6
I01
sI7
I01
ssS'num_pass_'
p131
(dp132
I1
I71
sI2
I41
sI3
I34
sI4
I23
sI5
I11
sI6
I7
sI7
I30
ssS'error'
p133
(dp134
I1
F22.535211267605636
sI2
F36.58536585365854
sI3
F32.35294117647059
sI4
F4.3478260869565215
sI5
F36.36363636363636
sI6
F57.14285714285714
sI7
F3.3333333333333335
ssS'pvalue'
p135
g38
sS'class_names'
p136
g119
sS'n_node_samples'
p137
g132
sb.