ccopy_reg
_reconstructor
p0
(cmlx
tree_
p1
c__builtin__
object
p2
Ntp3
Rp4
(dp5
S'decision_rules_'
p6
(dp7
I2
S'P189 %in% c("A")'
p8
sI4
S'P189 %in% c("C", "G", "T") & P3045 %in% c("A")'
p9
sI5
S'P189 %in% c("C", "G", "T") & P3045 %in% c("C", "T")'
p10
ssS'significant_feature_weight_'
p11
(dp12
S'P189'
p13
F0.9902796867684823
sS'P3045'
p14
F0.0
ssS'children_left'
p15
(dp16
I1
I2
sI2
NsI3
I4
sI4
NsI5
NssS'ACCx_'
p17
F0.8873239436619719
sS'ACC_'
p18
F0.9295774647887324
sS'value'
p19
(dp20
I1
(dp21
S'A'
p22
F40.0
sS'G'
p23
F31.0
ssI2
(dp24
g22
F3.0
sg23
F29.0
ssI3
(dp25
g22
F37.0
sg23
F2.0
ssI4
(dp26
g22
F29.0
sg23
F0.0
ssI5
(dp27
g22
F8.0
sg23
F2.0
sssS'tprob_'
p28
(dp29
I2
F0.4507042253521127
sI4
F0.4084507042253521
sI5
F0.14084507042253522
ssS'threshold'
p30
(dp31
I1
F1.43676662678338e-07
sI3
F0.0214672146003501
ssS'children'
p32
(dp33
I1
c__builtin__
set
p34
((lp35
I2
aI3
atp36
Rp37
sI2
g34
((lp38
tp39
Rp40
sI3
g34
((lp41
I4
aI5
atp42
Rp43
sI4
g34
((lp44
tp45
Rp46
sI5
g34
((lp47
tp48
Rp49
ssS'children_right'
p50
(dp51
I1
I3
sI2
NsI3
I5
sI4
NsI5
NssS'feature'
p52
(dp53
I1
g13
sI2
S'2'
p54
sI3
g14
sI4
S'4'
p55
sI5
S'5'
p56
ssS'nodes'
p57
crpy2.robjects.robject
_reduce_robjectmixin
p58
(S'X\n\x00\x00\x00\x02\x00\x03\x05\x03\x00\x02\x03\x00\x00\x00\x00\r\x00\x00\x00\x05\x00\x00\x00\x01\x00\x00\x00\x02\x00\x00\x00\x03\x00\x00\x00\x04\x00\x00\x00\x05'
p59
I13
crpy2.rinterface._rinterface
unserialize
p60
crpy2.robjects.vectors
IntVector
p61
tp62
Rp63
(dp64
S'ro'
p65
g0
(crpy2.robjects.vectors
VectorOperationsDelegator
p66
g2
Ntp67
Rp68
(dp69
S'_parent'
p70
g63
sbsS'rx'
p71
g0
(crpy2.robjects.vectors
ExtractDelegator
p72
g2
Ntp73
Rp74
(dp75
g70
g63
sbsS'rx2'
p76
g0
(crpy2.robjects.vectors
DoubleExtractDelegator
p77
g2
Ntp78
Rp79
(dp80
g70
g63
sbsbsS'response_var_'
p81
S'P154'
p82
sS'edge_cond_'
p83
(dp84
(I1
I2
tp85
(lp86
S'A'
p87
as(I1
I3
tp88
(lp89
S'C'
p90
aS'T'
p91
ag23
as(I3
I4
tp92
(lp93
S'A'
p94
as(I3
I5
tp95
(lp96
g90
ag91
assS'class_pred_'
p97
g20
sS'CLASSES'
p98
cnumpy.core.multiarray
_reconstruct
p99
(cnumpy
ndarray
p100
(I0
tp101
S'b'
p102
tp103
Rp104
(I1
(I2
tp105
cnumpy
dtype
p106
(S'O8'
p107
I0
I1
tp108
Rp109
(I3
S'|'
p110
NNNI-1
I-1
I63
tp111
bI00
(lp112
g22
ag23
atp113
bsS'TREE_LEAF'
p114
(dp115
I1
I00
sI2
I01
sI3
I00
sI4
I01
sI5
I01
ssS'num_pass_'
p116
(dp117
I1
I71
sI2
I32
sI3
I39
sI4
I29
sI5
I10
ssS'error'
p118
(dp119
I1
F43.66197183098591
sI2
F9.375
sI3
F5.128205128205128
sI4
F0.0
sI5
F20.0
ssS'pvalue'
p120
g31
sS'class_names'
p121
g104
sS'n_node_samples'
p122
g117
sb.