ccopy_reg
_reconstructor
p0
(cmlx
tree_
p1
c__builtin__
object
p2
Ntp3
Rp4
(dp5
S'decision_rules_'
p6
(dp7
I3
S'P2893 %in% c("A") & P2215 %in% c("A", "C", "G", "NA")'
p8
sI4
S'P2893 %in% c("A") & P2215 %in% c("NA", "T")'
p9
sI6
S'P2893 %in% c("C", "G", "R", "T") & P4743 %in% c("A", "C", "R", "T")'
p10
sI7
S'P2893 %in% c("C", "G", "R", "T") & P4743 %in% c("G")'
p11
ssS'significant_feature_weight_'
p12
(dp13
S'P4743'
p14
F0.34768608833387266
sS'P2893'
p15
F0.9012300029682455
sS'P2215'
p16
F0.25585809769445933
ssS'children_left'
p17
(dp18
I1
I2
sI2
I3
sI3
NsI4
NsI5
I6
sI6
NsI7
NssS'ACCx_'
p19
F0.8309859154929577
sS'ACC_'
p20
F0.9436619718309859
sS'value'
p21
(dp22
I1
(dp23
S'A'
p24
F29.0
sS'W'
p25
F1.0
sS'C'
p26
F1.0
sS'T'
p27
F6.0
sS'G'
p28
F34.0
ssI2
(dp29
g24
F28.0
sg25
F0.0
sg26
F0.0
sg27
F1.0
sg28
F7.0
ssI3
(dp30
g24
F28.0
sg25
F0.0
sg26
F0.0
sg27
F1.0
sg28
F0.0
ssI4
(dp31
g24
F0.0
sg25
F0.0
sg26
F0.0
sg27
F0.0
sg28
F7.0
ssI5
(dp32
g24
F1.0
sg25
F1.0
sg26
F1.0
sg27
F5.0
sg28
F27.0
ssI6
(dp33
g24
F1.0
sg25
F1.0
sg26
F1.0
sg27
F5.0
sg28
F0.0
ssI7
(dp34
g24
F0.0
sg25
F0.0
sg26
F0.0
sg27
F0.0
sg28
F27.0
sssS'tprob_'
p35
(dp36
I3
F0.4084507042253521
sI4
F0.09859154929577464
sI6
F0.11267605633802817
sI7
F0.38028169014084506
ssS'threshold'
p37
(dp38
I1
I0
sI2
F1.99741212458804e-09
sI5
I0
ssS'children'
p39
(dp40
I1
c__builtin__
set
p41
((lp42
I2
aI5
atp43
Rp44
sI2
g41
((lp45
I3
aI4
atp46
Rp47
sI3
g41
((lp48
tp49
Rp50
sI4
g41
((lp51
tp52
Rp53
sI5
g41
((lp54
I6
aI7
atp55
Rp56
sI6
g41
((lp57
tp58
Rp59
sI7
g41
((lp60
tp61
Rp62
ssS'children_right'
p63
(dp64
I1
I5
sI2
I4
sI3
NsI4
NsI5
I7
sI6
NsI7
NssS'feature'
p65
(dp66
I1
g15
sI2
g16
sI3
S'3'
p67
sI4
S'4'
p68
sI5
g14
sI6
S'6'
p69
sI7
S'7'
p70
ssS'nodes'
p71
crpy2.robjects.robject
_reduce_robjectmixin
p72
(S'X\n\x00\x00\x00\x02\x00\x03\x05\x03\x00\x02\x03\x00\x00\x00\x00\r\x00\x00\x00\x07\x00\x00\x00\x01\x00\x00\x00\x02\x00\x00\x00\x03\x00\x00\x00\x04\x00\x00\x00\x05\x00\x00\x00\x06\x00\x00\x00\x07'
p73
I13
crpy2.rinterface._rinterface
unserialize
p74
crpy2.robjects.vectors
IntVector
p75
tp76
Rp77
(dp78
S'ro'
p79
g0
(crpy2.robjects.vectors
VectorOperationsDelegator
p80
g2
Ntp81
Rp82
(dp83
S'_parent'
p84
g77
sbsS'rx'
p85
g0
(crpy2.robjects.vectors
ExtractDelegator
p86
g2
Ntp87
Rp88
(dp89
g84
g77
sbsS'rx2'
p90
g0
(crpy2.robjects.vectors
DoubleExtractDelegator
p91
g2
Ntp92
Rp93
(dp94
g84
g77
sbsbsS'response_var_'
p95
S'P1974'
p96
sS'edge_cond_'
p97
(dp98
(I1
I2
tp99
(lp100
S'A'
p101
as(I5
I6
tp102
(lp103
g24
ag26
aS'R'
p104
ag27
as(I5
I7
tp105
(lp106
S'G'
p107
as(I1
I5
tp108
(lp109
g26
ag104
ag27
ag28
as(I2
I3
tp110
(lp111
g24
ag26
ag28
as(I2
I4
tp112
(lp113
g27
assS'class_pred_'
p114
g22
sS'CLASSES'
p115
cnumpy.core.multiarray
_reconstruct
p116
(cnumpy
ndarray
p117
(I0
tp118
S'b'
p119
tp120
Rp121
(I1
(I5
tp122
cnumpy
dtype
p123
(S'O8'
p124
I0
I1
tp125
Rp126
(I3
S'|'
p127
NNNI-1
I-1
I63
tp128
bI00
(lp129
g24
ag26
ag28
ag27
ag25
atp130
bsS'TREE_LEAF'
p131
(dp132
I1
I00
sI2
I00
sI3
I01
sI4
I01
sI5
I00
sI6
I01
sI7
I01
ssS'num_pass_'
p133
(dp134
I1
I71
sI2
I36
sI3
I29
sI4
I7
sI5
I35
sI6
I8
sI7
I27
ssS'error'
p135
(dp136
I1
F52.11267605633803
sI2
F22.222222222222225
sI3
F3.4482758620689653
sI4
F0.0
sI5
F22.857142857142858
sI6
F37.5
sI7
F0.0
ssS'pvalue'
p137
g38
sS'class_names'
p138
g121
sS'n_node_samples'
p139
g134
sb.