ccopy_reg
_reconstructor
p0
(cmlx
tree_
p1
c__builtin__
object
p2
Ntp3
Rp4
(dp5
S'decision_rules_'
p6
(dp7
I2
S'P118 %in% c("A", "C")'
p8
sI4
S'P118 %in% c("G") & P689 %in% c("A", "NA", "T")'
p9
sI5
S'P118 %in% c("G") & P689 %in% c("C", "NA")'
p10
ssS'significant_feature_weight_'
p11
(dp12
S'P118'
p13
F0.3999206427334255
sS'P689'
p14
F0.0
ssS'children_left'
p15
(dp16
I1
I2
sI2
NsI3
I4
sI4
NsI5
NssS'ACCx_'
p17
F0.9154929577464789
sS'ACC_'
p18
F0.9577464788732395
sS'value'
p19
(dp20
I1
(dp21
S'C'
p22
F62.0
sS'T'
p23
F9.0
ssI2
(dp24
g22
F1.0
sg23
F7.0
ssI3
(dp25
g22
F61.0
sg23
F2.0
ssI4
(dp26
g22
F28.0
sg23
F2.0
ssI5
(dp27
g22
F33.0
sg23
F0.0
sssS'tprob_'
p28
(dp29
I2
F0.11267605633802817
sI4
F0.4225352112676056
sI5
F0.4647887323943662
ssS'threshold'
p30
(dp31
I1
F4.8361932791785e-07
sI3
F0.0008671321837473429
ssS'children'
p32
(dp33
I1
c__builtin__
set
p34
((lp35
I2
aI3
atp36
Rp37
sI2
g34
((lp38
tp39
Rp40
sI3
g34
((lp41
I4
aI5
atp42
Rp43
sI4
g34
((lp44
tp45
Rp46
sI5
g34
((lp47
tp48
Rp49
ssS'children_right'
p50
(dp51
I1
I3
sI2
NsI3
I5
sI4
NsI5
NssS'feature'
p52
(dp53
I1
g13
sI2
S'2'
p54
sI3
g14
sI4
S'4'
p55
sI5
S'5'
p56
ssS'nodes'
p57
crpy2.robjects.robject
_reduce_robjectmixin
p58
(S'X\n\x00\x00\x00\x02\x00\x03\x05\x03\x00\x02\x03\x00\x00\x00\x00\r\x00\x00\x00\x05\x00\x00\x00\x01\x00\x00\x00\x02\x00\x00\x00\x03\x00\x00\x00\x04\x00\x00\x00\x05'
p59
I13
crpy2.rinterface._rinterface
unserialize
p60
crpy2.robjects.vectors
IntVector
p61
tp62
Rp63
(dp64
S'ro'
p65
g0
(crpy2.robjects.vectors
VectorOperationsDelegator
p66
g2
Ntp67
Rp68
(dp69
S'_parent'
p70
g63
sbsS'rx'
p71
g0
(crpy2.robjects.vectors
ExtractDelegator
p72
g2
Ntp73
Rp74
(dp75
g70
g63
sbsS'rx2'
p76
g0
(crpy2.robjects.vectors
DoubleExtractDelegator
p77
g2
Ntp78
Rp79
(dp80
g70
g63
sbsbsS'response_var_'
p81
S'P716'
p82
sS'edge_cond_'
p83
(dp84
(I1
I2
tp85
(lp86
S'A'
p87
ag22
as(I1
I3
tp88
(lp89
S'G'
p90
as(I3
I4
tp91
(lp92
g87
ag23
as(I3
I5
tp93
(lp94
g22
assS'class_pred_'
p95
g20
sS'CLASSES'
p96
cnumpy.core.multiarray
_reconstruct
p97
(cnumpy
ndarray
p98
(I0
tp99
S'b'
p100
tp101
Rp102
(I1
(I2
tp103
cnumpy
dtype
p104
(S'O8'
p105
I0
I1
tp106
Rp107
(I3
S'|'
p108
NNNI-1
I-1
I63
tp109
bI00
(lp110
g22
ag23
atp111
bsS'TREE_LEAF'
p112
(dp113
I1
I00
sI2
I01
sI3
I00
sI4
I01
sI5
I01
ssS'num_pass_'
p114
(dp115
I1
I71
sI2
I8
sI3
I63
sI4
I30
sI5
I33
ssS'error'
p116
(dp117
I1
F12.676056338028168
sI2
F12.5
sI3
F3.1746031746031744
sI4
F6.666666666666667
sI5
F0.0
ssS'pvalue'
p118
g31
sS'class_names'
p119
g102
sS'n_node_samples'
p120
g115
sb.