ccopy_reg
_reconstructor
p0
(cmlx
tree_
p1
c__builtin__
object
p2
Ntp3
Rp4
(dp5
S'decision_rules_'
p6
(dp7
I3
S'P2556 %in% c("A", "G", "T") & P4672 %in% c("A")'
p8
sI5
S'P2556 %in% c("A", "G", "T") & P4672 %in% c("C", "G", "T") & P1419 %in% c("A", "T")'
p9
sI6
S'P2556 %in% c("A", "G", "T") & P4672 %in% c("C", "G", "T") & P1419 %in% c("C", "G")'
p10
sI7
S'P2556 %in% c("C")'
p11
ssS'significant_feature_weight_'
p12
(dp13
S'P1419'
p14
F0.3672404295779078
sS'P4672'
p15
F0.8250178803418073
sS'P2556'
p16
F0.5617932838398121
ssS'children_left'
p17
(dp18
I1
I2
sI2
I3
sI3
NsI4
I5
sI5
NsI6
NsI7
NssS'ACCx_'
p19
F0.8591549295774648
sS'ACC_'
p20
F0.9577464788732395
sS'value'
p21
(dp22
I1
(dp23
S'A'
p24
F16.0
sS'C'
p25
F31.0
sS'T'
p26
F13.0
sS'G'
p27
F11.0
ssI2
(dp28
g24
F16.0
sg25
F31.0
sg26
F1.0
sg27
F11.0
ssI3
(dp29
g24
F1.0
sg25
F31.0
sg26
F0.0
sg27
F0.0
ssI4
(dp30
g24
F15.0
sg25
F0.0
sg26
F1.0
sg27
F11.0
ssI5
(dp31
g24
F15.0
sg25
F0.0
sg26
F0.0
sg27
F1.0
ssI6
(dp32
g24
F0.0
sg25
F0.0
sg26
F1.0
sg27
F10.0
ssI7
(dp33
g24
F0.0
sg25
F0.0
sg26
F12.0
sg27
F0.0
sssS'tprob_'
p34
(dp35
I3
F0.4507042253521127
sI5
F0.22535211267605634
sI6
F0.15492957746478872
sI7
F0.16901408450704225
ssS'threshold'
p36
(dp37
I1
F1.11022302462516e-16
sI2
F1.11022302462516e-16
sI4
F5.22069559157901e-05
ssS'children'
p38
(dp39
I1
c__builtin__
set
p40
((lp41
I2
aI7
atp42
Rp43
sI2
g40
((lp44
I3
aI4
atp45
Rp46
sI3
g40
((lp47
tp48
Rp49
sI4
g40
((lp50
I5
aI6
atp51
Rp52
sI5
g40
((lp53
tp54
Rp55
sI6
g40
((lp56
tp57
Rp58
sI7
g40
((lp59
tp60
Rp61
ssS'children_right'
p62
(dp63
I1
I7
sI2
I4
sI3
NsI4
I6
sI5
NsI6
NsI7
NssS'feature'
p64
(dp65
I1
g16
sI2
g15
sI3
S'3'
p66
sI4
g14
sI5
S'5'
p67
sI6
S'6'
p68
sI7
S'7'
p69
ssS'nodes'
p70
crpy2.robjects.robject
_reduce_robjectmixin
p71
(S'X\n\x00\x00\x00\x02\x00\x03\x05\x03\x00\x02\x03\x00\x00\x00\x00\r\x00\x00\x00\x07\x00\x00\x00\x01\x00\x00\x00\x02\x00\x00\x00\x03\x00\x00\x00\x04\x00\x00\x00\x05\x00\x00\x00\x06\x00\x00\x00\x07'
p72
I13
crpy2.rinterface._rinterface
unserialize
p73
crpy2.robjects.vectors
IntVector
p74
tp75
Rp76
(dp77
S'ro'
p78
g0
(crpy2.robjects.vectors
VectorOperationsDelegator
p79
g2
Ntp80
Rp81
(dp82
S'_parent'
p83
g76
sbsS'rx'
p84
g0
(crpy2.robjects.vectors
ExtractDelegator
p85
g2
Ntp86
Rp87
(dp88
g83
g76
sbsS'rx2'
p89
g0
(crpy2.robjects.vectors
DoubleExtractDelegator
p90
g2
Ntp91
Rp92
(dp93
g83
g76
sbsbsS'response_var_'
p94
S'P1064'
p95
sS'edge_cond_'
p96
(dp97
(I1
I2
tp98
(lp99
g24
ag26
ag27
as(I4
I6
tp100
(lp101
g25
ag27
as(I4
I5
tp102
(lp103
g24
ag26
as(I2
I3
tp104
(lp105
S'A'
p106
as(I1
I7
tp107
(lp108
S'C'
p109
as(I2
I4
tp110
(lp111
g25
ag26
ag27
assS'class_pred_'
p112
g22
sS'CLASSES'
p113
cnumpy.core.multiarray
_reconstruct
p114
(cnumpy
ndarray
p115
(I0
tp116
S'b'
p117
tp118
Rp119
(I1
(I4
tp120
cnumpy
dtype
p121
(S'O8'
p122
I0
I1
tp123
Rp124
(I3
S'|'
p125
NNNI-1
I-1
I63
tp126
bI00
(lp127
g24
ag25
ag27
ag26
atp128
bsS'TREE_LEAF'
p129
(dp130
I1
I00
sI2
I00
sI3
I01
sI4
I00
sI5
I01
sI6
I01
sI7
I01
ssS'num_pass_'
p131
(dp132
I1
I71
sI2
I59
sI3
I32
sI4
I27
sI5
I16
sI6
I11
sI7
I12
ssS'error'
p133
(dp134
I1
F56.33802816901409
sI2
F47.45762711864407
sI3
F3.125
sI4
F44.44444444444444
sI5
F6.25
sI6
F9.090909090909092
sI7
F0.0
ssS'pvalue'
p135
g37
sS'class_names'
p136
g119
sS'n_node_samples'
p137
g132
sb.