ccopy_reg
_reconstructor
p0
(cmlx
tree_
p1
c__builtin__
object
p2
Ntp3
Rp4
(dp5
S'decision_rules_'
p6
(dp7
I3
S'P2434 %in% c("A", "C", "T") & P696 %in% c("A", "NA")'
p8
sI4
S'P2434 %in% c("A", "C", "T") & P696 %in% c("C", "NA", "T")'
p9
sI6
S'P2434 %in% c("G") & P2533 %in% c("A", "NA")'
p10
sI7
S'P2434 %in% c("G") & P2533 %in% c("NA", "G")'
p11
ssS'significant_feature_weight_'
p12
(dp13
S'P2533'
p14
F0.34465614253106863
sS'P696'
p15
F0.259208215722051
sS'P2434'
p16
F0.8998002178012404
ssS'children_left'
p17
(dp18
I1
I2
sI2
I3
sI3
NsI4
NsI5
I6
sI6
NsI7
NssS'ACCx_'
p19
F0.5352112676056338
sS'ACC_'
p20
F0.9859154929577465
sS'value'
p21
(dp22
I1
(dp23
S'A'
p24
F6.0
sS'C'
p25
F26.0
sS'T'
p26
F38.0
sS'G'
p27
F1.0
ssI2
(dp28
g24
F6.0
sg25
F0.0
sg26
F30.0
sg27
F1.0
ssI3
(dp29
g24
F0.0
sg25
F0.0
sg26
F30.0
sg27
F0.0
ssI4
(dp30
g24
F6.0
sg25
F0.0
sg26
F0.0
sg27
F1.0
ssI5
(dp31
g24
F0.0
sg25
F26.0
sg26
F8.0
sg27
F0.0
ssI6
(dp32
g24
F0.0
sg25
F26.0
sg26
F0.0
sg27
F0.0
ssI7
(dp33
g24
F0.0
sg25
F0.0
sg26
F8.0
sg27
F0.0
sssS'tprob_'
p34
(dp35
I3
F0.4225352112676056
sI4
F0.09859154929577464
sI6
F0.36619718309859156
sI7
F0.11267605633802817
ssS'threshold'
p36
(dp37
I1
I0
sI2
F4.1924241855895207e-11
sI5
F4.50185958181804e-05
ssS'children'
p38
(dp39
I1
c__builtin__
set
p40
((lp41
I2
aI5
atp42
Rp43
sI2
g40
((lp44
I3
aI4
atp45
Rp46
sI3
g40
((lp47
tp48
Rp49
sI4
g40
((lp50
tp51
Rp52
sI5
g40
((lp53
I6
aI7
atp54
Rp55
sI6
g40
((lp56
tp57
Rp58
sI7
g40
((lp59
tp60
Rp61
ssS'children_right'
p62
(dp63
I1
I5
sI2
I4
sI3
NsI4
NsI5
I7
sI6
NsI7
NssS'feature'
p64
(dp65
I1
g16
sI2
g15
sI3
S'3'
p66
sI4
S'4'
p67
sI5
g14
sI6
S'6'
p68
sI7
S'7'
p69
ssS'nodes'
p70
crpy2.robjects.robject
_reduce_robjectmixin
p71
(S'X\n\x00\x00\x00\x02\x00\x03\x05\x03\x00\x02\x03\x00\x00\x00\x00\r\x00\x00\x00\x07\x00\x00\x00\x01\x00\x00\x00\x02\x00\x00\x00\x03\x00\x00\x00\x04\x00\x00\x00\x05\x00\x00\x00\x06\x00\x00\x00\x07'
p72
I13
crpy2.rinterface._rinterface
unserialize
p73
crpy2.robjects.vectors
IntVector
p74
tp75
Rp76
(dp77
S'ro'
p78
g0
(crpy2.robjects.vectors
VectorOperationsDelegator
p79
g2
Ntp80
Rp81
(dp82
S'_parent'
p83
g76
sbsS'rx'
p84
g0
(crpy2.robjects.vectors
ExtractDelegator
p85
g2
Ntp86
Rp87
(dp88
g83
g76
sbsS'rx2'
p89
g0
(crpy2.robjects.vectors
DoubleExtractDelegator
p90
g2
Ntp91
Rp92
(dp93
g83
g76
sbsbsS'response_var_'
p94
S'P448'
p95
sS'edge_cond_'
p96
(dp97
(I1
I2
tp98
(lp99
g24
ag25
ag26
as(I5
I6
tp100
(lp101
g24
as(I5
I7
tp102
(lp103
g27
as(I1
I5
tp104
(lp105
S'G'
p106
as(I2
I3
tp107
(lp108
g24
as(I2
I4
tp109
(lp110
g25
ag26
assS'class_pred_'
p111
g22
sS'CLASSES'
p112
cnumpy.core.multiarray
_reconstruct
p113
(cnumpy
ndarray
p114
(I0
tp115
S'b'
p116
tp117
Rp118
(I1
(I4
tp119
cnumpy
dtype
p120
(S'O8'
p121
I0
I1
tp122
Rp123
(I3
S'|'
p124
NNNI-1
I-1
I63
tp125
bI00
(lp126
g24
ag25
ag27
ag26
atp127
bsS'TREE_LEAF'
p128
(dp129
I1
I00
sI2
I00
sI3
I01
sI4
I01
sI5
I00
sI6
I01
sI7
I01
ssS'num_pass_'
p130
(dp131
I1
I71
sI2
I37
sI3
I30
sI4
I7
sI5
I34
sI6
I26
sI7
I8
ssS'error'
p132
(dp133
I1
F46.47887323943662
sI2
F18.91891891891892
sI3
F0.0
sI4
F14.285714285714285
sI5
F23.52941176470588
sI6
F0.0
sI7
F0.0
ssS'pvalue'
p134
g37
sS'class_names'
p135
g118
sS'n_node_samples'
p136
g131
sb.