ccopy_reg
_reconstructor
p0
(cmlx
tree_
p1
c__builtin__
object
p2
Ntp3
Rp4
(dp5
S'decision_rules_'
p6
(dp7
I8
S'P4317 %in% c("C") & P4104 %in% c("A", "C", "T", "Y") & P1041 %in% c("G", "NA")'
p8
sI9
S'P4317 %in% c("C") & P4104 %in% c("G")'
p9
sI3
S'P4317 %in% c("A", "G", "T") & P3137 %in% c("A", "G", "T")'
p10
sI4
S'P4317 %in% c("A", "G", "T") & P3137 %in% c("C")'
p11
sI7
S'P4317 %in% c("C") & P4104 %in% c("A", "C", "T", "Y") & P1041 %in% c("A", "C", "R", "NA")'
p12
ssS'significant_feature_weight_'
p13
(dp14
S'P1041'
p15
F0.29961581523279707
sS'P4104'
p16
F0.7047776586363868
sS'P3137'
p17
F0.281690070492905
sS'P4317'
p18
F0.8093632055319324
ssS'children_left'
p19
(dp20
I1
I2
sI2
I3
sI3
NsI4
NsI5
I9
sI6
I8
sI7
NsI8
NsI9
NssS'ACCx_'
p21
F0.7183098591549295
sS'ACC_'
p22
F0.8591549295774648
sS'value'
p23
(dp24
I1
(dp25
S'A'
p26
F46.0
sS'C'
p27
F5.0
sS'T'
p28
F5.0
sS'G'
p29
F15.0
ssI2
(dp30
g26
F2.0
sg27
F4.0
sg28
F4.0
sg29
F10.0
ssI3
(dp31
g26
F2.0
sg27
F4.0
sg28
F4.0
sg29
F0.0
ssI4
(dp32
g26
F0.0
sg27
F0.0
sg28
F0.0
sg29
F10.0
ssI5
(dp33
g26
F44.0
sg27
F1.0
sg28
F1.0
sg29
F5.0
ssI6
(dp34
g26
F15.0
sg27
F1.0
sg28
F1.0
sg29
F5.0
ssI7
(dp35
g26
F2.0
sg27
F1.0
sg28
F1.0
sg29
F5.0
ssI8
(dp36
g26
F13.0
sg27
F0.0
sg28
F0.0
sg29
F0.0
ssI9
(dp37
g26
F29.0
sg27
F0.0
sg28
F0.0
sg29
F0.0
sssS'tprob_'
p38
(dp39
I8
F0.18309859154929578
sI9
F0.4084507042253521
sI3
F0.14084507042253522
sI4
F0.14084507042253522
sI7
F0.1267605633802817
ssS'threshold'
p40
(dp41
I1
I0
sI2
F2.46860809494098e-05
sI5
I0
sI6
F5.949525396831129e-05
ssS'children'
p42
(dp43
I1
c__builtin__
set
p44
((lp45
I2
aI5
atp46
Rp47
sI2
g44
((lp48
I3
aI4
atp49
Rp50
sI3
g44
((lp51
tp52
Rp53
sI4
g44
((lp54
tp55
Rp56
sI5
g44
((lp57
I9
aI6
atp58
Rp59
sI6
g44
((lp60
I8
aI7
atp61
Rp62
sI7
g44
((lp63
tp64
Rp65
sI8
g44
((lp66
tp67
Rp68
sI9
g44
((lp69
tp70
Rp71
ssS'children_right'
p72
(dp73
I1
I5
sI2
I4
sI3
NsI4
NsI5
I6
sI6
I7
sI7
NsI8
NsI9
NssS'feature'
p74
(dp75
I1
g18
sI2
g17
sI3
S'3'
p76
sI4
S'4'
p77
sI5
g16
sI6
g15
sI7
S'7'
p78
sI8
S'8'
p79
sI9
S'9'
p80
ssS'nodes'
p81
crpy2.robjects.robject
_reduce_robjectmixin
p82
(S'X\n\x00\x00\x00\x02\x00\x03\x05\x03\x00\x02\x03\x00\x00\x00\x00\r\x00\x00\x00\t\x00\x00\x00\x01\x00\x00\x00\x02\x00\x00\x00\x03\x00\x00\x00\x04\x00\x00\x00\x05\x00\x00\x00\x06\x00\x00\x00\x07\x00\x00\x00\x08\x00\x00\x00\t'
p83
I13
crpy2.rinterface._rinterface
unserialize
p84
crpy2.robjects.vectors
IntVector
p85
tp86
Rp87
(dp88
S'ro'
p89
g0
(crpy2.robjects.vectors
VectorOperationsDelegator
p90
g2
Ntp91
Rp92
(dp93
S'_parent'
p94
g87
sbsS'rx'
p95
g0
(crpy2.robjects.vectors
ExtractDelegator
p96
g2
Ntp97
Rp98
(dp99
g94
g87
sbsS'rx2'
p100
g0
(crpy2.robjects.vectors
DoubleExtractDelegator
p101
g2
Ntp102
Rp103
(dp104
g94
g87
sbsbsS'response_var_'
p105
S'P342'
p106
sS'edge_cond_'
p107
(dp108
(I1
I2
tp109
(lp110
g26
ag28
ag29
as(I5
I9
tp111
(lp112
S'G'
p113
as(I6
I7
tp114
(lp115
g26
ag27
aS'R'
p116
as(I6
I8
tp117
(lp118
g29
as(I5
I6
tp119
(lp120
g26
aS'Y'
p121
ag27
ag28
as(I1
I5
tp122
(lp123
S'C'
p124
as(I2
I3
tp125
(lp126
g26
ag28
ag29
as(I2
I4
tp127
(lp128
S'C'
p129
assS'class_pred_'
p130
g24
sS'CLASSES'
p131
cnumpy.core.multiarray
_reconstruct
p132
(cnumpy
ndarray
p133
(I0
tp134
S'b'
p135
tp136
Rp137
(I1
(I4
tp138
cnumpy
dtype
p139
(S'O8'
p140
I0
I1
tp141
Rp142
(I3
S'|'
p143
NNNI-1
I-1
I63
tp144
bI00
(lp145
g26
ag27
ag29
ag28
atp146
bsS'TREE_LEAF'
p147
(dp148
I1
I00
sI2
I00
sI3
I01
sI4
I01
sI5
I00
sI6
I00
sI7
I01
sI8
I01
sI9
I01
ssS'num_pass_'
p149
(dp150
I1
I71
sI2
I20
sI3
I10
sI4
I10
sI5
I51
sI6
I22
sI7
I9
sI8
I13
sI9
I29
ssS'error'
p151
(dp152
I1
F35.2112676056338
sI2
F50.0
sI3
F60.0
sI4
F0.0
sI5
F13.725490196078432
sI6
F31.81818181818182
sI7
F44.44444444444444
sI8
F0.0
sI9
F0.0
ssS'pvalue'
p153
g41
sS'class_names'
p154
g137
sS'n_node_samples'
p155
g150
sb.