ccopy_reg
_reconstructor
p0
(cmlx
tree_
p1
c__builtin__
object
p2
Ntp3
Rp4
(dp5
S'decision_rules_'
p6
(dp7
I8
S'P4259 %in% c("C", "G", "T") & P4260 %in% c("A", "C", "NA")'
p8
sI9
S'P4259 %in% c("C", "G", "T") & P4260 %in% c("NA", "T")'
p9
sI3
S'P4259 %in% c("A") & P2619 %in% c("A", "NA", "T")'
p10
sI5
S'P4259 %in% c("A") & P2619 %in% c("C", "NA") & P497 %in% c("C", "NA")'
p11
sI6
S'P4259 %in% c("A") & P2619 %in% c("C", "NA") & P497 %in% c("NA", "T")'
p12
ssS'significant_feature_weight_'
p13
(dp14
S'P4260'
p15
F0.3532546373239136
sS'P2619'
p16
F0.24864215838045306
sS'P497'
p17
F0.3672404295779078
sS'P4259'
p18
F0.8997978715100388
ssS'children_left'
p19
(dp20
I1
I2
sI2
I3
sI3
NsI4
I5
sI5
NsI6
NsI7
I8
sI8
NsI9
NssS'ACCx_'
p21
F0.7183098591549295
sS'ACC_'
p22
F0.9436619718309859
sS'value'
p23
(dp24
I1
(dp25
S'A'
p26
F16.0
sS'C'
p27
F46.0
sS'M'
p28
F1.0
sS'T'
p29
F3.0
sS'G'
p30
F5.0
ssI2
(dp31
g26
F16.0
sg27
F17.0
sg28
F1.0
sg29
F0.0
sg30
F0.0
ssI3
(dp32
g26
F0.0
sg27
F6.0
sg28
F1.0
sg29
F0.0
sg30
F0.0
ssI4
(dp33
g26
F16.0
sg27
F11.0
sg28
F0.0
sg29
F0.0
sg30
F0.0
ssI5
(dp34
g26
F0.0
sg27
F11.0
sg28
F0.0
sg29
F0.0
sg30
F0.0
ssI6
(dp35
g26
F16.0
sg27
F0.0
sg28
F0.0
sg29
F0.0
sg30
F0.0
ssI7
(dp36
g26
F0.0
sg27
F29.0
sg28
F0.0
sg29
F3.0
sg30
F5.0
ssI8
(dp37
g26
F0.0
sg27
F0.0
sg28
F0.0
sg29
F3.0
sg30
F5.0
ssI9
(dp38
g26
F0.0
sg27
F29.0
sg28
F0.0
sg29
F0.0
sg30
F0.0
sssS'tprob_'
p39
(dp40
I8
F0.11267605633802817
sI9
F0.4084507042253521
sI3
F0.09859154929577464
sI5
F0.15492957746478872
sI6
F0.22535211267605634
ssS'threshold'
p41
(dp42
I1
F2.3314683517128303e-15
sI2
F0.00022152366487393501
sI4
F0.0016664340315368802
sI7
F4.1924241855895207e-11
ssS'children'
p43
(dp44
I1
c__builtin__
set
p45
((lp46
I2
aI7
atp47
Rp48
sI2
g45
((lp49
I3
aI4
atp50
Rp51
sI3
g45
((lp52
tp53
Rp54
sI4
g45
((lp55
I5
aI6
atp56
Rp57
sI5
g45
((lp58
tp59
Rp60
sI6
g45
((lp61
tp62
Rp63
sI7
g45
((lp64
I8
aI9
atp65
Rp66
sI8
g45
((lp67
tp68
Rp69
sI9
g45
((lp70
tp71
Rp72
ssS'children_right'
p73
(dp74
I1
I7
sI2
I4
sI3
NsI4
I6
sI5
NsI6
NsI7
I9
sI8
NsI9
NssS'feature'
p75
(dp76
I1
g18
sI2
g16
sI3
S'3'
p77
sI4
g17
sI5
S'5'
p78
sI6
S'6'
p79
sI7
g15
sI8
S'8'
p80
sI9
S'9'
p81
ssS'nodes'
p82
crpy2.robjects.robject
_reduce_robjectmixin
p83
(S'X\n\x00\x00\x00\x02\x00\x03\x05\x03\x00\x02\x03\x00\x00\x00\x00\r\x00\x00\x00\t\x00\x00\x00\x01\x00\x00\x00\x02\x00\x00\x00\x03\x00\x00\x00\x04\x00\x00\x00\x05\x00\x00\x00\x06\x00\x00\x00\x07\x00\x00\x00\x08\x00\x00\x00\t'
p84
I13
crpy2.rinterface._rinterface
unserialize
p85
crpy2.robjects.vectors
IntVector
p86
tp87
Rp88
(dp89
S'ro'
p90
g0
(crpy2.robjects.vectors
VectorOperationsDelegator
p91
g2
Ntp92
Rp93
(dp94
S'_parent'
p95
g88
sbsS'rx'
p96
g0
(crpy2.robjects.vectors
ExtractDelegator
p97
g2
Ntp98
Rp99
(dp100
g95
g88
sbsS'rx2'
p101
g0
(crpy2.robjects.vectors
DoubleExtractDelegator
p102
g2
Ntp103
Rp104
(dp105
g95
g88
sbsbsS'response_var_'
p106
S'P701'
p107
sS'edge_cond_'
p108
(dp109
(I1
I2
tp110
(lp111
S'A'
p112
as(I4
I6
tp113
(lp114
g29
as(I4
I5
tp115
(lp116
g27
as(I2
I3
tp117
(lp118
g26
ag29
as(I1
I7
tp119
(lp120
g27
ag29
ag30
as(I7
I8
tp121
(lp122
g26
ag27
as(I2
I4
tp123
(lp124
g27
as(I7
I9
tp125
(lp126
g29
assS'class_pred_'
p127
g24
sS'CLASSES'
p128
cnumpy.core.multiarray
_reconstruct
p129
(cnumpy
ndarray
p130
(I0
tp131
S'b'
p132
tp133
Rp134
(I1
(I5
tp135
cnumpy
dtype
p136
(S'O8'
p137
I0
I1
tp138
Rp139
(I3
S'|'
p140
NNNI-1
I-1
I63
tp141
bI00
(lp142
g26
ag27
ag30
ag28
ag29
atp143
bsS'TREE_LEAF'
p144
(dp145
I1
I00
sI2
I00
sI3
I01
sI4
I00
sI5
I01
sI6
I01
sI7
I00
sI8
I01
sI9
I01
ssS'num_pass_'
p146
(dp147
I1
I71
sI2
I34
sI3
I7
sI4
I27
sI5
I11
sI6
I16
sI7
I37
sI8
I8
sI9
I29
ssS'error'
p148
(dp149
I1
F35.21126760563381
sI2
F49.99999999999999
sI3
F14.285714285714285
sI4
F40.74074074074074
sI5
F0.0
sI6
F0.0
sI7
F21.62162162162162
sI8
F37.5
sI9
F0.0
ssS'pvalue'
p150
g42
sS'class_names'
p151
g134
sS'n_node_samples'
p152
g147
sb.