ccopy_reg
_reconstructor
p0
(cmlx
tree_
p1
c__builtin__
object
p2
Ntp3
Rp4
(dp5
S'decision_rules_'
p6
(dp7
I2
S'P3862 %in% c("A")'
p8
sI3
S'P3862 %in% c("C")'
p9
ssS'significant_feature_weight_'
p10
(dp11
S'P3862'
p12
F0.9982146201560502
ssS'children_left'
p13
(dp14
I1
I2
sI2
NsI3
NssS'ACCx_'
p15
F0.9577464788732395
sS'ACC_'
p16
F0.9859154929577465
sS'value'
p17
(dp18
I1
(dp19
S'C'
p20
F35.0
sS'G'
p21
F36.0
ssI2
(dp22
g20
F1.0
sg21
F36.0
ssI3
(dp23
g20
F34.0
sg21
F0.0
sssS'tprob_'
p24
(dp25
I2
F0.5211267605633803
sI3
F0.4788732394366197
ssS'threshold'
p26
(dp27
I1
F2.02882155520001e-12
ssS'children'
p28
(dp29
I1
c__builtin__
set
p30
((lp31
I2
aI3
atp32
Rp33
sI2
g30
((lp34
tp35
Rp36
sI3
g30
((lp37
tp38
Rp39
ssS'children_right'
p40
(dp41
I1
I3
sI2
NsI3
NssS'feature'
p42
(dp43
I1
g12
sI2
S'2'
p44
sI3
S'3'
p45
ssS'nodes'
p46
crpy2.robjects.robject
_reduce_robjectmixin
p47
(S'X\n\x00\x00\x00\x02\x00\x03\x05\x03\x00\x02\x03\x00\x00\x00\x00\r\x00\x00\x00\x03\x00\x00\x00\x01\x00\x00\x00\x02\x00\x00\x00\x03'
p48
I13
crpy2.rinterface._rinterface
unserialize
p49
crpy2.robjects.vectors
IntVector
p50
tp51
Rp52
(dp53
S'ro'
p54
g0
(crpy2.robjects.vectors
VectorOperationsDelegator
p55
g2
Ntp56
Rp57
(dp58
S'_parent'
p59
g52
sbsS'rx'
p60
g0
(crpy2.robjects.vectors
ExtractDelegator
p61
g2
Ntp62
Rp63
(dp64
g59
g52
sbsS'rx2'
p65
g0
(crpy2.robjects.vectors
DoubleExtractDelegator
p66
g2
Ntp67
Rp68
(dp69
g59
g52
sbsbsS'response_var_'
p70
S'P3671'
p71
sS'edge_cond_'
p72
(dp73
(I1
I2
tp74
(lp75
S'A'
p76
as(I1
I3
tp77
(lp78
S'C'
p79
assS'class_pred_'
p80
g18
sS'CLASSES'
p81
cnumpy.core.multiarray
_reconstruct
p82
(cnumpy
ndarray
p83
(I0
tp84
S'b'
p85
tp86
Rp87
(I1
(I2
tp88
cnumpy
dtype
p89
(S'O8'
p90
I0
I1
tp91
Rp92
(I3
S'|'
p93
NNNI-1
I-1
I63
tp94
bI00
(lp95
g20
ag21
atp96
bsS'TREE_LEAF'
p97
(dp98
I1
I00
sI2
I01
sI3
I01
ssS'num_pass_'
p99
(dp100
I1
I71
sI2
I37
sI3
I34
ssS'error'
p101
(dp102
I1
F49.29577464788733
sI2
F2.7027027027027026
sI3
F0.0
ssS'pvalue'
p103
g27
sS'class_names'
p104
g87
sS'n_node_samples'
p105
g100
sb.