ccopy_reg
_reconstructor
p0
(cmlx
tree_
p1
c__builtin__
object
p2
Ntp3
Rp4
(dp5
S'decision_rules_'
p6
(dp7
I2
S'P1865 %in% c("A")'
p8
sI5
S'P1865 %in% c("G", "T") & P3018 %in% c("A", "C") & P1746 %in% c("A", "NA")'
p9
sI6
S'P1865 %in% c("G", "T") & P3018 %in% c("A", "C") & P1746 %in% c("NA", "G", "T")'
p10
sI7
S'P1865 %in% c("G", "T") & P3018 %in% c("G", "T")'
p11
ssS'significant_feature_weight_'
p12
(dp13
S'P3018'
p14
F0.5281689810904427
sS'P1746'
p15
F0.0
sS'P1865'
p16
F0.9839317400584278
ssS'children_left'
p17
(dp18
I1
I2
sI2
NsI3
I4
sI4
I5
sI5
NsI6
NsI7
NssS'ACCx_'
p19
F0.8028169014084507
sS'ACC_'
p20
F0.8591549295774648
sS'value'
p21
(dp22
I1
(dp23
S'A'
p24
F5.0
sS'C'
p25
F24.0
sS'T'
p26
F42.0
ssI2
(dp27
g24
F0.0
sg25
F2.0
sg26
F29.0
ssI3
(dp28
g24
F5.0
sg25
F22.0
sg26
F13.0
ssI4
(dp29
g24
F0.0
sg25
F22.0
sg26
F3.0
ssI5
(dp30
g24
F0.0
sg25
F17.0
sg26
F0.0
ssI6
(dp31
g24
F0.0
sg25
F5.0
sg26
F3.0
ssI7
(dp32
g24
F5.0
sg25
F0.0
sg26
F10.0
sssS'tprob_'
p33
(dp34
I2
F0.43661971830985913
sI5
F0.23943661971830985
sI6
F0.11267605633802817
sI7
F0.2112676056338028
ssS'threshold'
p35
(dp36
I1
F8.88178419700125e-16
sI3
F1.56380112192878e-08
sI4
F0.0295686053071443
ssS'children'
p37
(dp38
I1
c__builtin__
set
p39
((lp40
I2
aI3
atp41
Rp42
sI2
g39
((lp43
tp44
Rp45
sI3
g39
((lp46
I4
aI7
atp47
Rp48
sI4
g39
((lp49
I5
aI6
atp50
Rp51
sI5
g39
((lp52
tp53
Rp54
sI6
g39
((lp55
tp56
Rp57
sI7
g39
((lp58
tp59
Rp60
ssS'children_right'
p61
(dp62
I1
I3
sI2
NsI3
I7
sI4
I6
sI5
NsI6
NsI7
NssS'feature'
p63
(dp64
I1
g16
sI2
S'2'
p65
sI3
g14
sI4
g15
sI5
S'5'
p66
sI6
S'6'
p67
sI7
S'7'
p68
ssS'nodes'
p69
crpy2.robjects.robject
_reduce_robjectmixin
p70
(S'X\n\x00\x00\x00\x02\x00\x03\x05\x03\x00\x02\x03\x00\x00\x00\x00\r\x00\x00\x00\x07\x00\x00\x00\x01\x00\x00\x00\x02\x00\x00\x00\x03\x00\x00\x00\x04\x00\x00\x00\x05\x00\x00\x00\x06\x00\x00\x00\x07'
p71
I13
crpy2.rinterface._rinterface
unserialize
p72
crpy2.robjects.vectors
IntVector
p73
tp74
Rp75
(dp76
S'ro'
p77
g0
(crpy2.robjects.vectors
VectorOperationsDelegator
p78
g2
Ntp79
Rp80
(dp81
S'_parent'
p82
g75
sbsS'rx'
p83
g0
(crpy2.robjects.vectors
ExtractDelegator
p84
g2
Ntp85
Rp86
(dp87
g82
g75
sbsS'rx2'
p88
g0
(crpy2.robjects.vectors
DoubleExtractDelegator
p89
g2
Ntp90
Rp91
(dp92
g82
g75
sbsbsS'response_var_'
p93
S'P206'
p94
sS'edge_cond_'
p95
(dp96
(I1
I2
tp97
(lp98
S'A'
p99
as(I1
I3
tp100
(lp101
g26
aS'G'
p102
as(I4
I6
tp103
(lp104
g26
ag102
as(I4
I5
tp105
(lp106
g24
as(I3
I7
tp107
(lp108
g26
ag102
as(I3
I4
tp109
(lp110
g24
ag25
assS'class_pred_'
p111
g22
sS'CLASSES'
p112
cnumpy.core.multiarray
_reconstruct
p113
(cnumpy
ndarray
p114
(I0
tp115
S'b'
p116
tp117
Rp118
(I1
(I3
tp119
cnumpy
dtype
p120
(S'O8'
p121
I0
I1
tp122
Rp123
(I3
S'|'
p124
NNNI-1
I-1
I63
tp125
bI00
(lp126
g24
ag25
ag26
atp127
bsS'TREE_LEAF'
p128
(dp129
I1
I00
sI2
I01
sI3
I00
sI4
I00
sI5
I01
sI6
I01
sI7
I01
ssS'num_pass_'
p130
(dp131
I1
I71
sI2
I31
sI3
I40
sI4
I25
sI5
I17
sI6
I8
sI7
I15
ssS'error'
p132
(dp133
I1
F40.84507042253521
sI2
F6.451612903225806
sI3
F45.0
sI4
F12.0
sI5
F0.0
sI6
F37.5
sI7
F33.33333333333333
ssS'pvalue'
p134
g36
sS'class_names'
p135
g118
sS'n_node_samples'
p136
g131
sb.