ccopy_reg
_reconstructor
p0
(cmlx
tree_
p1
c__builtin__
object
p2
Ntp3
Rp4
(dp5
S'decision_rules_'
p6
(dp7
I2
S'P1551 %in% c("A")'
p8
sI3
S'P1551 %in% c("C", "G")'
p9
ssS'significant_feature_weight_'
p10
(dp11
S'P1551'
p12
F0.0
ssS'children_left'
p13
(dp14
I1
I2
sI2
NsI3
NssS'ACCx_'
p15
F0.8591549295774648
sS'ACC_'
p16
F0.9859154929577465
sS'value'
p17
(dp18
I1
(dp19
S'A'
p20
F70.0
sS'T'
p21
F1.0
ssI2
(dp22
g20
F38.0
sg21
F0.0
ssI3
(dp23
g20
F32.0
sg21
F1.0
sssS'tprob_'
p24
(dp25
I2
F0.5352112676056338
sI3
F0.4647887323943662
ssS'threshold'
p26
(dp27
I1
F3.0800917372175698e-12
ssS'children'
p28
(dp29
I1
c__builtin__
set
p30
((lp31
I2
aI3
atp32
Rp33
sI2
g30
((lp34
tp35
Rp36
sI3
g30
((lp37
tp38
Rp39
ssS'children_right'
p40
(dp41
I1
I3
sI2
NsI3
NssS'feature'
p42
(dp43
I1
g12
sI2
S'2'
p44
sI3
S'3'
p45
ssS'nodes'
p46
crpy2.robjects.robject
_reduce_robjectmixin
p47
(S'X\n\x00\x00\x00\x02\x00\x03\x05\x03\x00\x02\x03\x00\x00\x00\x00\r\x00\x00\x00\x03\x00\x00\x00\x01\x00\x00\x00\x02\x00\x00\x00\x03'
p48
I13
crpy2.rinterface._rinterface
unserialize
p49
crpy2.robjects.vectors
IntVector
p50
tp51
Rp52
(dp53
S'ro'
p54
g0
(crpy2.robjects.vectors
VectorOperationsDelegator
p55
g2
Ntp56
Rp57
(dp58
S'_parent'
p59
g52
sbsS'rx'
p60
g0
(crpy2.robjects.vectors
ExtractDelegator
p61
g2
Ntp62
Rp63
(dp64
g59
g52
sbsS'rx2'
p65
g0
(crpy2.robjects.vectors
DoubleExtractDelegator
p66
g2
Ntp67
Rp68
(dp69
g59
g52
sbsbsS'response_var_'
p70
S'P2233'
p71
sS'edge_cond_'
p72
(dp73
(I1
I2
tp74
(lp75
S'A'
p76
as(I1
I3
tp77
(lp78
S'C'
p79
aS'G'
p80
assS'class_pred_'
p81
g18
sS'CLASSES'
p82
cnumpy.core.multiarray
_reconstruct
p83
(cnumpy
ndarray
p84
(I0
tp85
S'b'
p86
tp87
Rp88
(I1
(I2
tp89
cnumpy
dtype
p90
(S'O8'
p91
I0
I1
tp92
Rp93
(I3
S'|'
p94
NNNI-1
I-1
I63
tp95
bI00
(lp96
g20
ag21
atp97
bsS'TREE_LEAF'
p98
(dp99
I1
I00
sI2
I01
sI3
I01
ssS'num_pass_'
p100
(dp101
I1
I71
sI2
I38
sI3
I33
ssS'error'
p102
(dp103
I1
F1.4084507042253522
sI2
F0.0
sI3
F3.0303030303030303
ssS'pvalue'
p104
g27
sS'class_names'
p105
g88
sS'n_node_samples'
p106
g101
sb.