ccopy_reg
_reconstructor
p0
(cmlx
tree_
p1
c__builtin__
object
p2
Ntp3
Rp4
(dp5
S'decision_rules_'
p6
(dp7
I2
S'P2530 %in% c("A", "T")'
p8
sI4
S'P2530 %in% c("C", "G") & P3999 %in% c("A", "C", "NA")'
p9
sI5
S'P2530 %in% c("C", "G") & P3999 %in% c("NA", "T")'
p10
ssS'significant_feature_weight_'
p11
(dp12
S'P2530'
p13
F0.9982146201560501
sS'P3999'
p14
F0.0
ssS'children_left'
p15
(dp16
I1
I2
sI2
NsI3
I4
sI4
NsI5
NssS'ACCx_'
p17
F0.8309859154929577
sS'ACC_'
p18
F0.8732394366197183
sS'value'
p19
(dp20
I1
(dp21
S'A'
p22
F37.0
sS'T'
p23
F3.0
sS'G'
p24
F31.0
ssI2
(dp25
g22
F3.0
sg23
F3.0
sg24
F28.0
ssI3
(dp26
g22
F34.0
sg23
F0.0
sg24
F3.0
ssI4
(dp27
g22
F5.0
sg23
F0.0
sg24
F3.0
ssI5
(dp28
g22
F29.0
sg23
F0.0
sg24
F0.0
sssS'tprob_'
p29
(dp30
I2
F0.4788732394366197
sI4
F0.11267605633802817
sI5
F0.4084507042253521
ssS'threshold'
p31
(dp32
I1
I0
sI3
F7.43956841232629e-05
ssS'children'
p33
(dp34
I1
c__builtin__
set
p35
((lp36
I2
aI3
atp37
Rp38
sI2
g35
((lp39
tp40
Rp41
sI3
g35
((lp42
I4
aI5
atp43
Rp44
sI4
g35
((lp45
tp46
Rp47
sI5
g35
((lp48
tp49
Rp50
ssS'children_right'
p51
(dp52
I1
I3
sI2
NsI3
I5
sI4
NsI5
NssS'feature'
p53
(dp54
I1
g13
sI2
S'2'
p55
sI3
g14
sI4
S'4'
p56
sI5
S'5'
p57
ssS'nodes'
p58
crpy2.robjects.robject
_reduce_robjectmixin
p59
(S'X\n\x00\x00\x00\x02\x00\x03\x05\x03\x00\x02\x03\x00\x00\x00\x00\r\x00\x00\x00\x05\x00\x00\x00\x01\x00\x00\x00\x02\x00\x00\x00\x03\x00\x00\x00\x04\x00\x00\x00\x05'
p60
I13
crpy2.rinterface._rinterface
unserialize
p61
crpy2.robjects.vectors
IntVector
p62
tp63
Rp64
(dp65
S'ro'
p66
g0
(crpy2.robjects.vectors
VectorOperationsDelegator
p67
g2
Ntp68
Rp69
(dp70
S'_parent'
p71
g64
sbsS'rx'
p72
g0
(crpy2.robjects.vectors
ExtractDelegator
p73
g2
Ntp74
Rp75
(dp76
g71
g64
sbsS'rx2'
p77
g0
(crpy2.robjects.vectors
DoubleExtractDelegator
p78
g2
Ntp79
Rp80
(dp81
g71
g64
sbsbsS'response_var_'
p82
S'P4374'
p83
sS'edge_cond_'
p84
(dp85
(I1
I2
tp86
(lp87
g22
ag23
as(I1
I3
tp88
(lp89
S'C'
p90
ag24
as(I3
I4
tp91
(lp92
g22
ag90
as(I3
I5
tp93
(lp94
g23
assS'class_pred_'
p95
g20
sS'CLASSES'
p96
cnumpy.core.multiarray
_reconstruct
p97
(cnumpy
ndarray
p98
(I0
tp99
S'b'
p100
tp101
Rp102
(I1
(I3
tp103
cnumpy
dtype
p104
(S'O8'
p105
I0
I1
tp106
Rp107
(I3
S'|'
p108
NNNI-1
I-1
I63
tp109
bI00
(lp110
g22
ag24
ag23
atp111
bsS'TREE_LEAF'
p112
(dp113
I1
I00
sI2
I01
sI3
I00
sI4
I01
sI5
I01
ssS'num_pass_'
p114
(dp115
I1
I71
sI2
I34
sI3
I37
sI4
I8
sI5
I29
ssS'error'
p116
(dp117
I1
F47.88732394366197
sI2
F17.647058823529413
sI3
F8.108108108108109
sI4
F37.5
sI5
F0.0
ssS'pvalue'
p118
g32
sS'class_names'
p119
g102
sS'n_node_samples'
p120
g115
sb.