ccopy_reg
_reconstructor
p0
(cmlx
tree_
p1
c__builtin__
object
p2
Ntp3
Rp4
(dp5
S'decision_rules_'
p6
(dp7
I2
S'P3246 %in% c("A")'
p8
sI4
S'P3246 %in% c("C", "G", "T", "Y") & P2052 %in% c("A")'
p9
sI6
S'P3246 %in% c("C", "G", "T", "Y") & P2052 %in% c("C", "G", "T") & P2293 %in% c("A", "C", "T")'
p10
sI7
S'P3246 %in% c("C", "G", "T", "Y") & P2052 %in% c("C", "G", "T") & P2293 %in% c("G")'
p11
ssS'significant_feature_weight_'
p12
(dp13
S'P2293'
p14
F0.30647882424202266
sS'P2052'
p15
F0.5055976554721837
sS'P3246'
p16
F0.9902796867684823
ssS'children_left'
p17
(dp18
I1
I2
sI2
NsI3
I4
sI4
NsI5
I6
sI6
NsI7
NssS'ACCx_'
p19
F0.7605633802816901
sS'ACC_'
p20
F0.9154929577464789
sS'value'
p21
(dp22
I1
(dp23
S'A'
p24
F18.0
sS'C'
p25
F3.0
sS'T'
p26
F34.0
sS'G'
p27
F16.0
ssI2
(dp28
g24
F1.0
sg25
F0.0
sg26
F31.0
sg27
F0.0
ssI3
(dp29
g24
F17.0
sg25
F3.0
sg26
F3.0
sg27
F16.0
ssI4
(dp30
g24
F0.0
sg25
F0.0
sg26
F0.0
sg27
F14.0
ssI5
(dp31
g24
F17.0
sg25
F3.0
sg26
F3.0
sg27
F2.0
ssI6
(dp32
g24
F0.0
sg25
F3.0
sg26
F3.0
sg27
F2.0
ssI7
(dp33
g24
F17.0
sg25
F0.0
sg26
F0.0
sg27
F0.0
sssS'tprob_'
p34
(dp35
I2
F0.4507042253521127
sI4
F0.19718309859154928
sI6
F0.11267605633802817
sI7
F0.23943661971830985
ssS'threshold'
p36
(dp37
I1
I0
sI3
F9.33697563709757e-13
sI5
F3.01126262813867e-08
ssS'children'
p38
(dp39
I1
c__builtin__
set
p40
((lp41
I2
aI3
atp42
Rp43
sI2
g40
((lp44
tp45
Rp46
sI3
g40
((lp47
I4
aI5
atp48
Rp49
sI4
g40
((lp50
tp51
Rp52
sI5
g40
((lp53
I6
aI7
atp54
Rp55
sI6
g40
((lp56
tp57
Rp58
sI7
g40
((lp59
tp60
Rp61
ssS'children_right'
p62
(dp63
I1
I3
sI2
NsI3
I5
sI4
NsI5
I7
sI6
NsI7
NssS'feature'
p64
(dp65
I1
g16
sI2
S'2'
p66
sI3
g15
sI4
S'4'
p67
sI5
g14
sI6
S'6'
p68
sI7
S'7'
p69
ssS'nodes'
p70
crpy2.robjects.robject
_reduce_robjectmixin
p71
(S'X\n\x00\x00\x00\x02\x00\x03\x05\x03\x00\x02\x03\x00\x00\x00\x00\r\x00\x00\x00\x07\x00\x00\x00\x01\x00\x00\x00\x02\x00\x00\x00\x03\x00\x00\x00\x04\x00\x00\x00\x05\x00\x00\x00\x06\x00\x00\x00\x07'
p72
I13
crpy2.rinterface._rinterface
unserialize
p73
crpy2.robjects.vectors
IntVector
p74
tp75
Rp76
(dp77
S'ro'
p78
g0
(crpy2.robjects.vectors
VectorOperationsDelegator
p79
g2
Ntp80
Rp81
(dp82
S'_parent'
p83
g76
sbsS'rx'
p84
g0
(crpy2.robjects.vectors
ExtractDelegator
p85
g2
Ntp86
Rp87
(dp88
g83
g76
sbsS'rx2'
p89
g0
(crpy2.robjects.vectors
DoubleExtractDelegator
p90
g2
Ntp91
Rp92
(dp93
g83
g76
sbsbsS'response_var_'
p94
S'P1536'
p95
sS'edge_cond_'
p96
(dp97
(I1
I2
tp98
(lp99
S'A'
p100
as(I1
I3
tp101
(lp102
S'Y'
p103
ag25
ag26
ag27
as(I5
I6
tp104
(lp105
g24
ag25
ag26
as(I5
I7
tp106
(lp107
S'G'
p108
as(I3
I4
tp109
(lp110
S'A'
p111
as(I3
I5
tp112
(lp113
g25
ag26
ag27
assS'class_pred_'
p114
g22
sS'CLASSES'
p115
cnumpy.core.multiarray
_reconstruct
p116
(cnumpy
ndarray
p117
(I0
tp118
S'b'
p119
tp120
Rp121
(I1
(I4
tp122
cnumpy
dtype
p123
(S'O8'
p124
I0
I1
tp125
Rp126
(I3
S'|'
p127
NNNI-1
I-1
I63
tp128
bI00
(lp129
g24
ag25
ag27
ag26
atp130
bsS'TREE_LEAF'
p131
(dp132
I1
I00
sI2
I01
sI3
I00
sI4
I01
sI5
I00
sI6
I01
sI7
I01
ssS'num_pass_'
p133
(dp134
I1
I71
sI2
I32
sI3
I39
sI4
I14
sI5
I25
sI6
I8
sI7
I17
ssS'error'
p135
(dp136
I1
F52.11267605633803
sI2
F3.125
sI3
F56.41025641025641
sI4
F0.0
sI5
F32.0
sI6
F62.5
sI7
F0.0
ssS'pvalue'
p137
g37
sS'class_names'
p138
g121
sS'n_node_samples'
p139
g134
sb.