ccopy_reg
_reconstructor
p0
(cmlx
tree_
p1
c__builtin__
object
p2
Ntp3
Rp4
(dp5
S'decision_rules_'
p6
(dp7
I2
S'P894 %in% c("A", "C", "R", "T")'
p8
sI3
S'P894 %in% c("G")'
p9
ssS'significant_feature_weight_'
p10
(dp11
S'P894'
p12
F0.7284268849787393
ssS'children_left'
p13
(dp14
I1
I2
sI2
NsI3
NssS'ACCx_'
p15
F0.7746478873239436
sS'ACC_'
p16
F0.8450704225352113
sS'value'
p17
(dp18
I1
(dp19
S'A'
p20
F4.0
sS'Y'
p21
F1.0
sS'C'
p22
F50.0
sS'T'
p23
F14.0
sS'G'
p24
F2.0
ssI2
(dp25
g20
F2.0
sg21
F1.0
sg22
F1.0
sg23
F11.0
sg24
F2.0
ssI3
(dp26
g20
F2.0
sg21
F0.0
sg22
F49.0
sg23
F3.0
sg24
F0.0
sssS'tprob_'
p27
(dp28
I2
F0.23943661971830985
sI3
F0.7605633802816901
ssS'threshold'
p29
(dp30
I1
I0
ssS'children'
p31
(dp32
I1
c__builtin__
set
p33
((lp34
I2
aI3
atp35
Rp36
sI2
g33
((lp37
tp38
Rp39
sI3
g33
((lp40
tp41
Rp42
ssS'children_right'
p43
(dp44
I1
I3
sI2
NsI3
NssS'feature'
p45
(dp46
I1
g12
sI2
S'2'
p47
sI3
S'3'
p48
ssS'nodes'
p49
crpy2.robjects.robject
_reduce_robjectmixin
p50
(S'X\n\x00\x00\x00\x02\x00\x03\x05\x03\x00\x02\x03\x00\x00\x00\x00\r\x00\x00\x00\x03\x00\x00\x00\x01\x00\x00\x00\x02\x00\x00\x00\x03'
p51
I13
crpy2.rinterface._rinterface
unserialize
p52
crpy2.robjects.vectors
IntVector
p53
tp54
Rp55
(dp56
S'ro'
p57
g0
(crpy2.robjects.vectors
VectorOperationsDelegator
p58
g2
Ntp59
Rp60
(dp61
S'_parent'
p62
g55
sbsS'rx'
p63
g0
(crpy2.robjects.vectors
ExtractDelegator
p64
g2
Ntp65
Rp66
(dp67
g62
g55
sbsS'rx2'
p68
g0
(crpy2.robjects.vectors
DoubleExtractDelegator
p69
g2
Ntp70
Rp71
(dp72
g62
g55
sbsbsS'response_var_'
p73
S'P885'
p74
sS'edge_cond_'
p75
(dp76
(I1
I2
tp77
(lp78
g20
ag22
aS'R'
p79
ag23
as(I1
I3
tp80
(lp81
S'G'
p82
assS'class_pred_'
p83
g18
sS'CLASSES'
p84
cnumpy.core.multiarray
_reconstruct
p85
(cnumpy
ndarray
p86
(I0
tp87
S'b'
p88
tp89
Rp90
(I1
(I5
tp91
cnumpy
dtype
p92
(S'O8'
p93
I0
I1
tp94
Rp95
(I3
S'|'
p96
NNNI-1
I-1
I63
tp97
bI00
(lp98
g20
ag22
ag24
ag23
ag21
atp99
bsS'TREE_LEAF'
p100
(dp101
I1
I00
sI2
I01
sI3
I01
ssS'num_pass_'
p102
(dp103
I1
I71
sI2
I17
sI3
I54
ssS'error'
p104
(dp105
I1
F29.577464788732392
sI2
F35.29411764705882
sI3
F9.25925925925926
ssS'pvalue'
p106
g30
sS'class_names'
p107
g90
sS'n_node_samples'
p108
g103
sb.