ccopy_reg
_reconstructor
p0
(cmlx
tree_
p1
c__builtin__
object
p2
Ntp3
Rp4
(dp5
S'decision_rules_'
p6
(dp7
I2
S'P3357 %in% c("A", "T")'
p8
sI5
S'P3357 %in% c("C", "G") & P1431 %in% c("A") & P681 %in% c("A", "NA", "T")'
p9
sI6
S'P3357 %in% c("C", "G") & P1431 %in% c("A") & P681 %in% c("C", "NA")'
p10
sI7
S'P3357 %in% c("C", "G") & P1431 %in% c("G", "T")'
p11
ssS'significant_feature_weight_'
p12
(dp13
S'P681'
p14
F0.0
sS'P3357'
p15
F0.8969398653701628
sS'P1431'
p16
F0.0
ssS'children_left'
p17
(dp18
I1
I2
sI2
NsI3
I4
sI4
I5
sI5
NsI6
NsI7
NssS'ACCx_'
p19
F0.7746478873239436
sS'ACC_'
p20
F0.9014084507042254
sS'value'
p21
(dp22
I1
(dp23
S'C'
p24
F32.0
sS'T'
p25
F39.0
ssI2
(dp26
g24
F29.0
sg25
F4.0
ssI3
(dp27
g24
F3.0
sg25
F35.0
ssI4
(dp28
g24
F1.0
sg25
F30.0
ssI5
(dp29
g24
F1.0
sg25
F7.0
ssI6
(dp30
g24
F0.0
sg25
F23.0
ssI7
(dp31
g24
F2.0
sg25
F5.0
sssS'tprob_'
p32
(dp33
I2
F0.4647887323943662
sI5
F0.11267605633802817
sI6
F0.323943661971831
sI7
F0.09859154929577464
ssS'threshold'
p34
(dp35
I1
F3.36423189373214e-06
sI3
F0.0289706213327601
sI4
F0.0014932171044991199
ssS'children'
p36
(dp37
I1
c__builtin__
set
p38
((lp39
I2
aI3
atp40
Rp41
sI2
g38
((lp42
tp43
Rp44
sI3
g38
((lp45
I4
aI7
atp46
Rp47
sI4
g38
((lp48
I5
aI6
atp49
Rp50
sI5
g38
((lp51
tp52
Rp53
sI6
g38
((lp54
tp55
Rp56
sI7
g38
((lp57
tp58
Rp59
ssS'children_right'
p60
(dp61
I1
I3
sI2
NsI3
I7
sI4
I6
sI5
NsI6
NsI7
NssS'feature'
p62
(dp63
I1
g15
sI2
S'2'
p64
sI3
g16
sI4
g14
sI5
S'5'
p65
sI6
S'6'
p66
sI7
S'7'
p67
ssS'nodes'
p68
crpy2.robjects.robject
_reduce_robjectmixin
p69
(S'X\n\x00\x00\x00\x02\x00\x03\x05\x03\x00\x02\x03\x00\x00\x00\x00\r\x00\x00\x00\x07\x00\x00\x00\x01\x00\x00\x00\x02\x00\x00\x00\x03\x00\x00\x00\x04\x00\x00\x00\x05\x00\x00\x00\x06\x00\x00\x00\x07'
p70
I13
crpy2.rinterface._rinterface
unserialize
p71
crpy2.robjects.vectors
IntVector
p72
tp73
Rp74
(dp75
S'ro'
p76
g0
(crpy2.robjects.vectors
VectorOperationsDelegator
p77
g2
Ntp78
Rp79
(dp80
S'_parent'
p81
g74
sbsS'rx'
p82
g0
(crpy2.robjects.vectors
ExtractDelegator
p83
g2
Ntp84
Rp85
(dp86
g81
g74
sbsS'rx2'
p87
g0
(crpy2.robjects.vectors
DoubleExtractDelegator
p88
g2
Ntp89
Rp90
(dp91
g81
g74
sbsbsS'response_var_'
p92
S'P63'
p93
sS'edge_cond_'
p94
(dp95
(I1
I2
tp96
(lp97
S'A'
p98
ag25
as(I1
I3
tp99
(lp100
g24
aS'G'
p101
as(I4
I6
tp102
(lp103
g24
as(I4
I5
tp104
(lp105
g98
ag25
as(I3
I7
tp106
(lp107
g25
ag101
as(I3
I4
tp108
(lp109
S'A'
p110
assS'class_pred_'
p111
g22
sS'CLASSES'
p112
cnumpy.core.multiarray
_reconstruct
p113
(cnumpy
ndarray
p114
(I0
tp115
S'b'
p116
tp117
Rp118
(I1
(I2
tp119
cnumpy
dtype
p120
(S'O8'
p121
I0
I1
tp122
Rp123
(I3
S'|'
p124
NNNI-1
I-1
I63
tp125
bI00
(lp126
g24
ag25
atp127
bsS'TREE_LEAF'
p128
(dp129
I1
I00
sI2
I01
sI3
I00
sI4
I00
sI5
I01
sI6
I01
sI7
I01
ssS'num_pass_'
p130
(dp131
I1
I71
sI2
I33
sI3
I38
sI4
I31
sI5
I8
sI6
I23
sI7
I7
ssS'error'
p132
(dp133
I1
F45.07042253521127
sI2
F12.121212121212121
sI3
F7.894736842105263
sI4
F3.225806451612903
sI5
F12.5
sI6
F0.0
sI7
F28.57142857142857
ssS'pvalue'
p134
g35
sS'class_names'
p135
g118
sS'n_node_samples'
p136
g131
sb.