ccopy_reg
_reconstructor
p0
(cmlx
tree_
p1
c__builtin__
object
p2
Ntp3
Rp4
(dp5
S'decision_rules_'
p6
(dp7
I3
S'P3726 %in% c("A", "C", "N", "T") & P797 %in% c("A")'
p8
sI5
S'P3726 %in% c("A", "C", "N", "T") & P797 %in% c("C", "G", "N", "T") & P1703 %in% c("A", "C", "N", "T")'
p9
sI6
S'P3726 %in% c("A", "C", "N", "T") & P797 %in% c("C", "G", "N", "T") & P1703 %in% c("G")'
p10
sI7
S'P3726 %in% c("G")'
p11
ssS'significant_feature_weight_'
p12
(dp13
S'P1703'
p14
F0.259208215722051
sS'P3726'
p15
F0.2853535896496085
sS'P797'
p16
F0.783220920863513
ssS'children_left'
p17
(dp18
I1
I2
sI2
I3
sI3
NsI4
I5
sI5
NsI6
NsI7
NssS'ACCx_'
p19
F0.5774647887323944
sS'ACC_'
p20
F0.9577464788732395
sS'value'
p21
(dp22
I1
(dp23
S'A'
p24
F28.0
sS'C'
p25
F8.0
sS'T'
p26
F4.0
sS'G'
p27
F30.0
sS'N'
p28
F1.0
ssI2
(dp29
g24
F28.0
sg25
F1.0
sg26
F4.0
sg27
F30.0
sg28
F1.0
ssI3
(dp30
g24
F27.0
sg25
F0.0
sg26
F0.0
sg27
F0.0
sg28
F0.0
ssI4
(dp31
g24
F1.0
sg25
F1.0
sg26
F4.0
sg27
F30.0
sg28
F1.0
ssI5
(dp32
g24
F1.0
sg25
F1.0
sg26
F4.0
sg27
F0.0
sg28
F1.0
ssI6
(dp33
g24
F0.0
sg25
F0.0
sg26
F0.0
sg27
F30.0
sg28
F0.0
ssI7
(dp34
g24
F0.0
sg25
F7.0
sg26
F0.0
sg27
F0.0
sg28
F0.0
sssS'tprob_'
p35
(dp36
I3
F0.38028169014084506
sI5
F0.09859154929577464
sI6
F0.4225352112676056
sI7
F0.09859154929577464
ssS'threshold'
p37
(dp38
I1
I0
sI2
I0
sI4
F1.3766765505351902e-14
ssS'children'
p39
(dp40
I1
c__builtin__
set
p41
((lp42
I2
aI7
atp43
Rp44
sI2
g41
((lp45
I3
aI4
atp46
Rp47
sI3
g41
((lp48
tp49
Rp50
sI4
g41
((lp51
I5
aI6
atp52
Rp53
sI5
g41
((lp54
tp55
Rp56
sI6
g41
((lp57
tp58
Rp59
sI7
g41
((lp60
tp61
Rp62
ssS'children_right'
p63
(dp64
I1
I7
sI2
I4
sI3
NsI4
I6
sI5
NsI6
NsI7
NssS'feature'
p65
(dp66
I1
g15
sI2
g16
sI3
S'3'
p67
sI4
g14
sI5
S'5'
p68
sI6
S'6'
p69
sI7
S'7'
p70
ssS'nodes'
p71
crpy2.robjects.robject
_reduce_robjectmixin
p72
(S'X\n\x00\x00\x00\x02\x00\x03\x05\x03\x00\x02\x03\x00\x00\x00\x00\r\x00\x00\x00\x07\x00\x00\x00\x01\x00\x00\x00\x02\x00\x00\x00\x03\x00\x00\x00\x04\x00\x00\x00\x05\x00\x00\x00\x06\x00\x00\x00\x07'
p73
I13
crpy2.rinterface._rinterface
unserialize
p74
crpy2.robjects.vectors
IntVector
p75
tp76
Rp77
(dp78
S'ro'
p79
g0
(crpy2.robjects.vectors
VectorOperationsDelegator
p80
g2
Ntp81
Rp82
(dp83
S'_parent'
p84
g77
sbsS'rx'
p85
g0
(crpy2.robjects.vectors
ExtractDelegator
p86
g2
Ntp87
Rp88
(dp89
g84
g77
sbsS'rx2'
p90
g0
(crpy2.robjects.vectors
DoubleExtractDelegator
p91
g2
Ntp92
Rp93
(dp94
g84
g77
sbsbsS'response_var_'
p95
S'P803'
p96
sS'edge_cond_'
p97
(dp98
(I1
I2
tp99
(lp100
g24
ag25
ag26
ag28
as(I4
I6
tp101
(lp102
S'G'
p103
as(I4
I5
tp104
(lp105
g24
ag25
ag26
ag28
as(I2
I3
tp106
(lp107
S'A'
p108
as(I1
I7
tp109
(lp110
S'G'
p111
as(I2
I4
tp112
(lp113
g25
ag26
ag27
ag28
assS'class_pred_'
p114
g22
sS'CLASSES'
p115
cnumpy.core.multiarray
_reconstruct
p116
(cnumpy
ndarray
p117
(I0
tp118
S'b'
p119
tp120
Rp121
(I1
(I5
tp122
cnumpy
dtype
p123
(S'O8'
p124
I0
I1
tp125
Rp126
(I3
S'|'
p127
NNNI-1
I-1
I63
tp128
bI00
(lp129
g24
ag25
ag27
ag28
ag26
atp130
bsS'TREE_LEAF'
p131
(dp132
I1
I00
sI2
I00
sI3
I01
sI4
I00
sI5
I01
sI6
I01
sI7
I01
ssS'num_pass_'
p133
(dp134
I1
I71
sI2
I64
sI3
I27
sI4
I37
sI5
I7
sI6
I30
sI7
I7
ssS'error'
p135
(dp136
I1
F57.74647887323943
sI2
F53.125
sI3
F0.0
sI4
F18.91891891891892
sI5
F42.857142857142854
sI6
F0.0
sI7
F0.0
ssS'pvalue'
p137
g38
sS'class_names'
p138
g121
sS'n_node_samples'
p139
g134
sb.