ccopy_reg
_reconstructor
p0
(cmlx
tree_
p1
c__builtin__
object
p2
Ntp3
Rp4
(dp5
S'decision_rules_'
p6
(dp7
I2
S'P3532 %in% c("A", "C", "T")'
p8
sI4
S'P3532 %in% c("G") & P2713 %in% c("A", "NA")'
p9
sI5
S'P3532 %in% c("G") & P2713 %in% c("G", "NA")'
p10
ssS'significant_feature_weight_'
p11
(dp12
S'P2713'
p13
F0.31277348194483495
sS'P3532'
p14
F0.2853535896496085
ssS'children_left'
p15
(dp16
I1
I2
sI2
NsI3
I4
sI4
NsI5
NssS'ACCx_'
p17
F0.8591549295774648
sS'ACC_'
p18
F0.9577464788732395
sS'value'
p19
(dp20
I1
(dp21
S'A'
p22
F1.0
sS'C'
p23
F9.0
sS'T'
p24
F55.0
sS'G'
p25
F6.0
ssI2
(dp26
g22
F1.0
sg23
F0.0
sg24
F0.0
sg25
F6.0
ssI3
(dp27
g22
F0.0
sg23
F9.0
sg24
F55.0
sg25
F0.0
ssI4
(dp28
g22
F0.0
sg23
F7.0
sg24
F0.0
sg25
F0.0
ssI5
(dp29
g22
F0.0
sg23
F2.0
sg24
F55.0
sg25
F0.0
sssS'tprob_'
p30
(dp31
I2
F0.09859154929577464
sI4
F0.09859154929577464
sI5
F0.8028169014084507
ssS'threshold'
p32
(dp33
I1
I0
sI3
F3.00500183625374e-08
ssS'children'
p34
(dp35
I1
c__builtin__
set
p36
((lp37
I2
aI3
atp38
Rp39
sI2
g36
((lp40
tp41
Rp42
sI3
g36
((lp43
I4
aI5
atp44
Rp45
sI4
g36
((lp46
tp47
Rp48
sI5
g36
((lp49
tp50
Rp51
ssS'children_right'
p52
(dp53
I1
I3
sI2
NsI3
I5
sI4
NsI5
NssS'feature'
p54
(dp55
I1
g14
sI2
S'2'
p56
sI3
g13
sI4
S'4'
p57
sI5
S'5'
p58
ssS'nodes'
p59
crpy2.robjects.robject
_reduce_robjectmixin
p60
(S'X\n\x00\x00\x00\x02\x00\x03\x05\x03\x00\x02\x03\x00\x00\x00\x00\r\x00\x00\x00\x05\x00\x00\x00\x01\x00\x00\x00\x02\x00\x00\x00\x03\x00\x00\x00\x04\x00\x00\x00\x05'
p61
I13
crpy2.rinterface._rinterface
unserialize
p62
crpy2.robjects.vectors
IntVector
p63
tp64
Rp65
(dp66
S'ro'
p67
g0
(crpy2.robjects.vectors
VectorOperationsDelegator
p68
g2
Ntp69
Rp70
(dp71
S'_parent'
p72
g65
sbsS'rx'
p73
g0
(crpy2.robjects.vectors
ExtractDelegator
p74
g2
Ntp75
Rp76
(dp77
g72
g65
sbsS'rx2'
p78
g0
(crpy2.robjects.vectors
DoubleExtractDelegator
p79
g2
Ntp80
Rp81
(dp82
g72
g65
sbsbsS'response_var_'
p83
S'P4845'
p84
sS'edge_cond_'
p85
(dp86
(I1
I2
tp87
(lp88
g22
ag23
ag24
as(I1
I3
tp89
(lp90
S'G'
p91
as(I3
I4
tp92
(lp93
g22
as(I3
I5
tp94
(lp95
g25
assS'class_pred_'
p96
g20
sS'CLASSES'
p97
cnumpy.core.multiarray
_reconstruct
p98
(cnumpy
ndarray
p99
(I0
tp100
S'b'
p101
tp102
Rp103
(I1
(I4
tp104
cnumpy
dtype
p105
(S'O8'
p106
I0
I1
tp107
Rp108
(I3
S'|'
p109
NNNI-1
I-1
I63
tp110
bI00
(lp111
g22
ag23
ag25
ag24
atp112
bsS'TREE_LEAF'
p113
(dp114
I1
I00
sI2
I01
sI3
I00
sI4
I01
sI5
I01
ssS'num_pass_'
p115
(dp116
I1
I71
sI2
I7
sI3
I64
sI4
I7
sI5
I57
ssS'error'
p117
(dp118
I1
F22.535211267605632
sI2
F14.285714285714285
sI3
F14.0625
sI4
F0.0
sI5
F3.508771929824561
ssS'pvalue'
p119
g33
sS'class_names'
p120
g103
sS'n_node_samples'
p121
g116
sb.