ccopy_reg
_reconstructor
p0
(cmlx
tree_
p1
c__builtin__
object
p2
Ntp3
Rp4
(dp5
S'decision_rules_'
p6
(dp7
I3
S'P2418 %in% c("A") & P1120 %in% c("A", "NA")'
p8
sI4
S'P2418 %in% c("A") & P1120 %in% c("NA", "G", "T")'
p9
sI6
S'P2418 %in% c("C", "G", "T") & P4755 %in% c("A", "C", "G")'
p10
sI7
S'P2418 %in% c("C", "G", "T") & P4755 %in% c("T")'
p11
ssS'significant_feature_weight_'
p12
(dp13
S'P2418'
p14
F0.9902796867684822
sS'P1120'
p15
F0.0
sS'P4755'
p16
F0.4225351700301789
ssS'children_left'
p17
(dp18
I1
I2
sI2
I3
sI3
NsI4
NsI5
I6
sI6
NsI7
NssS'ACCx_'
p19
F0.8169014084507042
sS'ACC_'
p20
F0.9436619718309859
sS'value'
p21
(dp22
I1
(dp23
S'A'
p24
F49.0
sS'T'
p25
F2.0
sS'G'
p26
F20.0
ssI2
(dp27
g24
F37.0
sg25
F0.0
sg26
F2.0
ssI3
(dp28
g24
F25.0
sg25
F0.0
sg26
F0.0
ssI4
(dp29
g24
F12.0
sg25
F0.0
sg26
F2.0
ssI5
(dp30
g24
F12.0
sg25
F2.0
sg26
F18.0
ssI6
(dp31
g24
F0.0
sg25
F2.0
sg26
F18.0
ssI7
(dp32
g24
F12.0
sg25
F0.0
sg26
F0.0
sssS'tprob_'
p33
(dp34
I3
F0.352112676056338
sI4
F0.19718309859154928
sI6
F0.28169014084507044
sI7
F0.16901408450704225
ssS'threshold'
p35
(dp36
I1
F8.437694987151191e-15
sI2
F2.7369286128342602e-05
sI5
F4.78558239458415e-06
ssS'children'
p37
(dp38
I1
c__builtin__
set
p39
((lp40
I2
aI5
atp41
Rp42
sI2
g39
((lp43
I3
aI4
atp44
Rp45
sI3
g39
((lp46
tp47
Rp48
sI4
g39
((lp49
tp50
Rp51
sI5
g39
((lp52
I6
aI7
atp53
Rp54
sI6
g39
((lp55
tp56
Rp57
sI7
g39
((lp58
tp59
Rp60
ssS'children_right'
p61
(dp62
I1
I5
sI2
I4
sI3
NsI4
NsI5
I7
sI6
NsI7
NssS'feature'
p63
(dp64
I1
g14
sI2
g15
sI3
S'3'
p65
sI4
S'4'
p66
sI5
g16
sI6
S'6'
p67
sI7
S'7'
p68
ssS'nodes'
p69
crpy2.robjects.robject
_reduce_robjectmixin
p70
(S'X\n\x00\x00\x00\x02\x00\x03\x05\x03\x00\x02\x03\x00\x00\x00\x00\r\x00\x00\x00\x07\x00\x00\x00\x01\x00\x00\x00\x02\x00\x00\x00\x03\x00\x00\x00\x04\x00\x00\x00\x05\x00\x00\x00\x06\x00\x00\x00\x07'
p71
I13
crpy2.rinterface._rinterface
unserialize
p72
crpy2.robjects.vectors
IntVector
p73
tp74
Rp75
(dp76
S'ro'
p77
g0
(crpy2.robjects.vectors
VectorOperationsDelegator
p78
g2
Ntp79
Rp80
(dp81
S'_parent'
p82
g75
sbsS'rx'
p83
g0
(crpy2.robjects.vectors
ExtractDelegator
p84
g2
Ntp85
Rp86
(dp87
g82
g75
sbsS'rx2'
p88
g0
(crpy2.robjects.vectors
DoubleExtractDelegator
p89
g2
Ntp90
Rp91
(dp92
g82
g75
sbsbsS'response_var_'
p93
S'P915'
p94
sS'edge_cond_'
p95
(dp96
(I1
I2
tp97
(lp98
S'A'
p99
as(I5
I6
tp100
(lp101
g24
aS'C'
p102
ag26
as(I5
I7
tp103
(lp104
S'T'
p105
as(I1
I5
tp106
(lp107
g102
ag25
ag26
as(I2
I3
tp108
(lp109
g24
as(I2
I4
tp110
(lp111
g25
ag26
assS'class_pred_'
p112
g22
sS'CLASSES'
p113
cnumpy.core.multiarray
_reconstruct
p114
(cnumpy
ndarray
p115
(I0
tp116
S'b'
p117
tp118
Rp119
(I1
(I3
tp120
cnumpy
dtype
p121
(S'O8'
p122
I0
I1
tp123
Rp124
(I3
S'|'
p125
NNNI-1
I-1
I63
tp126
bI00
(lp127
g24
ag26
ag25
atp128
bsS'TREE_LEAF'
p129
(dp130
I1
I00
sI2
I00
sI3
I01
sI4
I01
sI5
I00
sI6
I01
sI7
I01
ssS'num_pass_'
p131
(dp132
I1
I71
sI2
I39
sI3
I25
sI4
I14
sI5
I32
sI6
I20
sI7
I12
ssS'error'
p133
(dp134
I1
F30.985915492957748
sI2
F5.128205128205128
sI3
F0.0
sI4
F14.285714285714285
sI5
F43.75
sI6
F10.0
sI7
F0.0
ssS'pvalue'
p135
g36
sS'class_names'
p136
g119
sS'n_node_samples'
p137
g132
sb.