ccopy_reg
_reconstructor
p0
(cmlx
tree_
p1
c__builtin__
object
p2
Ntp3
Rp4
(dp5
S'decision_rules_'
p6
(dp7
I2
S'P1567 %in% c("A")'
p8
sI4
S'P1567 %in% c("C", "G", "T") & P4038 %in% c("A", "C")'
p9
sI5
S'P1567 %in% c("C", "G", "T") & P4038 %in% c("G", "T")'
p10
ssS'significant_feature_weight_'
p11
(dp12
S'P4038'
p13
F0.5292809122164792
sS'P1567'
p14
F0.9950406468010229
ssS'children_left'
p15
(dp16
I1
I2
sI2
NsI3
I4
sI4
NsI5
NssS'ACCx_'
p17
F0.8450704225352113
sS'ACC_'
p18
F0.8873239436619719
sS'value'
p19
(dp20
I1
(dp21
S'A'
p22
F3.0
sS'C'
p23
F44.0
sS'T'
p24
F24.0
ssI2
(dp25
g22
F0.0
sg23
F33.0
sg24
F0.0
ssI3
(dp26
g22
F3.0
sg23
F11.0
sg24
F24.0
ssI4
(dp27
g22
F3.0
sg23
F10.0
sg24
F4.0
ssI5
(dp28
g22
F0.0
sg23
F1.0
sg24
F20.0
sssS'tprob_'
p29
(dp30
I2
F0.4647887323943662
sI4
F0.23943661971830985
sI5
F0.29577464788732394
ssS'threshold'
p31
(dp32
I1
I0
sI3
F1.90815629930174e-06
ssS'children'
p33
(dp34
I1
c__builtin__
set
p35
((lp36
I2
aI3
atp37
Rp38
sI2
g35
((lp39
tp40
Rp41
sI3
g35
((lp42
I4
aI5
atp43
Rp44
sI4
g35
((lp45
tp46
Rp47
sI5
g35
((lp48
tp49
Rp50
ssS'children_right'
p51
(dp52
I1
I3
sI2
NsI3
I5
sI4
NsI5
NssS'feature'
p53
(dp54
I1
g14
sI2
S'2'
p55
sI3
g13
sI4
S'4'
p56
sI5
S'5'
p57
ssS'nodes'
p58
crpy2.robjects.robject
_reduce_robjectmixin
p59
(S'X\n\x00\x00\x00\x02\x00\x03\x05\x03\x00\x02\x03\x00\x00\x00\x00\r\x00\x00\x00\x05\x00\x00\x00\x01\x00\x00\x00\x02\x00\x00\x00\x03\x00\x00\x00\x04\x00\x00\x00\x05'
p60
I13
crpy2.rinterface._rinterface
unserialize
p61
crpy2.robjects.vectors
IntVector
p62
tp63
Rp64
(dp65
S'ro'
p66
g0
(crpy2.robjects.vectors
VectorOperationsDelegator
p67
g2
Ntp68
Rp69
(dp70
S'_parent'
p71
g64
sbsS'rx'
p72
g0
(crpy2.robjects.vectors
ExtractDelegator
p73
g2
Ntp74
Rp75
(dp76
g71
g64
sbsS'rx2'
p77
g0
(crpy2.robjects.vectors
DoubleExtractDelegator
p78
g2
Ntp79
Rp80
(dp81
g71
g64
sbsbsS'response_var_'
p82
S'P350'
p83
sS'edge_cond_'
p84
(dp85
(I1
I2
tp86
(lp87
S'A'
p88
as(I1
I3
tp89
(lp90
g23
ag24
aS'G'
p91
as(I3
I4
tp92
(lp93
g22
ag23
as(I3
I5
tp94
(lp95
g24
ag91
assS'class_pred_'
p96
g20
sS'CLASSES'
p97
cnumpy.core.multiarray
_reconstruct
p98
(cnumpy
ndarray
p99
(I0
tp100
S'b'
p101
tp102
Rp103
(I1
(I3
tp104
cnumpy
dtype
p105
(S'O8'
p106
I0
I1
tp107
Rp108
(I3
S'|'
p109
NNNI-1
I-1
I63
tp110
bI00
(lp111
g22
ag23
ag24
atp112
bsS'TREE_LEAF'
p113
(dp114
I1
I00
sI2
I01
sI3
I00
sI4
I01
sI5
I01
ssS'num_pass_'
p115
(dp116
I1
I71
sI2
I33
sI3
I38
sI4
I17
sI5
I21
ssS'error'
p117
(dp118
I1
F38.028169014084504
sI2
F0.0
sI3
F36.8421052631579
sI4
F41.17647058823529
sI5
F4.761904761904762
ssS'pvalue'
p119
g32
sS'class_names'
p120
g103
sS'n_node_samples'
p121
g116
sb.