ccopy_reg
_reconstructor
p0
(cmlx
tree_
p1
c__builtin__
object
p2
Ntp3
Rp4
(dp5
S'decision_rules_'
p6
(dp7
I3
S'P1787 %in% c("A", "G") & P1787 %in% c("A", "NA")'
p8
sI4
S'P1787 %in% c("A", "G") & P1787 %in% c("G", "NA")'
p9
sI5
S'P1787 %in% c("T")'
p10
ssS'significant_feature_weight_'
p11
(dp12
S'P1787'
p13
F1.376889461989717
ssS'children_left'
p14
(dp15
I1
I2
sI2
I3
sI3
NsI4
NsI5
NssS'ACCx_'
p16
F0.8873239436619719
sS'ACC_'
p17
F1.0
sS'value'
p18
(dp19
I1
(dp20
S'A'
p21
F31.0
sS'T'
p22
F9.0
sS'G'
p23
F31.0
ssI2
(dp24
g21
F31.0
sg22
F9.0
sg23
F0.0
ssI3
(dp25
g21
F31.0
sg22
F0.0
sg23
F0.0
ssI4
(dp26
g21
F0.0
sg22
F9.0
sg23
F0.0
ssI5
(dp27
g21
F0.0
sg22
F0.0
sg23
F31.0
sssS'tprob_'
p28
(dp29
I3
F0.43661971830985913
sI4
F0.1267605633802817
sI5
F0.43661971830985913
ssS'threshold'
p30
(dp31
I1
I0
sI2
F2.07028793297592e-06
ssS'children'
p32
(dp33
I1
c__builtin__
set
p34
((lp35
I2
aI5
atp36
Rp37
sI2
g34
((lp38
I3
aI4
atp39
Rp40
sI3
g34
((lp41
tp42
Rp43
sI4
g34
((lp44
tp45
Rp46
sI5
g34
((lp47
tp48
Rp49
ssS'children_right'
p50
(dp51
I1
I5
sI2
I4
sI3
NsI4
NsI5
NssS'feature'
p52
(dp53
I1
S'P1787'
p54
sI2
g13
sI3
S'3'
p55
sI4
S'4'
p56
sI5
S'5'
p57
ssS'nodes'
p58
crpy2.robjects.robject
_reduce_robjectmixin
p59
(S'X\n\x00\x00\x00\x02\x00\x03\x05\x03\x00\x02\x03\x00\x00\x00\x00\r\x00\x00\x00\x05\x00\x00\x00\x01\x00\x00\x00\x02\x00\x00\x00\x03\x00\x00\x00\x04\x00\x00\x00\x05'
p60
I13
crpy2.rinterface._rinterface
unserialize
p61
crpy2.robjects.vectors
IntVector
p62
tp63
Rp64
(dp65
S'ro'
p66
g0
(crpy2.robjects.vectors
VectorOperationsDelegator
p67
g2
Ntp68
Rp69
(dp70
S'_parent'
p71
g64
sbsS'rx'
p72
g0
(crpy2.robjects.vectors
ExtractDelegator
p73
g2
Ntp74
Rp75
(dp76
g71
g64
sbsS'rx2'
p77
g0
(crpy2.robjects.vectors
DoubleExtractDelegator
p78
g2
Ntp79
Rp80
(dp81
g71
g64
sbsbsS'response_var_'
p82
S'P3734'
p83
sS'edge_cond_'
p84
(dp85
(I1
I2
tp86
(lp87
g21
ag23
as(I1
I5
tp88
(lp89
S'T'
p90
as(I2
I3
tp91
(lp92
g21
as(I2
I4
tp93
(lp94
g23
assS'class_pred_'
p95
g19
sS'CLASSES'
p96
cnumpy.core.multiarray
_reconstruct
p97
(cnumpy
ndarray
p98
(I0
tp99
S'b'
p100
tp101
Rp102
(I1
(I3
tp103
cnumpy
dtype
p104
(S'O8'
p105
I0
I1
tp106
Rp107
(I3
S'|'
p108
NNNI-1
I-1
I63
tp109
bI00
(lp110
g21
ag23
ag22
atp111
bsS'TREE_LEAF'
p112
(dp113
I1
I00
sI2
I00
sI3
I01
sI4
I01
sI5
I01
ssS'num_pass_'
p114
(dp115
I1
I71
sI2
I40
sI3
I31
sI4
I9
sI5
I31
ssS'error'
p116
(dp117
I1
F56.33802816901408
sI2
F22.5
sI3
F0.0
sI4
F0.0
sI5
F0.0
ssS'pvalue'
p118
g31
sS'class_names'
p119
g102
sS'n_node_samples'
p120
g115
sb.