ccopy_reg
_reconstructor
p0
(cmlx
tree_
p1
c__builtin__
object
p2
Ntp3
Rp4
(dp5
S'decision_rules_'
p6
(dp7
I8
S'P1320 %in% c("C", "T") & P144 %in% c("NA", "T") & P235 %in% c("A", "C", "G") & P2464 %in% c("T")'
p8
sI9
S'P1320 %in% c("C", "T") & P144 %in% c("NA", "T") & P235 %in% c("T")'
p9
sI2
S'P1320 %in% c("A", "G")'
p10
sI4
S'P1320 %in% c("C", "T") & P144 %in% c("A", "C", "NA")'
p11
sI7
S'P1320 %in% c("C", "T") & P144 %in% c("NA", "T") & P235 %in% c("A", "C", "G") & P2464 %in% c("A", "G")'
p12
ssS'significant_feature_weight_'
p13
(dp14
S'P2464'
p15
F0.0
sS'P1320'
p16
F0.2853535896496085
sS'P144'
p17
F0.0
sS'P235'
p18
F0.0
ssS'children_left'
p19
(dp20
I1
I2
sI2
NsI3
I4
sI4
NsI5
I9
sI6
I8
sI7
NsI8
NsI9
NssS'ACCx_'
p21
F0.04225352112676062
sS'ACC_'
p22
F0.8873239436619719
sS'value'
p23
(dp24
I1
(dp25
S'A'
p26
F57.0
sS'C'
p27
F6.0
sS'T'
p28
F1.0
sS'G'
p29
F7.0
ssI2
(dp30
g26
F0.0
sg27
F6.0
sg28
F0.0
sg29
F1.0
ssI3
(dp31
g26
F57.0
sg27
F0.0
sg28
F1.0
sg29
F6.0
ssI4
(dp32
g26
F9.0
sg27
F0.0
sg28
F1.0
sg29
F3.0
ssI5
(dp33
g26
F48.0
sg27
F0.0
sg28
F0.0
sg29
F3.0
ssI6
(dp34
g26
F21.0
sg27
F0.0
sg28
F0.0
sg29
F3.0
ssI7
(dp35
g26
F4.0
sg27
F0.0
sg28
F0.0
sg29
F3.0
ssI8
(dp36
g26
F17.0
sg27
F0.0
sg28
F0.0
sg29
F0.0
ssI9
(dp37
g26
F27.0
sg27
F0.0
sg28
F0.0
sg29
F0.0
sssS'tprob_'
p38
(dp39
I8
F0.23943661971830985
sI9
F0.38028169014084506
sI2
F0.09859154929577464
sI4
F0.18309859154929578
sI7
F0.09859154929577464
ssS'threshold'
p40
(dp41
I1
I0
sI3
F4.4920067665543694e-10
sI5
F3.9027133003077797e-07
sI6
F0.0482812874654879
ssS'children'
p42
(dp43
I1
c__builtin__
set
p44
((lp45
I2
aI3
atp46
Rp47
sI2
g44
((lp48
tp49
Rp50
sI3
g44
((lp51
I4
aI5
atp52
Rp53
sI4
g44
((lp54
tp55
Rp56
sI5
g44
((lp57
I9
aI6
atp58
Rp59
sI6
g44
((lp60
I8
aI7
atp61
Rp62
sI7
g44
((lp63
tp64
Rp65
sI8
g44
((lp66
tp67
Rp68
sI9
g44
((lp69
tp70
Rp71
ssS'children_right'
p72
(dp73
I1
I3
sI2
NsI3
I5
sI4
NsI5
I6
sI6
I7
sI7
NsI8
NsI9
NssS'feature'
p74
(dp75
I1
g16
sI2
S'2'
p76
sI3
g17
sI4
S'4'
p77
sI5
g18
sI6
g15
sI7
S'7'
p78
sI8
S'8'
p79
sI9
S'9'
p80
ssS'nodes'
p81
crpy2.robjects.robject
_reduce_robjectmixin
p82
(S'X\n\x00\x00\x00\x02\x00\x03\x05\x03\x00\x02\x03\x00\x00\x00\x00\r\x00\x00\x00\t\x00\x00\x00\x01\x00\x00\x00\x02\x00\x00\x00\x03\x00\x00\x00\x04\x00\x00\x00\x05\x00\x00\x00\x06\x00\x00\x00\x07\x00\x00\x00\x08\x00\x00\x00\t'
p83
I13
crpy2.rinterface._rinterface
unserialize
p84
crpy2.robjects.vectors
IntVector
p85
tp86
Rp87
(dp88
S'ro'
p89
g0
(crpy2.robjects.vectors
VectorOperationsDelegator
p90
g2
Ntp91
Rp92
(dp93
S'_parent'
p94
g87
sbsS'rx'
p95
g0
(crpy2.robjects.vectors
ExtractDelegator
p96
g2
Ntp97
Rp98
(dp99
g94
g87
sbsS'rx2'
p100
g0
(crpy2.robjects.vectors
DoubleExtractDelegator
p101
g2
Ntp102
Rp103
(dp104
g94
g87
sbsbsS'response_var_'
p105
S'P565'
p106
sS'edge_cond_'
p107
(dp108
(I1
I2
tp109
(lp110
g26
ag29
as(I5
I9
tp111
(lp112
S'T'
p113
as(I1
I3
tp114
(lp115
g27
ag28
as(I6
I7
tp116
(lp117
g26
ag29
as(I6
I8
tp118
(lp119
S'T'
p120
as(I5
I6
tp121
(lp122
g26
ag27
ag29
as(I3
I4
tp123
(lp124
g26
ag27
as(I3
I5
tp125
(lp126
g28
assS'class_pred_'
p127
g24
sS'CLASSES'
p128
cnumpy.core.multiarray
_reconstruct
p129
(cnumpy
ndarray
p130
(I0
tp131
S'b'
p132
tp133
Rp134
(I1
(I4
tp135
cnumpy
dtype
p136
(S'O8'
p137
I0
I1
tp138
Rp139
(I3
S'|'
p140
NNNI-1
I-1
I63
tp141
bI00
(lp142
g26
ag27
ag29
ag28
atp143
bsS'TREE_LEAF'
p144
(dp145
I1
I00
sI2
I01
sI3
I00
sI4
I01
sI5
I00
sI6
I00
sI7
I01
sI8
I01
sI9
I01
ssS'num_pass_'
p146
(dp147
I1
I71
sI2
I7
sI3
I64
sI4
I13
sI5
I51
sI6
I24
sI7
I7
sI8
I17
sI9
I27
ssS'error'
p148
(dp149
I1
F19.718309859154928
sI2
F14.285714285714285
sI3
F10.9375
sI4
F30.76923076923077
sI5
F5.88235294117647
sI6
F12.5
sI7
F42.857142857142854
sI8
F0.0
sI9
F0.0
ssS'pvalue'
p150
g41
sS'class_names'
p151
g134
sS'n_node_samples'
p152
g147
sb.