ccopy_reg
_reconstructor
p0
(cmlx
tree_
p1
c__builtin__
object
p2
Ntp3
Rp4
(dp5
S'decision_rules_'
p6
(dp7
I3
S'P1755 %in% c("A", "C", "G", "R") & P3853 %in% c("A", "G", "Y")'
p8
sI5
S'P1755 %in% c("A", "C", "G", "R") & P3853 %in% c("C", "T") & P2460 %in% c("A", "C", "NA")'
p9
sI6
S'P1755 %in% c("A", "C", "G", "R") & P3853 %in% c("C", "T") & P2460 %in% c("NA", "T")'
p10
sI7
S'P1755 %in% c("T")'
p11
ssS'significant_feature_weight_'
p12
(dp13
S'P1755'
p14
F0.2853535896496085
sS'P3853'
p15
F0.31277348194483495
sS'P2460'
p16
F0.5337286714952623
ssS'children_left'
p17
(dp18
I1
I2
sI2
I3
sI3
NsI4
I5
sI5
NsI6
NsI7
NssS'ACCx_'
p19
F0.7887323943661972
sS'ACC_'
p20
F0.8873239436619719
sS'value'
p21
(dp22
I1
(dp23
S'A'
p24
F49.0
sS'C'
p25
F5.0
sS'R'
p26
F1.0
sS'T'
p27
F8.0
sS'G'
p28
F8.0
ssI2
(dp29
g24
F49.0
sg25
F4.0
sg26
F1.0
sg27
F2.0
sg28
F8.0
ssI3
(dp30
g24
F0.0
sg25
F4.0
sg26
F1.0
sg27
F2.0
sg28
F0.0
ssI4
(dp31
g24
F49.0
sg25
F0.0
sg26
F0.0
sg27
F0.0
sg28
F8.0
ssI5
(dp32
g24
F4.0
sg25
F0.0
sg26
F0.0
sg27
F0.0
sg28
F8.0
ssI6
(dp33
g24
F45.0
sg25
F0.0
sg26
F0.0
sg27
F0.0
sg28
F0.0
ssI7
(dp34
g24
F0.0
sg25
F1.0
sg26
F0.0
sg27
F6.0
sg28
F0.0
sssS'tprob_'
p35
(dp36
I3
F0.09859154929577464
sI5
F0.16901408450704225
sI6
F0.6338028169014085
sI7
F0.09859154929577464
ssS'threshold'
p37
(dp38
I1
I0
sI2
I0
sI4
F1.16148733135812e-05
ssS'children'
p39
(dp40
I1
c__builtin__
set
p41
((lp42
I2
aI7
atp43
Rp44
sI2
g41
((lp45
I3
aI4
atp46
Rp47
sI3
g41
((lp48
tp49
Rp50
sI4
g41
((lp51
I5
aI6
atp52
Rp53
sI5
g41
((lp54
tp55
Rp56
sI6
g41
((lp57
tp58
Rp59
sI7
g41
((lp60
tp61
Rp62
ssS'children_right'
p63
(dp64
I1
I7
sI2
I4
sI3
NsI4
I6
sI5
NsI6
NsI7
NssS'feature'
p65
(dp66
I1
g14
sI2
g15
sI3
S'3'
p67
sI4
g16
sI5
S'5'
p68
sI6
S'6'
p69
sI7
S'7'
p70
ssS'nodes'
p71
crpy2.robjects.robject
_reduce_robjectmixin
p72
(S'X\n\x00\x00\x00\x02\x00\x03\x05\x03\x00\x02\x03\x00\x00\x00\x00\r\x00\x00\x00\x07\x00\x00\x00\x01\x00\x00\x00\x02\x00\x00\x00\x03\x00\x00\x00\x04\x00\x00\x00\x05\x00\x00\x00\x06\x00\x00\x00\x07'
p73
I13
crpy2.rinterface._rinterface
unserialize
p74
crpy2.robjects.vectors
IntVector
p75
tp76
Rp77
(dp78
S'ro'
p79
g0
(crpy2.robjects.vectors
VectorOperationsDelegator
p80
g2
Ntp81
Rp82
(dp83
S'_parent'
p84
g77
sbsS'rx'
p85
g0
(crpy2.robjects.vectors
ExtractDelegator
p86
g2
Ntp87
Rp88
(dp89
g84
g77
sbsS'rx2'
p90
g0
(crpy2.robjects.vectors
DoubleExtractDelegator
p91
g2
Ntp92
Rp93
(dp94
g84
g77
sbsbsS'response_var_'
p95
S'P4479'
p96
sS'edge_cond_'
p97
(dp98
(I1
I2
tp99
(lp100
g24
ag25
ag26
ag28
as(I4
I6
tp101
(lp102
g27
as(I4
I5
tp103
(lp104
g24
ag25
as(I2
I3
tp105
(lp106
g24
aS'Y'
p107
ag28
as(I1
I7
tp108
(lp109
S'T'
p110
as(I2
I4
tp111
(lp112
g25
ag27
assS'class_pred_'
p113
g22
sS'CLASSES'
p114
cnumpy.core.multiarray
_reconstruct
p115
(cnumpy
ndarray
p116
(I0
tp117
S'b'
p118
tp119
Rp120
(I1
(I5
tp121
cnumpy
dtype
p122
(S'O8'
p123
I0
I1
tp124
Rp125
(I3
S'|'
p126
NNNI-1
I-1
I63
tp127
bI00
(lp128
g24
ag25
ag28
ag26
ag27
atp129
bsS'TREE_LEAF'
p130
(dp131
I1
I00
sI2
I00
sI3
I01
sI4
I00
sI5
I01
sI6
I01
sI7
I01
ssS'num_pass_'
p132
(dp133
I1
I71
sI2
I64
sI3
I7
sI4
I57
sI5
I12
sI6
I45
sI7
I7
ssS'error'
p134
(dp135
I1
F30.985915492957748
sI2
F23.4375
sI3
F42.857142857142854
sI4
F14.035087719298245
sI5
F33.33333333333333
sI6
F0.0
sI7
F14.285714285714285
ssS'pvalue'
p136
g38
sS'class_names'
p137
g120
sS'n_node_samples'
p138
g133
sb.