ccopy_reg
_reconstructor
p0
(cmlx
tree_
p1
c__builtin__
object
p2
Ntp3
Rp4
(dp5
S'decision_rules_'
p6
(dp7
I8
S'P3246 %in% c("C") & P21 %in% c("A", "C", "T")'
p8
sI9
S'P3246 %in% c("C") & P21 %in% c("G")'
p9
sI3
S'P3246 %in% c("A", "G", "T", "Y") & P2340 %in% c("A")'
p10
sI5
S'P3246 %in% c("A", "G", "T", "Y") & P2340 %in% c("C", "G", "T", "Y") & P4128 %in% c("A", "G", "Y")'
p11
sI6
S'P3246 %in% c("A", "G", "T", "Y") & P2340 %in% c("C", "G", "T", "Y") & P4128 %in% c("C", "T")'
p12
ssS'significant_feature_weight_'
p13
(dp14
S'P3246'
p15
F0.7710585491995329
sS'P2340'
p16
F0.5853853425604867
sS'P21'
p17
F0.2868117205647288
sS'P4128'
p18
F0.18328695187655739
ssS'children_left'
p19
(dp20
I1
I2
sI2
I3
sI3
NsI4
I5
sI5
NsI6
NsI7
I8
sI8
NsI9
NssS'ACCx_'
p21
F0.7605633802816901
sS'ACC_'
p22
F0.8309859154929577
sS'value'
p23
(dp24
I1
(dp25
S'A'
p26
F9.0
sS'C'
p27
F14.0
sS'R'
p28
F1.0
sS'T'
p29
F3.0
sS'G'
p30
F44.0
ssI2
(dp31
g26
F8.0
sg27
F1.0
sg28
F1.0
sg29
F3.0
sg30
F36.0
ssI3
(dp32
g26
F0.0
sg27
F0.0
sg28
F0.0
sg29
F0.0
sg30
F27.0
ssI4
(dp33
g26
F8.0
sg27
F1.0
sg28
F1.0
sg29
F3.0
sg30
F9.0
ssI5
(dp34
g26
F2.0
sg27
F0.0
sg28
F1.0
sg29
F3.0
sg30
F1.0
ssI6
(dp35
g26
F6.0
sg27
F1.0
sg28
F0.0
sg29
F0.0
sg30
F8.0
ssI7
(dp36
g26
F1.0
sg27
F13.0
sg28
F0.0
sg29
F0.0
sg30
F8.0
ssI8
(dp37
g26
F1.0
sg27
F13.0
sg28
F0.0
sg29
F0.0
sg30
F0.0
ssI9
(dp38
g26
F0.0
sg27
F0.0
sg28
F0.0
sg29
F0.0
sg30
F8.0
sssS'tprob_'
p39
(dp40
I8
F0.19718309859154928
sI9
F0.11267605633802817
sI3
F0.38028169014084506
sI5
F0.09859154929577464
sI6
F0.2112676056338028
ssS'threshold'
p41
(dp42
I1
I0
sI2
I0
sI4
F0.0006026415805922
sI7
F0.0008978363725836711
ssS'children'
p43
(dp44
I1
c__builtin__
set
p45
((lp46
I2
aI7
atp47
Rp48
sI2
g45
((lp49
I3
aI4
atp50
Rp51
sI3
g45
((lp52
tp53
Rp54
sI4
g45
((lp55
I5
aI6
atp56
Rp57
sI5
g45
((lp58
tp59
Rp60
sI6
g45
((lp61
tp62
Rp63
sI7
g45
((lp64
I8
aI9
atp65
Rp66
sI8
g45
((lp67
tp68
Rp69
sI9
g45
((lp70
tp71
Rp72
ssS'children_right'
p73
(dp74
I1
I7
sI2
I4
sI3
NsI4
I6
sI5
NsI6
NsI7
I9
sI8
NsI9
NssS'feature'
p75
(dp76
I1
g15
sI2
g16
sI3
S'3'
p77
sI4
g18
sI5
S'5'
p78
sI6
S'6'
p79
sI7
g17
sI8
S'8'
p80
sI9
S'9'
p81
ssS'nodes'
p82
crpy2.robjects.robject
_reduce_robjectmixin
p83
(S'X\n\x00\x00\x00\x02\x00\x03\x05\x03\x00\x02\x03\x00\x00\x00\x00\r\x00\x00\x00\t\x00\x00\x00\x01\x00\x00\x00\x02\x00\x00\x00\x03\x00\x00\x00\x04\x00\x00\x00\x05\x00\x00\x00\x06\x00\x00\x00\x07\x00\x00\x00\x08\x00\x00\x00\t'
p84
I13
crpy2.rinterface._rinterface
unserialize
p85
crpy2.robjects.vectors
IntVector
p86
tp87
Rp88
(dp89
S'ro'
p90
g0
(crpy2.robjects.vectors
VectorOperationsDelegator
p91
g2
Ntp92
Rp93
(dp94
S'_parent'
p95
g88
sbsS'rx'
p96
g0
(crpy2.robjects.vectors
ExtractDelegator
p97
g2
Ntp98
Rp99
(dp100
g95
g88
sbsS'rx2'
p101
g0
(crpy2.robjects.vectors
DoubleExtractDelegator
p102
g2
Ntp103
Rp104
(dp105
g95
g88
sbsbsS'response_var_'
p106
S'P145'
p107
sS'edge_cond_'
p108
(dp109
(I1
I2
tp110
(lp111
g26
aS'Y'
p112
ag29
ag30
as(I4
I6
tp113
(lp114
g27
ag29
as(I4
I5
tp115
(lp116
g26
ag112
ag30
as(I2
I3
tp117
(lp118
S'A'
p119
as(I1
I7
tp120
(lp121
S'C'
p122
as(I7
I8
tp123
(lp124
g26
ag27
ag29
as(I2
I4
tp125
(lp126
g112
ag27
ag29
ag30
as(I7
I9
tp127
(lp128
S'G'
p129
assS'class_pred_'
p130
g24
sS'CLASSES'
p131
cnumpy.core.multiarray
_reconstruct
p132
(cnumpy
ndarray
p133
(I0
tp134
S'b'
p135
tp136
Rp137
(I1
(I5
tp138
cnumpy
dtype
p139
(S'O8'
p140
I0
I1
tp141
Rp142
(I3
S'|'
p143
NNNI-1
I-1
I63
tp144
bI00
(lp145
g26
ag27
ag30
ag28
ag29
atp146
bsS'TREE_LEAF'
p147
(dp148
I1
I00
sI2
I00
sI3
I01
sI4
I00
sI5
I01
sI6
I01
sI7
I00
sI8
I01
sI9
I01
ssS'num_pass_'
p149
(dp150
I1
I71
sI2
I49
sI3
I27
sI4
I22
sI5
I7
sI6
I15
sI7
I22
sI8
I14
sI9
I8
ssS'error'
p151
(dp152
I1
F38.028169014084504
sI2
F26.53061224489796
sI3
F0.0
sI4
F59.09090909090909
sI5
F57.14285714285714
sI6
F46.666666666666664
sI7
F40.909090909090914
sI8
F7.142857142857142
sI9
F0.0
ssS'pvalue'
p153
g42
sS'class_names'
p154
g137
sS'n_node_samples'
p155
g150
sb.