ccopy_reg
_reconstructor
p0
(cmlx
tree_
p1
c__builtin__
object
p2
Ntp3
Rp4
(dp5
S'decision_rules_'
p6
(dp7
I2
S'P2519 %in% c("A")'
p8
sI4
S'P2519 %in% c("C", "G", "T") & P993 %in% c("A", "C", "G")'
p9
sI6
S'P2519 %in% c("C", "G", "T") & P993 %in% c("T") & P295 %in% c("A", "NA", "T")'
p10
sI7
S'P2519 %in% c("C", "G", "T") & P993 %in% c("T") & P295 %in% c("C", "NA")'
p11
ssS'significant_feature_weight_'
p12
(dp13
S'P993'
p14
F0.0
sS'P295'
p15
F0.0
sS'P2519'
p16
F0.2853535896496085
ssS'children_left'
p17
(dp18
I1
I2
sI2
NsI3
I4
sI4
NsI5
I6
sI6
NsI7
NssS'ACCx_'
p19
F0.8450704225352113
sS'ACC_'
p20
F0.8591549295774648
sS'value'
p21
(dp22
I1
(dp23
S'A'
p24
F54.0
sS'C'
p25
F3.0
sS'T'
p26
F8.0
sS'G'
p27
F6.0
ssI2
(dp28
g24
F0.0
sg25
F0.0
sg26
F7.0
sg27
F0.0
ssI3
(dp29
g24
F54.0
sg25
F3.0
sg26
F1.0
sg27
F6.0
ssI4
(dp30
g24
F3.0
sg25
F3.0
sg26
F1.0
sg27
F0.0
ssI5
(dp31
g24
F51.0
sg25
F0.0
sg26
F0.0
sg27
F6.0
ssI6
(dp32
g24
F27.0
sg25
F0.0
sg26
F0.0
sg27
F6.0
ssI7
(dp33
g24
F24.0
sg25
F0.0
sg26
F0.0
sg27
F0.0
sssS'tprob_'
p34
(dp35
I2
F0.09859154929577464
sI4
F0.09859154929577464
sI6
F0.4647887323943662
sI7
F0.3380281690140845
ssS'threshold'
p36
(dp37
I1
I0
sI3
I0
sI5
F5.5777735493700596e-05
ssS'children'
p38
(dp39
I1
c__builtin__
set
p40
((lp41
I2
aI3
atp42
Rp43
sI2
g40
((lp44
tp45
Rp46
sI3
g40
((lp47
I4
aI5
atp48
Rp49
sI4
g40
((lp50
tp51
Rp52
sI5
g40
((lp53
I6
aI7
atp54
Rp55
sI6
g40
((lp56
tp57
Rp58
sI7
g40
((lp59
tp60
Rp61
ssS'children_right'
p62
(dp63
I1
I3
sI2
NsI3
I5
sI4
NsI5
I7
sI6
NsI7
NssS'feature'
p64
(dp65
I1
g16
sI2
S'2'
p66
sI3
g14
sI4
S'4'
p67
sI5
g15
sI6
S'6'
p68
sI7
S'7'
p69
ssS'nodes'
p70
crpy2.robjects.robject
_reduce_robjectmixin
p71
(S'X\n\x00\x00\x00\x02\x00\x03\x05\x03\x00\x02\x03\x00\x00\x00\x00\r\x00\x00\x00\x07\x00\x00\x00\x01\x00\x00\x00\x02\x00\x00\x00\x03\x00\x00\x00\x04\x00\x00\x00\x05\x00\x00\x00\x06\x00\x00\x00\x07'
p72
I13
crpy2.rinterface._rinterface
unserialize
p73
crpy2.robjects.vectors
IntVector
p74
tp75
Rp76
(dp77
S'ro'
p78
g0
(crpy2.robjects.vectors
VectorOperationsDelegator
p79
g2
Ntp80
Rp81
(dp82
S'_parent'
p83
g76
sbsS'rx'
p84
g0
(crpy2.robjects.vectors
ExtractDelegator
p85
g2
Ntp86
Rp87
(dp88
g83
g76
sbsS'rx2'
p89
g0
(crpy2.robjects.vectors
DoubleExtractDelegator
p90
g2
Ntp91
Rp92
(dp93
g83
g76
sbsbsS'response_var_'
p94
S'P129'
p95
sS'edge_cond_'
p96
(dp97
(I1
I2
tp98
(lp99
S'A'
p100
as(I1
I3
tp101
(lp102
g25
ag26
ag27
as(I5
I6
tp103
(lp104
g24
ag26
as(I5
I7
tp105
(lp106
g25
as(I3
I4
tp107
(lp108
g24
ag25
ag27
as(I3
I5
tp109
(lp110
S'T'
p111
assS'class_pred_'
p112
g22
sS'CLASSES'
p113
cnumpy.core.multiarray
_reconstruct
p114
(cnumpy
ndarray
p115
(I0
tp116
S'b'
p117
tp118
Rp119
(I1
(I4
tp120
cnumpy
dtype
p121
(S'O8'
p122
I0
I1
tp123
Rp124
(I3
S'|'
p125
NNNI-1
I-1
I63
tp126
bI00
(lp127
g24
ag25
ag27
ag26
atp128
bsS'TREE_LEAF'
p129
(dp130
I1
I00
sI2
I01
sI3
I00
sI4
I01
sI5
I00
sI6
I01
sI7
I01
ssS'num_pass_'
p131
(dp132
I1
I71
sI2
I7
sI3
I64
sI4
I7
sI5
I57
sI6
I33
sI7
I24
ssS'error'
p133
(dp134
I1
F23.943661971830984
sI2
F0.0
sI3
F15.625
sI4
F57.14285714285714
sI5
F10.526315789473683
sI6
F18.181818181818183
sI7
F0.0
ssS'pvalue'
p135
g37
sS'class_names'
p136
g119
sS'n_node_samples'
p137
g132
sb.