ccopy_reg
_reconstructor
p0
(cmlx
tree_
p1
c__builtin__
object
p2
Ntp3
Rp4
(dp5
S'decision_rules_'
p6
(dp7
I3
S'P873 %in% c("A", "C", "G", "R") & P117 %in% c("A", "T")'
p8
sI4
S'P873 %in% c("A", "C", "G", "R") & P117 %in% c("C", "G", "R")'
p9
sI5
S'P873 %in% c("T")'
p10
ssS'significant_feature_weight_'
p11
(dp12
S'P873'
p13
F0.9664748866057782
sS'P117'
p14
F0.5258215664498403
ssS'children_left'
p15
(dp16
I1
I2
sI2
I3
sI3
NsI4
NsI5
NssS'ACCx_'
p17
F0.3661971830985915
sS'ACC_'
p18
F0.8309859154929577
sS'value'
p19
(dp20
I1
(dp21
S'A'
p22
F7.0
sS'Y'
p23
F1.0
sS'C'
p24
F25.0
sS'T'
p25
F38.0
ssI2
(dp26
g22
F6.0
sg23
F1.0
sg24
F25.0
sg25
F10.0
ssI3
(dp27
g22
F1.0
sg23
F0.0
sg24
F24.0
sg25
F3.0
ssI4
(dp28
g22
F5.0
sg23
F1.0
sg24
F1.0
sg25
F7.0
ssI5
(dp29
g22
F1.0
sg23
F0.0
sg24
F0.0
sg25
F28.0
sssS'tprob_'
p30
(dp31
I3
F0.39436619718309857
sI4
F0.19718309859154928
sI5
F0.4084507042253521
ssS'threshold'
p32
(dp33
I1
I0
sI2
F6.80984935108597e-10
ssS'children'
p34
(dp35
I1
c__builtin__
set
p36
((lp37
I2
aI5
atp38
Rp39
sI2
g36
((lp40
I3
aI4
atp41
Rp42
sI3
g36
((lp43
tp44
Rp45
sI4
g36
((lp46
tp47
Rp48
sI5
g36
((lp49
tp50
Rp51
ssS'children_right'
p52
(dp53
I1
I5
sI2
I4
sI3
NsI4
NsI5
NssS'feature'
p54
(dp55
I1
g13
sI2
g14
sI3
S'3'
p56
sI4
S'4'
p57
sI5
S'5'
p58
ssS'nodes'
p59
crpy2.robjects.robject
_reduce_robjectmixin
p60
(S'X\n\x00\x00\x00\x02\x00\x03\x05\x03\x00\x02\x03\x00\x00\x00\x00\r\x00\x00\x00\x05\x00\x00\x00\x01\x00\x00\x00\x02\x00\x00\x00\x03\x00\x00\x00\x04\x00\x00\x00\x05'
p61
I13
crpy2.rinterface._rinterface
unserialize
p62
crpy2.robjects.vectors
IntVector
p63
tp64
Rp65
(dp66
S'ro'
p67
g0
(crpy2.robjects.vectors
VectorOperationsDelegator
p68
g2
Ntp69
Rp70
(dp71
S'_parent'
p72
g65
sbsS'rx'
p73
g0
(crpy2.robjects.vectors
ExtractDelegator
p74
g2
Ntp75
Rp76
(dp77
g72
g65
sbsS'rx2'
p78
g0
(crpy2.robjects.vectors
DoubleExtractDelegator
p79
g2
Ntp80
Rp81
(dp82
g72
g65
sbsbsS'response_var_'
p83
S'P4440'
p84
sS'edge_cond_'
p85
(dp86
(I1
I2
tp87
(lp88
g22
ag24
aS'R'
p89
aS'G'
p90
as(I1
I5
tp91
(lp92
S'T'
p93
as(I2
I3
tp94
(lp95
g22
ag25
as(I2
I4
tp96
(lp97
g24
ag89
ag90
assS'class_pred_'
p98
g20
sS'CLASSES'
p99
cnumpy.core.multiarray
_reconstruct
p100
(cnumpy
ndarray
p101
(I0
tp102
S'b'
p103
tp104
Rp105
(I1
(I4
tp106
cnumpy
dtype
p107
(S'O8'
p108
I0
I1
tp109
Rp110
(I3
S'|'
p111
NNNI-1
I-1
I63
tp112
bI00
(lp113
g22
ag24
ag25
ag23
atp114
bsS'TREE_LEAF'
p115
(dp116
I1
I00
sI2
I00
sI3
I01
sI4
I01
sI5
I01
ssS'num_pass_'
p117
(dp118
I1
I71
sI2
I42
sI3
I28
sI4
I14
sI5
I29
ssS'error'
p119
(dp120
I1
F46.478873239436616
sI2
F40.476190476190474
sI3
F14.285714285714285
sI4
F50.0
sI5
F3.4482758620689653
ssS'pvalue'
p121
g33
sS'class_names'
p122
g105
sS'n_node_samples'
p123
g118
sb.