ccopy_reg
_reconstructor
p0
(cmlx
tree_
p1
c__builtin__
object
p2
Ntp3
Rp4
(dp5
S'decision_rules_'
p6
(dp7
I2
S'P634 %in% c("A")'
p8
sI5
S'P634 %in% c("C", "G", "T") & P4000 %in% c("A", "C", "T") & P4039 %in% c("A", "C", "G")'
p9
sI6
S'P634 %in% c("C", "G", "T") & P4000 %in% c("A", "C", "T") & P4039 %in% c("T")'
p10
sI7
S'P634 %in% c("C", "G", "T") & P4000 %in% c("G")'
p11
ssS'significant_feature_weight_'
p12
(dp13
S'P4039'
p14
F0.39981822284769186
sS'P634'
p15
F0.4427692830262924
sS'P4000'
p16
F0.8732394139100976
ssS'children_left'
p17
(dp18
I1
I2
sI2
NsI3
I4
sI4
I5
sI5
NsI6
NsI7
NssS'ACCx_'
p19
F0.8309859154929577
sS'ACC_'
p20
F0.8873239436619719
sS'value'
p21
(dp22
I1
(dp23
S'A'
p24
F24.0
sS'C'
p25
F8.0
sS'T'
p26
F2.0
sS'G'
p27
F37.0
ssI2
(dp28
g24
F1.0
sg25
F7.0
sg26
F0.0
sg27
F1.0
ssI3
(dp29
g24
F23.0
sg25
F1.0
sg26
F2.0
sg27
F36.0
ssI4
(dp30
g24
F23.0
sg25
F1.0
sg26
F2.0
sg27
F5.0
ssI5
(dp31
g24
F3.0
sg25
F1.0
sg26
F2.0
sg27
F5.0
ssI6
(dp32
g24
F20.0
sg25
F0.0
sg26
F0.0
sg27
F0.0
ssI7
(dp33
g24
F0.0
sg25
F0.0
sg26
F0.0
sg27
F31.0
sssS'tprob_'
p34
(dp35
I2
F0.1267605633802817
sI5
F0.15492957746478872
sI6
F0.28169014084507044
sI7
F0.43661971830985913
ssS'threshold'
p36
(dp37
I1
I0
sI3
I0
sI4
F4.2643913955586795e-09
ssS'children'
p38
(dp39
I1
c__builtin__
set
p40
((lp41
I2
aI3
atp42
Rp43
sI2
g40
((lp44
tp45
Rp46
sI3
g40
((lp47
I4
aI7
atp48
Rp49
sI4
g40
((lp50
I5
aI6
atp51
Rp52
sI5
g40
((lp53
tp54
Rp55
sI6
g40
((lp56
tp57
Rp58
sI7
g40
((lp59
tp60
Rp61
ssS'children_right'
p62
(dp63
I1
I3
sI2
NsI3
I7
sI4
I6
sI5
NsI6
NsI7
NssS'feature'
p64
(dp65
I1
g15
sI2
S'2'
p66
sI3
g16
sI4
g14
sI5
S'5'
p67
sI6
S'6'
p68
sI7
S'7'
p69
ssS'nodes'
p70
crpy2.robjects.robject
_reduce_robjectmixin
p71
(S'X\n\x00\x00\x00\x02\x00\x03\x05\x03\x00\x02\x03\x00\x00\x00\x00\r\x00\x00\x00\x07\x00\x00\x00\x01\x00\x00\x00\x02\x00\x00\x00\x03\x00\x00\x00\x04\x00\x00\x00\x05\x00\x00\x00\x06\x00\x00\x00\x07'
p72
I13
crpy2.rinterface._rinterface
unserialize
p73
crpy2.robjects.vectors
IntVector
p74
tp75
Rp76
(dp77
S'ro'
p78
g0
(crpy2.robjects.vectors
VectorOperationsDelegator
p79
g2
Ntp80
Rp81
(dp82
S'_parent'
p83
g76
sbsS'rx'
p84
g0
(crpy2.robjects.vectors
ExtractDelegator
p85
g2
Ntp86
Rp87
(dp88
g83
g76
sbsS'rx2'
p89
g0
(crpy2.robjects.vectors
DoubleExtractDelegator
p90
g2
Ntp91
Rp92
(dp93
g83
g76
sbsbsS'response_var_'
p94
S'P3210'
p95
sS'edge_cond_'
p96
(dp97
(I1
I2
tp98
(lp99
S'A'
p100
as(I1
I3
tp101
(lp102
g25
ag26
ag27
as(I4
I6
tp103
(lp104
S'T'
p105
as(I4
I5
tp106
(lp107
g24
ag25
ag27
as(I3
I7
tp108
(lp109
S'G'
p110
as(I3
I4
tp111
(lp112
g24
ag25
ag26
assS'class_pred_'
p113
g22
sS'CLASSES'
p114
cnumpy.core.multiarray
_reconstruct
p115
(cnumpy
ndarray
p116
(I0
tp117
S'b'
p118
tp119
Rp120
(I1
(I4
tp121
cnumpy
dtype
p122
(S'O8'
p123
I0
I1
tp124
Rp125
(I3
S'|'
p126
NNNI-1
I-1
I63
tp127
bI00
(lp128
g24
ag25
ag27
ag26
atp129
bsS'TREE_LEAF'
p130
(dp131
I1
I00
sI2
I01
sI3
I00
sI4
I00
sI5
I01
sI6
I01
sI7
I01
ssS'num_pass_'
p132
(dp133
I1
I71
sI2
I9
sI3
I62
sI4
I31
sI5
I11
sI6
I20
sI7
I31
ssS'error'
p134
(dp135
I1
F47.88732394366197
sI2
F22.22222222222222
sI3
F41.93548387096774
sI4
F25.806451612903224
sI5
F54.54545454545455
sI6
F0.0
sI7
F0.0
ssS'pvalue'
p136
g37
sS'class_names'
p137
g120
sS'n_node_samples'
p138
g133
sb.