ccopy_reg
_reconstructor
p0
(cmlx
tree_
p1
c__builtin__
object
p2
Ntp3
Rp4
(dp5
S'decision_rules_'
p6
(dp7
I2
S'P755 %in% c("A", "T")'
p8
sI4
S'P755 %in% c("C", "N") & P3726 %in% c("A", "C", "G", "N")'
p9
sI5
S'P755 %in% c("C", "N") & P3726 %in% c("T")'
p10
ssS'significant_feature_weight_'
p11
(dp12
S'P755'
p13
F0.7284268849787393
sS'P3726'
p14
F0.7605633542089272
ssS'children_left'
p15
(dp16
I1
I2
sI2
NsI3
I4
sI4
NsI5
NssS'ACCx_'
p17
F0.295774647887324
sS'ACC_'
p18
F0.7464788732394366
sS'value'
p19
(dp20
I1
(dp21
S'A'
p22
F5.0
sS'C'
p23
F51.0
sS'T'
p24
F14.0
sS'N'
p25
F1.0
ssI2
(dp26
g22
F5.0
sg23
F12.0
sg24
F0.0
sg25
F0.0
ssI3
(dp27
g22
F0.0
sg23
F39.0
sg24
F14.0
sg25
F1.0
ssI4
(dp28
g22
F0.0
sg23
F12.0
sg24
F14.0
sg25
F1.0
ssI5
(dp29
g22
F0.0
sg23
F27.0
sg24
F0.0
sg25
F0.0
sssS'tprob_'
p30
(dp31
I2
F0.23943661971830985
sI4
F0.38028169014084506
sI5
F0.38028169014084506
ssS'threshold'
p32
(dp33
I1
I0
sI3
F3.3665509269198403e-09
ssS'children'
p34
(dp35
I1
c__builtin__
set
p36
((lp37
I2
aI3
atp38
Rp39
sI2
g36
((lp40
tp41
Rp42
sI3
g36
((lp43
I4
aI5
atp44
Rp45
sI4
g36
((lp46
tp47
Rp48
sI5
g36
((lp49
tp50
Rp51
ssS'children_right'
p52
(dp53
I1
I3
sI2
NsI3
I5
sI4
NsI5
NssS'feature'
p54
(dp55
I1
g13
sI2
S'2'
p56
sI3
g14
sI4
S'4'
p57
sI5
S'5'
p58
ssS'nodes'
p59
crpy2.robjects.robject
_reduce_robjectmixin
p60
(S'X\n\x00\x00\x00\x02\x00\x03\x05\x03\x00\x02\x03\x00\x00\x00\x00\r\x00\x00\x00\x05\x00\x00\x00\x01\x00\x00\x00\x02\x00\x00\x00\x03\x00\x00\x00\x04\x00\x00\x00\x05'
p61
I13
crpy2.rinterface._rinterface
unserialize
p62
crpy2.robjects.vectors
IntVector
p63
tp64
Rp65
(dp66
S'ro'
p67
g0
(crpy2.robjects.vectors
VectorOperationsDelegator
p68
g2
Ntp69
Rp70
(dp71
S'_parent'
p72
g65
sbsS'rx'
p73
g0
(crpy2.robjects.vectors
ExtractDelegator
p74
g2
Ntp75
Rp76
(dp77
g72
g65
sbsS'rx2'
p78
g0
(crpy2.robjects.vectors
DoubleExtractDelegator
p79
g2
Ntp80
Rp81
(dp82
g72
g65
sbsbsS'response_var_'
p83
S'P855'
p84
sS'edge_cond_'
p85
(dp86
(I1
I2
tp87
(lp88
g22
ag24
as(I1
I3
tp89
(lp90
g23
ag25
as(I3
I4
tp91
(lp92
g22
ag23
aS'G'
p93
ag25
as(I3
I5
tp94
(lp95
S'T'
p96
assS'class_pred_'
p97
g20
sS'CLASSES'
p98
cnumpy.core.multiarray
_reconstruct
p99
(cnumpy
ndarray
p100
(I0
tp101
S'b'
p102
tp103
Rp104
(I1
(I4
tp105
cnumpy
dtype
p106
(S'O8'
p107
I0
I1
tp108
Rp109
(I3
S'|'
p110
NNNI-1
I-1
I63
tp111
bI00
(lp112
g22
ag23
ag25
ag24
atp113
bsS'TREE_LEAF'
p114
(dp115
I1
I00
sI2
I01
sI3
I00
sI4
I01
sI5
I01
ssS'num_pass_'
p116
(dp117
I1
I71
sI2
I17
sI3
I54
sI4
I27
sI5
I27
ssS'error'
p118
(dp119
I1
F28.16901408450704
sI2
F29.411764705882355
sI3
F27.777777777777775
sI4
F48.148148148148145
sI5
F0.0
ssS'pvalue'
p120
g33
sS'class_names'
p121
g104
sS'n_node_samples'
p122
g117
sb.