ccopy_reg
_reconstructor
p0
(cmlx
tree_
p1
c__builtin__
object
p2
Ntp3
Rp4
(dp5
S'decision_rules_'
p6
(dp7
I3
S'P1837 %in% c("A", "G") & P4758 %in% c("A", "C", "NA")'
p8
sI4
S'P1837 %in% c("A", "G") & P4758 %in% c("NA", "T")'
p9
sI5
S'P1837 %in% c("C", "T")'
p10
ssS'significant_feature_weight_'
p11
(dp12
S'P4758'
p13
F0.21054973349729503
sS'P1837'
p14
F0.8368466551143164
ssS'children_left'
p15
(dp16
I1
I2
sI2
I3
sI3
NsI4
NsI5
NssS'ACCx_'
p17
F0.7887323943661972
sS'ACC_'
p18
F0.9154929577464789
sS'value'
p19
(dp20
I1
(dp21
S'A'
p22
F18.0
sS'C'
p23
F3.0
sS'G'
p24
F50.0
ssI2
(dp25
g22
F17.0
sg23
F3.0
sg24
F6.0
ssI3
(dp26
g22
F0.0
sg23
F3.0
sg24
F4.0
ssI4
(dp27
g22
F17.0
sg23
F0.0
sg24
F2.0
ssI5
(dp28
g22
F1.0
sg23
F0.0
sg24
F44.0
sssS'tprob_'
p29
(dp30
I3
F0.09859154929577464
sI4
F0.2676056338028169
sI5
F0.6338028169014085
ssS'threshold'
p31
(dp32
I1
I0
sI2
F0.00022043795321180498
ssS'children'
p33
(dp34
I1
c__builtin__
set
p35
((lp36
I2
aI5
atp37
Rp38
sI2
g35
((lp39
I3
aI4
atp40
Rp41
sI3
g35
((lp42
tp43
Rp44
sI4
g35
((lp45
tp46
Rp47
sI5
g35
((lp48
tp49
Rp50
ssS'children_right'
p51
(dp52
I1
I5
sI2
I4
sI3
NsI4
NsI5
NssS'feature'
p53
(dp54
I1
g14
sI2
g13
sI3
S'3'
p55
sI4
S'4'
p56
sI5
S'5'
p57
ssS'nodes'
p58
crpy2.robjects.robject
_reduce_robjectmixin
p59
(S'X\n\x00\x00\x00\x02\x00\x03\x05\x03\x00\x02\x03\x00\x00\x00\x00\r\x00\x00\x00\x05\x00\x00\x00\x01\x00\x00\x00\x02\x00\x00\x00\x03\x00\x00\x00\x04\x00\x00\x00\x05'
p60
I13
crpy2.rinterface._rinterface
unserialize
p61
crpy2.robjects.vectors
IntVector
p62
tp63
Rp64
(dp65
S'ro'
p66
g0
(crpy2.robjects.vectors
VectorOperationsDelegator
p67
g2
Ntp68
Rp69
(dp70
S'_parent'
p71
g64
sbsS'rx'
p72
g0
(crpy2.robjects.vectors
ExtractDelegator
p73
g2
Ntp74
Rp75
(dp76
g71
g64
sbsS'rx2'
p77
g0
(crpy2.robjects.vectors
DoubleExtractDelegator
p78
g2
Ntp79
Rp80
(dp81
g71
g64
sbsbsS'response_var_'
p82
S'P1182'
p83
sS'edge_cond_'
p84
(dp85
(I1
I2
tp86
(lp87
g22
ag24
as(I1
I5
tp88
(lp89
g23
aS'T'
p90
as(I2
I3
tp91
(lp92
g22
ag23
as(I2
I4
tp93
(lp94
g90
assS'class_pred_'
p95
g20
sS'CLASSES'
p96
cnumpy.core.multiarray
_reconstruct
p97
(cnumpy
ndarray
p98
(I0
tp99
S'b'
p100
tp101
Rp102
(I1
(I3
tp103
cnumpy
dtype
p104
(S'O8'
p105
I0
I1
tp106
Rp107
(I3
S'|'
p108
NNNI-1
I-1
I63
tp109
bI00
(lp110
g22
ag23
ag24
atp111
bsS'TREE_LEAF'
p112
(dp113
I1
I00
sI2
I00
sI3
I01
sI4
I01
sI5
I01
ssS'num_pass_'
p114
(dp115
I1
I71
sI2
I26
sI3
I7
sI4
I19
sI5
I45
ssS'error'
p116
(dp117
I1
F29.577464788732392
sI2
F34.61538461538461
sI3
F42.857142857142854
sI4
F10.526315789473683
sI5
F2.2222222222222223
ssS'pvalue'
p118
g32
sS'class_names'
p119
g102
sS'n_node_samples'
p120
g115
sb.