ccopy_reg
_reconstructor
p0
(cmlx
tree_
p1
c__builtin__
object
p2
Ntp3
Rp4
(dp5
S'decision_rules_'
p6
(dp7
I8
S'P2224 %in% c("A", "G", "S", "T") & P844 %in% c("T")'
p8
sI9
S'P2224 %in% c("C")'
p9
sI5
S'P2224 %in% c("A", "G", "S", "T") & P844 %in% c("A", "C", "N") & P843 %in% c("A", "C", "N", "T", "NA") & P739 %in% c("A")'
p10
sI6
S'P2224 %in% c("A", "G", "S", "T") & P844 %in% c("A", "C", "N") & P843 %in% c("A", "C", "N", "T", "NA") & P739 %in% c("C", "G", "N", "T")'
p11
sI7
S'P2224 %in% c("A", "G", "S", "T") & P844 %in% c("A", "C", "N") & P843 %in% c("G", "NA")'
p12
ssS'significant_feature_weight_'
p13
(dp14
S'P2224'
p15
F0.7710585491995328
sS'P844'
p16
F0.354791085388494
sS'P843'
p17
F0.26836263289680257
sS'P739'
p18
F0.0
ssS'children_left'
p19
(dp20
I1
I9
sI2
I8
sI3
I4
sI4
I5
sI5
NsI6
NsI7
NsI8
NsI9
NssS'ACCx_'
p21
F0.8450704225352113
sS'ACC_'
p22
F0.8450704225352113
sS'value'
p23
(dp24
I1
(dp25
S'A'
p26
F22.0
sS'C'
p27
F10.0
sS'T'
p28
F29.0
sS'G'
p29
F9.0
sS'N'
p30
F1.0
ssI2
(dp31
g26
F2.0
sg27
F10.0
sg28
F29.0
sg29
F7.0
sg30
F1.0
ssI3
(dp32
g26
F2.0
sg27
F9.0
sg28
F28.0
sg29
F0.0
sg30
F1.0
ssI4
(dp33
g26
F2.0
sg27
F3.0
sg28
F27.0
sg29
F0.0
sg30
F1.0
ssI5
(dp34
g26
F0.0
sg27
F1.0
sg28
F23.0
sg29
F0.0
sg30
F0.0
ssI6
(dp35
g26
F2.0
sg27
F2.0
sg28
F4.0
sg29
F0.0
sg30
F1.0
ssI7
(dp36
g26
F0.0
sg27
F6.0
sg28
F1.0
sg29
F0.0
sg30
F0.0
ssI8
(dp37
g26
F0.0
sg27
F1.0
sg28
F1.0
sg29
F7.0
sg30
F0.0
ssI9
(dp38
g26
F20.0
sg27
F0.0
sg28
F0.0
sg29
F2.0
sg30
F0.0
sssS'tprob_'
p39
(dp40
I8
F0.1267605633802817
sI9
F0.30985915492957744
sI5
F0.3380281690140845
sI6
F0.1267605633802817
sI7
F0.09859154929577464
ssS'threshold'
p41
(dp42
I1
I0
sI2
F3.1086244689504403e-15
sI3
F5.27330812349902e-09
sI4
F3.9488275482835204e-07
ssS'children'
p43
(dp44
I1
c__builtin__
set
p45
((lp46
I9
aI2
atp47
Rp48
sI2
g45
((lp49
I8
aI3
atp50
Rp51
sI3
g45
((lp52
I4
aI7
atp53
Rp54
sI4
g45
((lp55
I5
aI6
atp56
Rp57
sI5
g45
((lp58
tp59
Rp60
sI6
g45
((lp61
tp62
Rp63
sI7
g45
((lp64
tp65
Rp66
sI8
g45
((lp67
tp68
Rp69
sI9
g45
((lp70
tp71
Rp72
ssS'children_right'
p73
(dp74
I1
I2
sI2
I3
sI3
I7
sI4
I6
sI5
NsI6
NsI7
NsI8
NsI9
NssS'feature'
p75
(dp76
I1
g15
sI2
g16
sI3
g17
sI4
g18
sI5
S'5'
p77
sI6
S'6'
p78
sI7
S'7'
p79
sI8
S'8'
p80
sI9
S'9'
p81
ssS'nodes'
p82
crpy2.robjects.robject
_reduce_robjectmixin
p83
(S'X\n\x00\x00\x00\x02\x00\x03\x05\x03\x00\x02\x03\x00\x00\x00\x00\r\x00\x00\x00\t\x00\x00\x00\x01\x00\x00\x00\x02\x00\x00\x00\x03\x00\x00\x00\x04\x00\x00\x00\x05\x00\x00\x00\x06\x00\x00\x00\x07\x00\x00\x00\x08\x00\x00\x00\t'
p84
I13
crpy2.rinterface._rinterface
unserialize
p85
crpy2.robjects.vectors
IntVector
p86
tp87
Rp88
(dp89
S'ro'
p90
g0
(crpy2.robjects.vectors
VectorOperationsDelegator
p91
g2
Ntp92
Rp93
(dp94
S'_parent'
p95
g88
sbsS'rx'
p96
g0
(crpy2.robjects.vectors
ExtractDelegator
p97
g2
Ntp98
Rp99
(dp100
g95
g88
sbsS'rx2'
p101
g0
(crpy2.robjects.vectors
DoubleExtractDelegator
p102
g2
Ntp103
Rp104
(dp105
g95
g88
sbsbsS'response_var_'
p106
S'P759'
p107
sS'edge_cond_'
p108
(dp109
(I1
I2
tp110
(lp111
g26
aS'S'
p112
ag28
ag29
as(I4
I6
tp113
(lp114
g27
ag28
ag29
ag30
as(I4
I5
tp115
(lp116
S'A'
p117
as(I2
I8
tp118
(lp119
S'T'
p120
as(I2
I3
tp121
(lp122
g26
ag27
ag30
as(I1
I9
tp123
(lp124
S'C'
p125
as(I3
I7
tp126
(lp127
g29
as(I3
I4
tp128
(lp129
g26
ag27
ag28
ag30
assS'class_pred_'
p130
g24
sS'CLASSES'
p131
cnumpy.core.multiarray
_reconstruct
p132
(cnumpy
ndarray
p133
(I0
tp134
S'b'
p135
tp136
Rp137
(I1
(I5
tp138
cnumpy
dtype
p139
(S'O8'
p140
I0
I1
tp141
Rp142
(I3
S'|'
p143
NNNI-1
I-1
I63
tp144
bI00
(lp145
g26
ag27
ag29
ag30
ag28
atp146
bsS'TREE_LEAF'
p147
(dp148
I1
I00
sI2
I00
sI3
I00
sI4
I00
sI5
I01
sI6
I01
sI7
I01
sI8
I01
sI9
I01
ssS'num_pass_'
p149
(dp150
I1
I71
sI2
I49
sI3
I40
sI4
I33
sI5
I24
sI6
I9
sI7
I7
sI8
I9
sI9
I22
ssS'error'
p151
(dp152
I1
F59.154929577464785
sI2
F40.816326530612244
sI3
F30.0
sI4
F18.181818181818183
sI5
F4.166666666666666
sI6
F55.55555555555556
sI7
F14.285714285714285
sI8
F22.22222222222222
sI9
F9.090909090909092
ssS'pvalue'
p153
g42
sS'class_names'
p154
g137
sS'n_node_samples'
p155
g150
sb.