ccopy_reg
_reconstructor
p0
(cmlx
tree_
p1
c__builtin__
object
p2
Ntp3
Rp4
(dp5
S'decision_rules_'
p6
(dp7
I3
S'P1687 %in% c("A", "C", "N", "T") & P842 %in% c("A", "C", "N", "T")'
p8
sI4
S'P1687 %in% c("A", "C", "N", "T") & P842 %in% c("G")'
p9
sI5
S'P1687 %in% c("G")'
p10
ssS'significant_feature_weight_'
p11
(dp12
S'P842'
p13
F0.3900324770785418
sS'P1687'
p14
F0.9902796867684822
ssS'children_left'
p15
(dp16
I1
I2
sI2
I3
sI3
NsI4
NsI5
NssS'ACCx_'
p17
F0.9154929577464789
sS'ACC_'
p18
F0.8732394366197183
sS'value'
p19
(dp20
I1
(dp21
S'A'
p22
F5.0
sS'W'
p23
F1.0
sS'C'
p24
F4.0
sS'T'
p25
F33.0
sS'G'
p26
F28.0
ssI2
(dp27
g22
F4.0
sg23
F1.0
sg24
F4.0
sg25
F30.0
sg26
F0.0
ssI3
(dp28
g22
F4.0
sg23
F1.0
sg24
F4.0
sg25
F0.0
sg26
F0.0
ssI4
(dp29
g22
F0.0
sg23
F0.0
sg24
F0.0
sg25
F30.0
sg26
F0.0
ssI5
(dp30
g22
F1.0
sg23
F0.0
sg24
F0.0
sg25
F3.0
sg26
F28.0
sssS'tprob_'
p31
(dp32
I3
F0.1267605633802817
sI4
F0.4225352112676056
sI5
F0.4507042253521127
ssS'threshold'
p33
(dp34
I1
I0
sI2
F4.662936703425661e-15
ssS'children'
p35
(dp36
I1
c__builtin__
set
p37
((lp38
I2
aI5
atp39
Rp40
sI2
g37
((lp41
I3
aI4
atp42
Rp43
sI3
g37
((lp44
tp45
Rp46
sI4
g37
((lp47
tp48
Rp49
sI5
g37
((lp50
tp51
Rp52
ssS'children_right'
p53
(dp54
I1
I5
sI2
I4
sI3
NsI4
NsI5
NssS'feature'
p55
(dp56
I1
g14
sI2
g13
sI3
S'3'
p57
sI4
S'4'
p58
sI5
S'5'
p59
ssS'nodes'
p60
crpy2.robjects.robject
_reduce_robjectmixin
p61
(S'X\n\x00\x00\x00\x02\x00\x03\x05\x03\x00\x02\x03\x00\x00\x00\x00\r\x00\x00\x00\x05\x00\x00\x00\x01\x00\x00\x00\x02\x00\x00\x00\x03\x00\x00\x00\x04\x00\x00\x00\x05'
p62
I13
crpy2.rinterface._rinterface
unserialize
p63
crpy2.robjects.vectors
IntVector
p64
tp65
Rp66
(dp67
S'ro'
p68
g0
(crpy2.robjects.vectors
VectorOperationsDelegator
p69
g2
Ntp70
Rp71
(dp72
S'_parent'
p73
g66
sbsS'rx'
p74
g0
(crpy2.robjects.vectors
ExtractDelegator
p75
g2
Ntp76
Rp77
(dp78
g73
g66
sbsS'rx2'
p79
g0
(crpy2.robjects.vectors
DoubleExtractDelegator
p80
g2
Ntp81
Rp82
(dp83
g73
g66
sbsbsS'response_var_'
p84
S'P2057'
p85
sS'edge_cond_'
p86
(dp87
(I1
I2
tp88
(lp89
g22
ag24
ag25
aS'N'
p90
as(I1
I5
tp91
(lp92
S'G'
p93
as(I2
I3
tp94
(lp95
g22
ag24
ag25
ag90
as(I2
I4
tp96
(lp97
S'G'
p98
assS'class_pred_'
p99
g20
sS'CLASSES'
p100
cnumpy.core.multiarray
_reconstruct
p101
(cnumpy
ndarray
p102
(I0
tp103
S'b'
p104
tp105
Rp106
(I1
(I5
tp107
cnumpy
dtype
p108
(S'O8'
p109
I0
I1
tp110
Rp111
(I3
S'|'
p112
NNNI-1
I-1
I63
tp113
bI00
(lp114
g22
ag24
ag26
ag25
ag23
atp115
bsS'TREE_LEAF'
p116
(dp117
I1
I00
sI2
I00
sI3
I01
sI4
I01
sI5
I01
ssS'num_pass_'
p118
(dp119
I1
I71
sI2
I39
sI3
I9
sI4
I30
sI5
I32
ssS'error'
p120
(dp121
I1
F53.52112676056338
sI2
F23.076923076923073
sI3
F55.55555555555556
sI4
F0.0
sI5
F12.5
ssS'pvalue'
p122
g34
sS'class_names'
p123
g106
sS'n_node_samples'
p124
g119
sb.