ccopy_reg
_reconstructor
p0
(cmlx
tree_
p1
c__builtin__
object
p2
Ntp3
Rp4
(dp5
S'decision_rules_'
p6
(dp7
I3
S'P1629 %in% c("A") & P2430 %in% c("A", "NA", "G")'
p8
sI4
S'P1629 %in% c("A") & P2430 %in% c("NA", "T")'
p9
sI5
S'P1629 %in% c("C", "G", "K", "T")'
p10
ssS'significant_feature_weight_'
p11
(dp12
S'P2430'
p13
F0.0
sS'P1629'
p14
F0.7569926451739839
ssS'children_left'
p15
(dp16
I1
I2
sI2
I3
sI3
NsI4
NsI5
NssS'ACCx_'
p17
F0.7605633802816901
sS'ACC_'
p18
F0.7746478873239436
sS'value'
p19
(dp20
I1
(dp21
S'A'
p22
F12.0
sS'C'
p23
F2.0
sS'T'
p24
F50.0
sS'G'
p25
F7.0
ssI2
(dp26
g22
F5.0
sg23
F0.0
sg24
F48.0
sg25
F0.0
ssI3
(dp27
g22
F5.0
sg23
F0.0
sg24
F17.0
sg25
F0.0
ssI4
(dp28
g22
F0.0
sg23
F0.0
sg24
F31.0
sg25
F0.0
ssI5
(dp29
g22
F7.0
sg23
F2.0
sg24
F2.0
sg25
F7.0
sssS'tprob_'
p30
(dp31
I3
F0.30985915492957744
sI4
F0.43661971830985913
sI5
F0.2535211267605634
ssS'threshold'
p32
(dp33
I1
F6.12843109593086e-14
sI2
F5.65261054541466e-06
ssS'children'
p34
(dp35
I1
c__builtin__
set
p36
((lp37
I2
aI5
atp38
Rp39
sI2
g36
((lp40
I3
aI4
atp41
Rp42
sI3
g36
((lp43
tp44
Rp45
sI4
g36
((lp46
tp47
Rp48
sI5
g36
((lp49
tp50
Rp51
ssS'children_right'
p52
(dp53
I1
I5
sI2
I4
sI3
NsI4
NsI5
NssS'feature'
p54
(dp55
I1
g14
sI2
g13
sI3
S'3'
p56
sI4
S'4'
p57
sI5
S'5'
p58
ssS'nodes'
p59
crpy2.robjects.robject
_reduce_robjectmixin
p60
(S'X\n\x00\x00\x00\x02\x00\x03\x05\x03\x00\x02\x03\x00\x00\x00\x00\r\x00\x00\x00\x05\x00\x00\x00\x01\x00\x00\x00\x02\x00\x00\x00\x03\x00\x00\x00\x04\x00\x00\x00\x05'
p61
I13
crpy2.rinterface._rinterface
unserialize
p62
crpy2.robjects.vectors
IntVector
p63
tp64
Rp65
(dp66
S'ro'
p67
g0
(crpy2.robjects.vectors
VectorOperationsDelegator
p68
g2
Ntp69
Rp70
(dp71
S'_parent'
p72
g65
sbsS'rx'
p73
g0
(crpy2.robjects.vectors
ExtractDelegator
p74
g2
Ntp75
Rp76
(dp77
g72
g65
sbsS'rx2'
p78
g0
(crpy2.robjects.vectors
DoubleExtractDelegator
p79
g2
Ntp80
Rp81
(dp82
g72
g65
sbsbsS'response_var_'
p83
S'P1416'
p84
sS'edge_cond_'
p85
(dp86
(I1
I2
tp87
(lp88
S'A'
p89
as(I1
I5
tp90
(lp91
g23
aS'K'
p92
ag25
ag24
as(I2
I3
tp93
(lp94
g22
ag25
as(I2
I4
tp95
(lp96
g24
assS'class_pred_'
p97
g20
sS'CLASSES'
p98
cnumpy.core.multiarray
_reconstruct
p99
(cnumpy
ndarray
p100
(I0
tp101
S'b'
p102
tp103
Rp104
(I1
(I4
tp105
cnumpy
dtype
p106
(S'O8'
p107
I0
I1
tp108
Rp109
(I3
S'|'
p110
NNNI-1
I-1
I63
tp111
bI00
(lp112
g22
ag23
ag25
ag24
atp113
bsS'TREE_LEAF'
p114
(dp115
I1
I00
sI2
I00
sI3
I01
sI4
I01
sI5
I01
ssS'num_pass_'
p116
(dp117
I1
I71
sI2
I53
sI3
I22
sI4
I31
sI5
I18
ssS'error'
p118
(dp119
I1
F29.577464788732392
sI2
F9.433962264150944
sI3
F22.727272727272727
sI4
F0.0
sI5
F61.111111111111114
ssS'pvalue'
p120
g33
sS'class_names'
p121
g104
sS'n_node_samples'
p122
g117
sb.