ccopy_reg
_reconstructor
p0
(cmlx
tree_
p1
c__builtin__
object
p2
Ntp3
Rp4
(dp5
S'decision_rules_'
p6
(dp7
I3
S'P482 %in% c("A") & P4056 %in% c("A", "NA", "T")'
p8
sI4
S'P482 %in% c("A") & P4056 %in% c("NA", "G")'
p9
sI6
S'P482 %in% c("C", "G", "T") & P482 %in% c("NA", "G")'
p10
sI7
S'P482 %in% c("C", "G", "T") & P482 %in% c("NA", "C", "T")'
p11
ssS'significant_feature_weight_'
p12
(dp13
S'P4056'
p14
F0.3505477037960056
sS'P482'
p15
F1.1535695128616583
ssS'children_left'
p16
(dp17
I1
I2
sI2
I3
sI3
NsI4
NsI5
I6
sI6
NsI7
NssS'ACCx_'
p18
F0.8309859154929577
sS'ACC_'
p19
F0.9436619718309859
sS'value'
p20
(dp21
I1
(dp22
S'A'
p23
F29.0
sS'C'
p24
F3.0
sS'T'
p25
F4.0
sS'G'
p26
F35.0
ssI2
(dp27
g23
F29.0
sg24
F0.0
sg25
F0.0
sg26
F7.0
ssI3
(dp28
g23
F1.0
sg24
F0.0
sg25
F0.0
sg26
F7.0
ssI4
(dp29
g23
F28.0
sg24
F0.0
sg25
F0.0
sg26
F0.0
ssI5
(dp30
g23
F0.0
sg24
F3.0
sg25
F4.0
sg26
F28.0
ssI6
(dp31
g23
F0.0
sg24
F0.0
sg25
F0.0
sg26
F28.0
ssI7
(dp32
g23
F0.0
sg24
F3.0
sg25
F4.0
sg26
F0.0
sssS'tprob_'
p33
(dp34
I3
F0.11267605633802817
sI4
F0.39436619718309857
sI6
F0.39436619718309857
sI7
F0.09859154929577464
ssS'threshold'
p35
(dp36
I1
I0
sI2
F0.0016275447354957599
sI5
F2.9303548476633497e-10
ssS'children'
p37
(dp38
I1
c__builtin__
set
p39
((lp40
I2
aI5
atp41
Rp42
sI2
g39
((lp43
I3
aI4
atp44
Rp45
sI3
g39
((lp46
tp47
Rp48
sI4
g39
((lp49
tp50
Rp51
sI5
g39
((lp52
I6
aI7
atp53
Rp54
sI6
g39
((lp55
tp56
Rp57
sI7
g39
((lp58
tp59
Rp60
ssS'children_right'
p61
(dp62
I1
I5
sI2
I4
sI3
NsI4
NsI5
I7
sI6
NsI7
NssS'feature'
p63
(dp64
I1
g15
sI2
g14
sI3
S'3'
p65
sI4
S'4'
p66
sI5
S'P482'
p67
sI6
S'6'
p68
sI7
S'7'
p69
ssS'nodes'
p70
crpy2.robjects.robject
_reduce_robjectmixin
p71
(S'X\n\x00\x00\x00\x02\x00\x03\x05\x03\x00\x02\x03\x00\x00\x00\x00\r\x00\x00\x00\x07\x00\x00\x00\x01\x00\x00\x00\x02\x00\x00\x00\x03\x00\x00\x00\x04\x00\x00\x00\x05\x00\x00\x00\x06\x00\x00\x00\x07'
p72
I13
crpy2.rinterface._rinterface
unserialize
p73
crpy2.robjects.vectors
IntVector
p74
tp75
Rp76
(dp77
S'ro'
p78
g0
(crpy2.robjects.vectors
VectorOperationsDelegator
p79
g2
Ntp80
Rp81
(dp82
S'_parent'
p83
g76
sbsS'rx'
p84
g0
(crpy2.robjects.vectors
ExtractDelegator
p85
g2
Ntp86
Rp87
(dp88
g83
g76
sbsS'rx2'
p89
g0
(crpy2.robjects.vectors
DoubleExtractDelegator
p90
g2
Ntp91
Rp92
(dp93
g83
g76
sbsbsS'response_var_'
p94
S'P4311'
p95
sS'edge_cond_'
p96
(dp97
(I1
I2
tp98
(lp99
S'A'
p100
as(I5
I6
tp101
(lp102
g26
as(I5
I7
tp103
(lp104
g24
ag25
as(I1
I5
tp105
(lp106
g24
ag25
ag26
as(I2
I3
tp107
(lp108
g23
ag25
as(I2
I4
tp109
(lp110
g26
assS'class_pred_'
p111
g21
sS'CLASSES'
p112
cnumpy.core.multiarray
_reconstruct
p113
(cnumpy
ndarray
p114
(I0
tp115
S'b'
p116
tp117
Rp118
(I1
(I4
tp119
cnumpy
dtype
p120
(S'O8'
p121
I0
I1
tp122
Rp123
(I3
S'|'
p124
NNNI-1
I-1
I63
tp125
bI00
(lp126
g23
ag24
ag26
ag25
atp127
bsS'TREE_LEAF'
p128
(dp129
I1
I00
sI2
I00
sI3
I01
sI4
I01
sI5
I00
sI6
I01
sI7
I01
ssS'num_pass_'
p130
(dp131
I1
I71
sI2
I36
sI3
I8
sI4
I28
sI5
I35
sI6
I28
sI7
I7
ssS'error'
p132
(dp133
I1
F50.70422535211268
sI2
F19.444444444444446
sI3
F12.5
sI4
F0.0
sI5
F20.0
sI6
F0.0
sI7
F42.857142857142854
ssS'pvalue'
p134
g36
sS'class_names'
p135
g118
sS'n_node_samples'
p136
g131
sb.