ccopy_reg
_reconstructor
p0
(cmlx
tree_
p1
c__builtin__
object
p2
Ntp3
Rp4
(dp5
S'decision_rules_'
p6
(dp7
I3
S'P3036 %in% c("A", "T") & P1839 %in% c("NA", "G", "T")'
p8
sI4
S'P3036 %in% c("A", "T") & P1839 %in% c("NA", "C")'
p9
sI6
S'P3036 %in% c("C", "G", "Y") & P4128 %in% c("A", "T", "Y")'
p10
sI7
S'P3036 %in% c("C", "G", "Y") & P4128 %in% c("C", "G")'
p11
ssS'significant_feature_weight_'
p12
(dp13
S'P1839'
p14
F0.4225351700301789
sS'P3036'
p15
F0.9902796867684823
sS'P4128'
p16
F0.0
ssS'children_left'
p17
(dp18
I1
I2
sI2
I3
sI3
NsI4
NsI5
I6
sI6
NsI7
NssS'ACCx_'
p19
F0.7746478873239436
sS'ACC_'
p20
F0.8873239436619719
sS'value'
p21
(dp22
I1
(dp23
S'A'
p24
F3.0
sS'Y'
p25
F1.0
sS'C'
p26
F45.0
sS'T'
p27
F20.0
sS'G'
p28
F2.0
ssI2
(dp29
g24
F0.0
sg25
F0.0
sg26
F13.0
sg27
F19.0
sg28
F0.0
ssI3
(dp30
g24
F0.0
sg25
F0.0
sg26
F12.0
sg27
F0.0
sg28
F0.0
ssI4
(dp31
g24
F0.0
sg25
F0.0
sg26
F1.0
sg27
F19.0
sg28
F0.0
ssI5
(dp32
g24
F3.0
sg25
F1.0
sg26
F32.0
sg27
F1.0
sg28
F2.0
ssI6
(dp33
g24
F3.0
sg25
F1.0
sg26
F21.0
sg27
F1.0
sg28
F0.0
ssI7
(dp34
g24
F0.0
sg25
F0.0
sg26
F11.0
sg27
F0.0
sg28
F2.0
sssS'tprob_'
p35
(dp36
I3
F0.16901408450704225
sI4
F0.28169014084507044
sI6
F0.36619718309859156
sI7
F0.18309859154929578
ssS'threshold'
p37
(dp38
I1
I0
sI2
F0.00608800853174496
sI5
F1.8463008899516396e-13
ssS'children'
p39
(dp40
I1
c__builtin__
set
p41
((lp42
I2
aI5
atp43
Rp44
sI2
g41
((lp45
I3
aI4
atp46
Rp47
sI3
g41
((lp48
tp49
Rp50
sI4
g41
((lp51
tp52
Rp53
sI5
g41
((lp54
I6
aI7
atp55
Rp56
sI6
g41
((lp57
tp58
Rp59
sI7
g41
((lp60
tp61
Rp62
ssS'children_right'
p63
(dp64
I1
I5
sI2
I4
sI3
NsI4
NsI5
I7
sI6
NsI7
NssS'feature'
p65
(dp66
I1
g15
sI2
g14
sI3
S'3'
p67
sI4
S'4'
p68
sI5
g16
sI6
S'6'
p69
sI7
S'7'
p70
ssS'nodes'
p71
crpy2.robjects.robject
_reduce_robjectmixin
p72
(S'X\n\x00\x00\x00\x02\x00\x03\x05\x03\x00\x02\x03\x00\x00\x00\x00\r\x00\x00\x00\x07\x00\x00\x00\x01\x00\x00\x00\x02\x00\x00\x00\x03\x00\x00\x00\x04\x00\x00\x00\x05\x00\x00\x00\x06\x00\x00\x00\x07'
p73
I13
crpy2.rinterface._rinterface
unserialize
p74
crpy2.robjects.vectors
IntVector
p75
tp76
Rp77
(dp78
S'ro'
p79
g0
(crpy2.robjects.vectors
VectorOperationsDelegator
p80
g2
Ntp81
Rp82
(dp83
S'_parent'
p84
g77
sbsS'rx'
p85
g0
(crpy2.robjects.vectors
ExtractDelegator
p86
g2
Ntp87
Rp88
(dp89
g84
g77
sbsS'rx2'
p90
g0
(crpy2.robjects.vectors
DoubleExtractDelegator
p91
g2
Ntp92
Rp93
(dp94
g84
g77
sbsbsS'response_var_'
p95
S'P164'
p96
sS'edge_cond_'
p97
(dp98
(I1
I2
tp99
(lp100
g24
ag27
as(I5
I6
tp101
(lp102
g24
ag25
ag27
as(I5
I7
tp103
(lp104
g26
ag28
as(I1
I5
tp105
(lp106
g25
ag26
ag28
as(I2
I3
tp107
(lp108
g27
ag28
as(I2
I4
tp109
(lp110
g26
assS'class_pred_'
p111
g22
sS'CLASSES'
p112
cnumpy.core.multiarray
_reconstruct
p113
(cnumpy
ndarray
p114
(I0
tp115
S'b'
p116
tp117
Rp118
(I1
(I5
tp119
cnumpy
dtype
p120
(S'O8'
p121
I0
I1
tp122
Rp123
(I3
S'|'
p124
NNNI-1
I-1
I63
tp125
bI00
(lp126
g24
ag26
ag28
ag27
ag25
atp127
bsS'TREE_LEAF'
p128
(dp129
I1
I00
sI2
I00
sI3
I01
sI4
I01
sI5
I00
sI6
I01
sI7
I01
ssS'num_pass_'
p130
(dp131
I1
I71
sI2
I32
sI3
I12
sI4
I20
sI5
I39
sI6
I26
sI7
I13
ssS'error'
p132
(dp133
I1
F36.61971830985916
sI2
F40.625
sI3
F0.0
sI4
F5.0
sI5
F17.94871794871795
sI6
F19.23076923076923
sI7
F15.384615384615385
ssS'pvalue'
p134
g38
sS'class_names'
p135
g118
sS'n_node_samples'
p136
g131
sb.