ccopy_reg
_reconstructor
p0
(cmlx
tree_
p1
c__builtin__
object
p2
Ntp3
Rp4
(dp5
S'decision_rules_'
p6
(dp7
I3
S'P1637 %in% c("A", "T") & P382 %in% c("A", "NA", "T")'
p8
sI4
S'P1637 %in% c("A", "T") & P382 %in% c("NA", "G")'
p9
sI5
S'P1637 %in% c("G")'
p10
ssS'significant_feature_weight_'
p11
(dp12
S'P382'
p13
F0.0
sS'P1637'
p14
F0.5237056035794858
ssS'children_left'
p15
(dp16
I1
I2
sI2
I3
sI3
NsI4
NsI5
NssS'ACCx_'
p17
F0.8873239436619719
sS'ACC_'
p18
F0.971830985915493
sS'value'
p19
(dp20
I1
(dp21
S'C'
p22
F11.0
sS'T'
p23
F60.0
ssI2
(dp24
g22
F1.0
sg23
F59.0
ssI3
(dp25
g22
F1.0
sg23
F12.0
ssI4
(dp26
g22
F0.0
sg23
F47.0
ssI5
(dp27
g22
F10.0
sg23
F1.0
sssS'tprob_'
p28
(dp29
I3
F0.18309859154929578
sI4
F0.6619718309859155
sI5
F0.15492957746478872
ssS'threshold'
p30
(dp31
I1
F3.82015319377871e-09
sI2
F7.53663242925029e-10
ssS'children'
p32
(dp33
I1
c__builtin__
set
p34
((lp35
I2
aI5
atp36
Rp37
sI2
g34
((lp38
I3
aI4
atp39
Rp40
sI3
g34
((lp41
tp42
Rp43
sI4
g34
((lp44
tp45
Rp46
sI5
g34
((lp47
tp48
Rp49
ssS'children_right'
p50
(dp51
I1
I5
sI2
I4
sI3
NsI4
NsI5
NssS'feature'
p52
(dp53
I1
g14
sI2
g13
sI3
S'3'
p54
sI4
S'4'
p55
sI5
S'5'
p56
ssS'nodes'
p57
crpy2.robjects.robject
_reduce_robjectmixin
p58
(S'X\n\x00\x00\x00\x02\x00\x03\x05\x03\x00\x02\x03\x00\x00\x00\x00\r\x00\x00\x00\x05\x00\x00\x00\x01\x00\x00\x00\x02\x00\x00\x00\x03\x00\x00\x00\x04\x00\x00\x00\x05'
p59
I13
crpy2.rinterface._rinterface
unserialize
p60
crpy2.robjects.vectors
IntVector
p61
tp62
Rp63
(dp64
S'ro'
p65
g0
(crpy2.robjects.vectors
VectorOperationsDelegator
p66
g2
Ntp67
Rp68
(dp69
S'_parent'
p70
g63
sbsS'rx'
p71
g0
(crpy2.robjects.vectors
ExtractDelegator
p72
g2
Ntp73
Rp74
(dp75
g70
g63
sbsS'rx2'
p76
g0
(crpy2.robjects.vectors
DoubleExtractDelegator
p77
g2
Ntp78
Rp79
(dp80
g70
g63
sbsbsS'response_var_'
p81
S'P3017'
p82
sS'edge_cond_'
p83
(dp84
(I1
I2
tp85
(lp86
S'A'
p87
ag23
as(I1
I5
tp88
(lp89
S'G'
p90
as(I2
I3
tp91
(lp92
g87
ag23
as(I2
I4
tp93
(lp94
S'G'
p95
assS'class_pred_'
p96
g20
sS'CLASSES'
p97
cnumpy.core.multiarray
_reconstruct
p98
(cnumpy
ndarray
p99
(I0
tp100
S'b'
p101
tp102
Rp103
(I1
(I2
tp104
cnumpy
dtype
p105
(S'O8'
p106
I0
I1
tp107
Rp108
(I3
S'|'
p109
NNNI-1
I-1
I63
tp110
bI00
(lp111
g22
ag23
atp112
bsS'TREE_LEAF'
p113
(dp114
I1
I00
sI2
I00
sI3
I01
sI4
I01
sI5
I01
ssS'num_pass_'
p115
(dp116
I1
I71
sI2
I60
sI3
I13
sI4
I47
sI5
I11
ssS'error'
p117
(dp118
I1
F15.492957746478872
sI2
F1.6666666666666667
sI3
F7.6923076923076925
sI4
F0.0
sI5
F9.090909090909092
ssS'pvalue'
p119
g31
sS'class_names'
p120
g103
sS'n_node_samples'
p121
g116
sb.