ccopy_reg
_reconstructor
p0
(cmlx
tree_
p1
c__builtin__
object
p2
Ntp3
Rp4
(dp5
S'decision_rules_'
p6
(dp7
I8
S'P2725 %in% c("C", "G") & P3957 %in% c("A", "NA", "T")'
p8
sI9
S'P2725 %in% c("C", "G") & P3957 %in% c("NA", "G")'
p9
sI4
S'P2725 %in% c("A", "T") & P583 %in% c("A", "NA") & P2400 %in% c("A", "NA")'
p10
sI5
S'P2725 %in% c("A", "T") & P583 %in% c("A", "NA") & P2400 %in% c("NA", "G", "T")'
p11
sI6
S'P2725 %in% c("A", "T") & P583 %in% c("NA", "G", "T")'
p12
ssS'significant_feature_weight_'
p13
(dp14
S'P583'
p15
F0.3957402719006461
sS'P2725'
p16
F0.9759968066708599
sS'P3957'
p17
F0.42065723028675195
sS'P2400'
p18
F0.0
ssS'children_left'
p19
(dp20
I1
I2
sI2
I3
sI3
I4
sI4
NsI5
NsI6
NsI7
I8
sI8
NsI9
NssS'ACCx_'
p21
F0.9154929577464789
sS'ACC_'
p22
F0.9014084507042254
sS'value'
p23
(dp24
I1
(dp25
S'A'
p26
F45.0
sS'C'
p27
F17.0
sS'T'
p28
F2.0
sS'G'
p29
F7.0
ssI2
(dp30
g26
F34.0
sg27
F0.0
sg28
F0.0
sg29
F7.0
ssI3
(dp31
g26
F31.0
sg27
F0.0
sg28
F0.0
sg29
F1.0
ssI4
(dp32
g26
F24.0
sg27
F0.0
sg28
F0.0
sg29
F0.0
ssI5
(dp33
g26
F7.0
sg27
F0.0
sg28
F0.0
sg29
F1.0
ssI6
(dp34
g26
F3.0
sg27
F0.0
sg28
F0.0
sg29
F6.0
ssI7
(dp35
g26
F11.0
sg27
F17.0
sg28
F2.0
sg29
F0.0
ssI8
(dp36
g26
F11.0
sg27
F1.0
sg28
F2.0
sg29
F0.0
ssI9
(dp37
g26
F0.0
sg27
F16.0
sg28
F0.0
sg29
F0.0
sssS'tprob_'
p38
(dp39
I8
F0.19718309859154928
sI9
F0.22535211267605634
sI4
F0.3380281690140845
sI5
F0.11267605633802817
sI6
F0.1267605633802817
ssS'threshold'
p40
(dp41
I1
I0
sI2
F0.00028344086102472004
sI3
F0.000905948145680679
sI7
F2.54662959053853e-07
ssS'children'
p42
(dp43
I1
c__builtin__
set
p44
((lp45
I2
aI7
atp46
Rp47
sI2
g44
((lp48
I3
aI6
atp49
Rp50
sI3
g44
((lp51
I4
aI5
atp52
Rp53
sI4
g44
((lp54
tp55
Rp56
sI5
g44
((lp57
tp58
Rp59
sI6
g44
((lp60
tp61
Rp62
sI7
g44
((lp63
I8
aI9
atp64
Rp65
sI8
g44
((lp66
tp67
Rp68
sI9
g44
((lp69
tp70
Rp71
ssS'children_right'
p72
(dp73
I1
I7
sI2
I6
sI3
I5
sI4
NsI5
NsI6
NsI7
I9
sI8
NsI9
NssS'feature'
p74
(dp75
I1
g16
sI2
g15
sI3
g18
sI4
S'4'
p76
sI5
S'5'
p77
sI6
S'6'
p78
sI7
g17
sI8
S'8'
p79
sI9
S'9'
p80
ssS'nodes'
p81
crpy2.robjects.robject
_reduce_robjectmixin
p82
(S'X\n\x00\x00\x00\x02\x00\x03\x05\x03\x00\x02\x03\x00\x00\x00\x00\r\x00\x00\x00\t\x00\x00\x00\x01\x00\x00\x00\x02\x00\x00\x00\x03\x00\x00\x00\x04\x00\x00\x00\x05\x00\x00\x00\x06\x00\x00\x00\x07\x00\x00\x00\x08\x00\x00\x00\t'
p83
I13
crpy2.rinterface._rinterface
unserialize
p84
crpy2.robjects.vectors
IntVector
p85
tp86
Rp87
(dp88
S'ro'
p89
g0
(crpy2.robjects.vectors
VectorOperationsDelegator
p90
g2
Ntp91
Rp92
(dp93
S'_parent'
p94
g87
sbsS'rx'
p95
g0
(crpy2.robjects.vectors
ExtractDelegator
p96
g2
Ntp97
Rp98
(dp99
g94
g87
sbsS'rx2'
p100
g0
(crpy2.robjects.vectors
DoubleExtractDelegator
p101
g2
Ntp102
Rp103
(dp104
g94
g87
sbsbsS'response_var_'
p105
S'P4587'
p106
sS'edge_cond_'
p107
(dp108
(I1
I2
tp109
(lp110
g26
ag28
as(I2
I6
tp111
(lp112
g28
ag29
as(I7
I8
tp113
(lp114
g26
ag28
as(I2
I3
tp115
(lp116
g26
as(I1
I7
tp117
(lp118
g27
ag29
as(I7
I9
tp119
(lp120
g29
as(I3
I4
tp121
(lp122
g26
as(I3
I5
tp123
(lp124
g28
ag29
assS'class_pred_'
p125
g24
sS'CLASSES'
p126
cnumpy.core.multiarray
_reconstruct
p127
(cnumpy
ndarray
p128
(I0
tp129
S'b'
p130
tp131
Rp132
(I1
(I4
tp133
cnumpy
dtype
p134
(S'O8'
p135
I0
I1
tp136
Rp137
(I3
S'|'
p138
NNNI-1
I-1
I63
tp139
bI00
(lp140
g26
ag27
ag29
ag28
atp141
bsS'TREE_LEAF'
p142
(dp143
I1
I00
sI2
I00
sI3
I00
sI4
I01
sI5
I01
sI6
I01
sI7
I00
sI8
I01
sI9
I01
ssS'num_pass_'
p144
(dp145
I1
I71
sI2
I41
sI3
I32
sI4
I24
sI5
I8
sI6
I9
sI7
I30
sI8
I14
sI9
I16
ssS'error'
p146
(dp147
I1
F36.61971830985915
sI2
F17.073170731707318
sI3
F3.125
sI4
F0.0
sI5
F12.5
sI6
F33.33333333333333
sI7
F43.33333333333333
sI8
F21.428571428571427
sI9
F0.0
ssS'pvalue'
p148
g41
sS'class_names'
p149
g132
sS'n_node_samples'
p150
g145
sb.