ccopy_reg
_reconstructor
p0
(cmlx
tree_
p1
c__builtin__
object
p2
Ntp3
Rp4
(dp5
S'decision_rules_'
p6
(dp7
I3
S'P3244 %in% c("A") & P353 %in% c("A", "T")'
p8
sI4
S'P3244 %in% c("A") & P353 %in% c("C")'
p9
sI6
S'P3244 %in% c("C", "T") & P696 %in% c("A", "NA", "NA")'
p10
sI7
S'P3244 %in% c("C", "T") & P696 %in% c("C", "NA", "NA")'
p11
ssS'significant_feature_weight_'
p12
(dp13
S'P353'
p14
F0.0
sS'P696'
p15
F0.259208215722051
sS'P3244'
p16
F0.8998002178012404
ssS'children_left'
p17
(dp18
I1
I2
sI2
I3
sI3
NsI4
NsI5
I6
sI6
NsI7
NssS'ACCx_'
p19
F0.9154929577464789
sS'ACC_'
p20
F0.9295774647887324
sS'value'
p21
(dp22
I1
(dp23
S'A'
p24
F37.0
sS'C'
p25
F33.0
sS'T'
p26
F1.0
ssI2
(dp27
g24
F30.0
sg25
F4.0
sg26
F0.0
ssI3
(dp28
g24
F6.0
sg25
F4.0
sg26
F0.0
ssI4
(dp29
g24
F24.0
sg25
F0.0
sg26
F0.0
ssI5
(dp30
g24
F7.0
sg25
F29.0
sg26
F1.0
ssI6
(dp31
g24
F0.0
sg25
F29.0
sg26
F1.0
ssI7
(dp32
g24
F7.0
sg25
F0.0
sg26
F0.0
sssS'tprob_'
p33
(dp34
I3
F0.14084507042253522
sI4
F0.3380281690140845
sI6
F0.4225352112676056
sI7
F0.09859154929577464
ssS'threshold'
p35
(dp36
I1
I0
sI2
F0.000333375154463078
sI5
F7.43956841232629e-05
ssS'children'
p37
(dp38
I1
c__builtin__
set
p39
((lp40
I2
aI5
atp41
Rp42
sI2
g39
((lp43
I3
aI4
atp44
Rp45
sI3
g39
((lp46
tp47
Rp48
sI4
g39
((lp49
tp50
Rp51
sI5
g39
((lp52
I6
aI7
atp53
Rp54
sI6
g39
((lp55
tp56
Rp57
sI7
g39
((lp58
tp59
Rp60
ssS'children_right'
p61
(dp62
I1
I5
sI2
I4
sI3
NsI4
NsI5
I7
sI6
NsI7
NssS'feature'
p63
(dp64
I1
g16
sI2
g14
sI3
S'3'
p65
sI4
S'4'
p66
sI5
g15
sI6
S'6'
p67
sI7
S'7'
p68
ssS'nodes'
p69
crpy2.robjects.robject
_reduce_robjectmixin
p70
(S'X\n\x00\x00\x00\x02\x00\x03\x05\x03\x00\x02\x03\x00\x00\x00\x00\r\x00\x00\x00\x07\x00\x00\x00\x01\x00\x00\x00\x02\x00\x00\x00\x03\x00\x00\x00\x04\x00\x00\x00\x05\x00\x00\x00\x06\x00\x00\x00\x07'
p71
I13
crpy2.rinterface._rinterface
unserialize
p72
crpy2.robjects.vectors
IntVector
p73
tp74
Rp75
(dp76
S'ro'
p77
g0
(crpy2.robjects.vectors
VectorOperationsDelegator
p78
g2
Ntp79
Rp80
(dp81
S'_parent'
p82
g75
sbsS'rx'
p83
g0
(crpy2.robjects.vectors
ExtractDelegator
p84
g2
Ntp85
Rp86
(dp87
g82
g75
sbsS'rx2'
p88
g0
(crpy2.robjects.vectors
DoubleExtractDelegator
p89
g2
Ntp90
Rp91
(dp92
g82
g75
sbsbsS'response_var_'
p93
S'P705'
p94
sS'edge_cond_'
p95
(dp96
(I1
I2
tp97
(lp98
S'A'
p99
as(I5
I6
tp100
(lp101
g24
as(I5
I7
tp102
(lp103
g25
as(I1
I5
tp104
(lp105
g25
ag26
as(I2
I3
tp106
(lp107
g24
ag26
as(I2
I4
tp108
(lp109
S'C'
p110
assS'class_pred_'
p111
g22
sS'CLASSES'
p112
cnumpy.core.multiarray
_reconstruct
p113
(cnumpy
ndarray
p114
(I0
tp115
S'b'
p116
tp117
Rp118
(I1
(I3
tp119
cnumpy
dtype
p120
(S'O8'
p121
I0
I1
tp122
Rp123
(I3
S'|'
p124
NNNI-1
I-1
I63
tp125
bI00
(lp126
g24
ag25
ag26
atp127
bsS'TREE_LEAF'
p128
(dp129
I1
I00
sI2
I00
sI3
I01
sI4
I01
sI5
I00
sI6
I01
sI7
I01
ssS'num_pass_'
p130
(dp131
I1
I71
sI2
I34
sI3
I10
sI4
I24
sI5
I37
sI6
I30
sI7
I7
ssS'error'
p132
(dp133
I1
F47.88732394366197
sI2
F11.76470588235294
sI3
F40.0
sI4
F0.0
sI5
F21.62162162162162
sI6
F3.3333333333333335
sI7
F0.0
ssS'pvalue'
p134
g36
sS'class_names'
p135
g118
sS'n_node_samples'
p136
g131
sb.