ccopy_reg
_reconstructor
p0
(cmlx
tree_
p1
c__builtin__
object
p2
Ntp3
Rp4
(dp5
S'decision_rules_'
p6
(dp7
I3
S'P1530 %in% c("A", "R", "T") & P4065 %in% c("A", "T")'
p8
sI4
S'P1530 %in% c("A", "R", "T") & P4065 %in% c("C", "G", "R")'
p9
sI5
S'P1530 %in% c("C", "G")'
p10
ssS'significant_feature_weight_'
p11
(dp12
S'P1530'
p13
F0.5237056035794857
sS'P4065'
p14
F0.6863849574659261
ssS'children_left'
p15
(dp16
I1
I2
sI2
I3
sI3
NsI4
NsI5
NssS'ACCx_'
p17
F0.295774647887324
sS'ACC_'
p18
F0.7746478873239436
sS'value'
p19
(dp20
I1
(dp21
S'A'
p22
F22.0
sS'C'
p23
F3.0
sS'R'
p24
F1.0
sS'T'
p25
F1.0
sS'G'
p26
F44.0
ssI2
(dp27
g22
F18.0
sg23
F0.0
sg24
F1.0
sg25
F1.0
sg26
F40.0
ssI3
(dp28
g22
F5.0
sg23
F0.0
sg24
F0.0
sg25
F0.0
sg26
F38.0
ssI4
(dp29
g22
F13.0
sg23
F0.0
sg24
F1.0
sg25
F1.0
sg26
F2.0
ssI5
(dp30
g22
F4.0
sg23
F3.0
sg24
F0.0
sg25
F0.0
sg26
F4.0
sssS'tprob_'
p31
(dp32
I3
F0.6056338028169014
sI4
F0.23943661971830985
sI5
F0.15492957746478872
ssS'threshold'
p33
(dp34
I1
I0
sI2
I0
ssS'children'
p35
(dp36
I1
c__builtin__
set
p37
((lp38
I2
aI5
atp39
Rp40
sI2
g37
((lp41
I3
aI4
atp42
Rp43
sI3
g37
((lp44
tp45
Rp46
sI4
g37
((lp47
tp48
Rp49
sI5
g37
((lp50
tp51
Rp52
ssS'children_right'
p53
(dp54
I1
I5
sI2
I4
sI3
NsI4
NsI5
NssS'feature'
p55
(dp56
I1
g13
sI2
g14
sI3
S'3'
p57
sI4
S'4'
p58
sI5
S'5'
p59
ssS'nodes'
p60
crpy2.robjects.robject
_reduce_robjectmixin
p61
(S'X\n\x00\x00\x00\x02\x00\x03\x05\x03\x00\x02\x03\x00\x00\x00\x00\r\x00\x00\x00\x05\x00\x00\x00\x01\x00\x00\x00\x02\x00\x00\x00\x03\x00\x00\x00\x04\x00\x00\x00\x05'
p62
I13
crpy2.rinterface._rinterface
unserialize
p63
crpy2.robjects.vectors
IntVector
p64
tp65
Rp66
(dp67
S'ro'
p68
g0
(crpy2.robjects.vectors
VectorOperationsDelegator
p69
g2
Ntp70
Rp71
(dp72
S'_parent'
p73
g66
sbsS'rx'
p74
g0
(crpy2.robjects.vectors
ExtractDelegator
p75
g2
Ntp76
Rp77
(dp78
g73
g66
sbsS'rx2'
p79
g0
(crpy2.robjects.vectors
DoubleExtractDelegator
p80
g2
Ntp81
Rp82
(dp83
g73
g66
sbsbsS'response_var_'
p84
S'P2481'
p85
sS'edge_cond_'
p86
(dp87
(I1
I2
tp88
(lp89
g22
ag24
ag25
as(I1
I5
tp90
(lp91
g23
ag26
as(I2
I3
tp92
(lp93
g22
ag25
as(I2
I4
tp94
(lp95
g23
ag24
ag26
assS'class_pred_'
p96
g20
sS'CLASSES'
p97
cnumpy.core.multiarray
_reconstruct
p98
(cnumpy
ndarray
p99
(I0
tp100
S'b'
p101
tp102
Rp103
(I1
(I5
tp104
cnumpy
dtype
p105
(S'O8'
p106
I0
I1
tp107
Rp108
(I3
S'|'
p109
NNNI-1
I-1
I63
tp110
bI00
(lp111
g22
ag23
ag26
ag24
ag25
atp112
bsS'TREE_LEAF'
p113
(dp114
I1
I00
sI2
I00
sI3
I01
sI4
I01
sI5
I01
ssS'num_pass_'
p115
(dp116
I1
I71
sI2
I60
sI3
I43
sI4
I17
sI5
I11
ssS'error'
p117
(dp118
I1
F38.028169014084504
sI2
F33.333333333333336
sI3
F11.627906976744185
sI4
F23.52941176470588
sI5
F63.63636363636364
ssS'pvalue'
p119
g34
sS'class_names'
p120
g103
sS'n_node_samples'
p121
g116
sb.