ccopy_reg
_reconstructor
p0
(cmlx
tree_
p1
c__builtin__
object
p2
Ntp3
Rp4
(dp5
S'decision_rules_'
p6
(dp7
I8
S'P4053 %in% c("A", "G", "T", "Y") & P2343 %in% c("C", "W") & P3204 %in% c("NA", "T")'
p8
sI9
S'P4053 %in% c("C")'
p9
sI4
S'P4053 %in% c("A", "G", "T", "Y") & P2343 %in% c("A", "T") & P220 %in% c("A", "C")'
p10
sI5
S'P4053 %in% c("A", "G", "T", "Y") & P2343 %in% c("A", "T") & P220 %in% c("G", "T")'
p11
sI7
S'P4053 %in% c("A", "G", "T", "Y") & P2343 %in% c("C", "W") & P3204 %in% c("A", "C", "NA")'
p12
ssS'significant_feature_weight_'
p13
(dp14
S'P220'
p15
F0.30863435689448315
sS'P3204'
p16
F0.34406434246347406
sS'P4053'
p17
F0.8093632055319323
sS'P2343'
p18
F0.7114056616956632
ssS'children_left'
p19
(dp20
I1
I9
sI2
I3
sI3
I4
sI4
NsI5
NsI6
I8
sI7
NsI8
NsI9
NssS'ACCx_'
p21
F0.8309859154929577
sS'ACC_'
p22
F0.8873239436619719
sS'value'
p23
(dp24
I1
(dp25
S'Y'
p26
F1.0
sS'C'
p27
F24.0
sS'T'
p28
F37.0
sS'G'
p29
F9.0
ssI2
(dp30
g26
F1.0
sg27
F7.0
sg28
F34.0
sg29
F9.0
ssI3
(dp31
g26
F0.0
sg27
F6.0
sg28
F15.0
sg29
F2.0
ssI4
(dp32
g26
F0.0
sg27
F6.0
sg28
F1.0
sg29
F2.0
ssI5
(dp33
g26
F0.0
sg27
F0.0
sg28
F14.0
sg29
F0.0
ssI6
(dp34
g26
F1.0
sg27
F1.0
sg28
F19.0
sg29
F7.0
ssI7
(dp35
g26
F1.0
sg27
F1.0
sg28
F0.0
sg29
F7.0
ssI8
(dp36
g26
F0.0
sg27
F0.0
sg28
F19.0
sg29
F0.0
ssI9
(dp37
g26
F0.0
sg27
F17.0
sg28
F3.0
sg29
F0.0
sssS'tprob_'
p38
(dp39
I8
F0.2676056338028169
sI9
F0.28169014084507044
sI4
F0.1267605633802817
sI5
F0.19718309859154928
sI7
F0.1267605633802817
ssS'threshold'
p40
(dp41
I1
I0
sI2
F5.6776916501632994e-11
sI3
F0.00266289720357937
sI6
F3.60373157837213e-06
ssS'children'
p42
(dp43
I1
c__builtin__
set
p44
((lp45
I9
aI2
atp46
Rp47
sI2
g44
((lp48
I3
aI6
atp49
Rp50
sI3
g44
((lp51
I4
aI5
atp52
Rp53
sI4
g44
((lp54
tp55
Rp56
sI5
g44
((lp57
tp58
Rp59
sI6
g44
((lp60
I8
aI7
atp61
Rp62
sI7
g44
((lp63
tp64
Rp65
sI8
g44
((lp66
tp67
Rp68
sI9
g44
((lp69
tp70
Rp71
ssS'children_right'
p72
(dp73
I1
I2
sI2
I6
sI3
I5
sI4
NsI5
NsI6
I7
sI7
NsI8
NsI9
NssS'feature'
p74
(dp75
I1
g17
sI2
g18
sI3
g15
sI4
S'4'
p76
sI5
S'5'
p77
sI6
g16
sI7
S'7'
p78
sI8
S'8'
p79
sI9
S'9'
p80
ssS'nodes'
p81
crpy2.robjects.robject
_reduce_robjectmixin
p82
(S'X\n\x00\x00\x00\x02\x00\x03\x05\x03\x00\x02\x03\x00\x00\x00\x00\r\x00\x00\x00\t\x00\x00\x00\x01\x00\x00\x00\x02\x00\x00\x00\x03\x00\x00\x00\x04\x00\x00\x00\x05\x00\x00\x00\x06\x00\x00\x00\x07\x00\x00\x00\x08\x00\x00\x00\t'
p83
I13
crpy2.rinterface._rinterface
unserialize
p84
crpy2.robjects.vectors
IntVector
p85
tp86
Rp87
(dp88
S'ro'
p89
g0
(crpy2.robjects.vectors
VectorOperationsDelegator
p90
g2
Ntp91
Rp92
(dp93
S'_parent'
p94
g87
sbsS'rx'
p95
g0
(crpy2.robjects.vectors
ExtractDelegator
p96
g2
Ntp97
Rp98
(dp99
g94
g87
sbsS'rx2'
p100
g0
(crpy2.robjects.vectors
DoubleExtractDelegator
p101
g2
Ntp102
Rp103
(dp104
g94
g87
sbsbsS'response_var_'
p105
S'P3180'
p106
sS'edge_cond_'
p107
(dp108
(I1
I2
tp109
(lp110
S'A'
p111
ag26
ag28
ag29
as(I2
I6
tp112
(lp113
g27
aS'W'
p114
as(I6
I7
tp115
(lp116
g111
ag27
as(I6
I8
tp117
(lp118
g28
as(I2
I3
tp119
(lp120
g111
ag28
as(I1
I9
tp121
(lp122
S'C'
p123
as(I3
I4
tp124
(lp125
g111
ag27
as(I3
I5
tp126
(lp127
g28
ag29
assS'class_pred_'
p128
g24
sS'CLASSES'
p129
cnumpy.core.multiarray
_reconstruct
p130
(cnumpy
ndarray
p131
(I0
tp132
S'b'
p133
tp134
Rp135
(I1
(I4
tp136
cnumpy
dtype
p137
(S'O8'
p138
I0
I1
tp139
Rp140
(I3
S'|'
p141
NNNI-1
I-1
I63
tp142
bI00
(lp143
g27
ag29
ag28
ag26
atp144
bsS'TREE_LEAF'
p145
(dp146
I1
I00
sI2
I00
sI3
I00
sI4
I01
sI5
I01
sI6
I00
sI7
I01
sI8
I01
sI9
I01
ssS'num_pass_'
p147
(dp148
I1
I71
sI2
I51
sI3
I23
sI4
I9
sI5
I14
sI6
I28
sI7
I9
sI8
I19
sI9
I20
ssS'error'
p149
(dp150
I1
F47.88732394366197
sI2
F33.333333333333336
sI3
F34.78260869565217
sI4
F33.33333333333333
sI5
F0.0
sI6
F32.14285714285714
sI7
F22.22222222222222
sI8
F0.0
sI9
F15.0
ssS'pvalue'
p151
g41
sS'class_names'
p152
g135
sS'n_node_samples'
p153
g148
sb.