ccopy_reg
_reconstructor
p0
(cmlx
tree_
p1
c__builtin__
object
p2
Ntp3
Rp4
(dp5
S'decision_rules_'
p6
(dp7
I3
S'P165 %in% c("A", "C") & P4026 %in% c("A", "T")'
p8
sI4
S'P165 %in% c("A", "C") & P4026 %in% c("C")'
p9
sI5
S'P165 %in% c("T")'
p10
ssS'significant_feature_weight_'
p11
(dp12
S'P4026'
p13
F0.0
sS'P165'
p14
F0.7284268849787393
ssS'children_left'
p15
(dp16
I1
I2
sI2
I3
sI3
NsI4
NsI5
NssS'ACCx_'
p17
F0.7746478873239436
sS'ACC_'
p18
F0.9577464788732395
sS'value'
p19
(dp20
I1
(dp21
S'A'
p22
F55.0
sS'G'
p23
F16.0
ssI2
(dp24
g22
F53.0
sg23
F1.0
ssI3
(dp25
g22
F9.0
sg23
F1.0
ssI4
(dp26
g22
F44.0
sg23
F0.0
ssI5
(dp27
g22
F2.0
sg23
F15.0
sssS'tprob_'
p28
(dp29
I3
F0.14084507042253522
sI4
F0.6197183098591549
sI5
F0.23943661971830985
ssS'threshold'
p30
(dp31
I1
F7.17829840013451e-09
sI2
F1.51377314017154e-08
ssS'children'
p32
(dp33
I1
c__builtin__
set
p34
((lp35
I2
aI5
atp36
Rp37
sI2
g34
((lp38
I3
aI4
atp39
Rp40
sI3
g34
((lp41
tp42
Rp43
sI4
g34
((lp44
tp45
Rp46
sI5
g34
((lp47
tp48
Rp49
ssS'children_right'
p50
(dp51
I1
I5
sI2
I4
sI3
NsI4
NsI5
NssS'feature'
p52
(dp53
I1
g14
sI2
g13
sI3
S'3'
p54
sI4
S'4'
p55
sI5
S'5'
p56
ssS'nodes'
p57
crpy2.robjects.robject
_reduce_robjectmixin
p58
(S'X\n\x00\x00\x00\x02\x00\x03\x05\x03\x00\x02\x03\x00\x00\x00\x00\r\x00\x00\x00\x05\x00\x00\x00\x01\x00\x00\x00\x02\x00\x00\x00\x03\x00\x00\x00\x04\x00\x00\x00\x05'
p59
I13
crpy2.rinterface._rinterface
unserialize
p60
crpy2.robjects.vectors
IntVector
p61
tp62
Rp63
(dp64
S'ro'
p65
g0
(crpy2.robjects.vectors
VectorOperationsDelegator
p66
g2
Ntp67
Rp68
(dp69
S'_parent'
p70
g63
sbsS'rx'
p71
g0
(crpy2.robjects.vectors
ExtractDelegator
p72
g2
Ntp73
Rp74
(dp75
g70
g63
sbsS'rx2'
p76
g0
(crpy2.robjects.vectors
DoubleExtractDelegator
p77
g2
Ntp78
Rp79
(dp80
g70
g63
sbsbsS'response_var_'
p81
S'P163'
p82
sS'edge_cond_'
p83
(dp84
(I1
I2
tp85
(lp86
g22
aS'C'
p87
as(I1
I5
tp88
(lp89
S'T'
p90
as(I2
I3
tp91
(lp92
g22
aS'T'
p93
as(I2
I4
tp94
(lp95
S'C'
p96
assS'class_pred_'
p97
g20
sS'CLASSES'
p98
cnumpy.core.multiarray
_reconstruct
p99
(cnumpy
ndarray
p100
(I0
tp101
S'b'
p102
tp103
Rp104
(I1
(I2
tp105
cnumpy
dtype
p106
(S'O8'
p107
I0
I1
tp108
Rp109
(I3
S'|'
p110
NNNI-1
I-1
I63
tp111
bI00
(lp112
g22
ag23
atp113
bsS'TREE_LEAF'
p114
(dp115
I1
I00
sI2
I00
sI3
I01
sI4
I01
sI5
I01
ssS'num_pass_'
p116
(dp117
I1
I71
sI2
I54
sI3
I10
sI4
I44
sI5
I17
ssS'error'
p118
(dp119
I1
F22.535211267605636
sI2
F1.8518518518518516
sI3
F10.0
sI4
F0.0
sI5
F11.76470588235294
ssS'pvalue'
p120
g31
sS'class_names'
p121
g104
sS'n_node_samples'
p122
g117
sb.