ccopy_reg
_reconstructor
p0
(cmlx
tree_
p1
c__builtin__
object
p2
Ntp3
Rp4
(dp5
S'decision_rules_'
p6
(dp7
I3
S'P3872 %in% c("A", "C", "Y") & P3513 %in% c("A", "C", "T")'
p8
sI4
S'P3872 %in% c("A", "C", "Y") & P3513 %in% c("G")'
p9
sI6
S'P3872 %in% c("T") & P460 %in% c("A", "G", "T")'
p10
sI7
S'P3872 %in% c("T") & P460 %in% c("C")'
p11
ssS'significant_feature_weight_'
p12
(dp13
S'P3513'
p14
F0.4643618865353607
sS'P460'
p15
F0.38695327195658574
sS'P3872'
p16
F0.9950406468010229
ssS'children_left'
p17
(dp18
I1
I2
sI2
I3
sI3
NsI4
NsI5
I6
sI6
NsI7
NssS'ACCx_'
p19
F0.8169014084507042
sS'ACC_'
p20
F0.8591549295774648
sS'value'
p21
(dp22
I1
(dp23
S'A'
p24
F18.0
sS'C'
p25
F2.0
sS'T'
p26
F32.0
sS'G'
p27
F18.0
sS'N'
p28
F1.0
ssI2
(dp29
g24
F13.0
sg25
F1.0
sg26
F0.0
sg27
F18.0
sg28
F1.0
ssI3
(dp30
g24
F13.0
sg25
F1.0
sg26
F0.0
sg27
F2.0
sg28
F1.0
ssI4
(dp31
g24
F0.0
sg25
F0.0
sg26
F0.0
sg27
F16.0
sg28
F0.0
ssI5
(dp32
g24
F5.0
sg25
F1.0
sg26
F32.0
sg27
F0.0
sg28
F0.0
ssI6
(dp33
g24
F4.0
sg25
F1.0
sg26
F4.0
sg27
F0.0
sg28
F0.0
ssI7
(dp34
g24
F1.0
sg25
F0.0
sg26
F28.0
sg27
F0.0
sg28
F0.0
sssS'tprob_'
p35
(dp36
I3
F0.23943661971830985
sI4
F0.22535211267605634
sI6
F0.1267605633802817
sI7
F0.4084507042253521
ssS'threshold'
p37
(dp38
I1
I0
sI2
F1.4820811244931097e-11
sI5
F1.48877945527204e-08
ssS'children'
p39
(dp40
I1
c__builtin__
set
p41
((lp42
I2
aI5
atp43
Rp44
sI2
g41
((lp45
I3
aI4
atp46
Rp47
sI3
g41
((lp48
tp49
Rp50
sI4
g41
((lp51
tp52
Rp53
sI5
g41
((lp54
I6
aI7
atp55
Rp56
sI6
g41
((lp57
tp58
Rp59
sI7
g41
((lp60
tp61
Rp62
ssS'children_right'
p63
(dp64
I1
I5
sI2
I4
sI3
NsI4
NsI5
I7
sI6
NsI7
NssS'feature'
p65
(dp66
I1
g16
sI2
g14
sI3
S'3'
p67
sI4
S'4'
p68
sI5
g15
sI6
S'6'
p69
sI7
S'7'
p70
ssS'nodes'
p71
crpy2.robjects.robject
_reduce_robjectmixin
p72
(S'X\n\x00\x00\x00\x02\x00\x03\x05\x03\x00\x02\x03\x00\x00\x00\x00\r\x00\x00\x00\x07\x00\x00\x00\x01\x00\x00\x00\x02\x00\x00\x00\x03\x00\x00\x00\x04\x00\x00\x00\x05\x00\x00\x00\x06\x00\x00\x00\x07'
p73
I13
crpy2.rinterface._rinterface
unserialize
p74
crpy2.robjects.vectors
IntVector
p75
tp76
Rp77
(dp78
S'ro'
p79
g0
(crpy2.robjects.vectors
VectorOperationsDelegator
p80
g2
Ntp81
Rp82
(dp83
S'_parent'
p84
g77
sbsS'rx'
p85
g0
(crpy2.robjects.vectors
ExtractDelegator
p86
g2
Ntp87
Rp88
(dp89
g84
g77
sbsS'rx2'
p90
g0
(crpy2.robjects.vectors
DoubleExtractDelegator
p91
g2
Ntp92
Rp93
(dp94
g84
g77
sbsbsS'response_var_'
p95
S'P3724'
p96
sS'edge_cond_'
p97
(dp98
(I1
I2
tp99
(lp100
g24
aS'Y'
p101
ag25
as(I5
I6
tp102
(lp103
g24
ag26
ag27
as(I5
I7
tp104
(lp105
S'C'
p106
as(I1
I5
tp107
(lp108
S'T'
p109
as(I2
I3
tp110
(lp111
g24
ag25
ag26
as(I2
I4
tp112
(lp113
S'G'
p114
assS'class_pred_'
p115
g22
sS'CLASSES'
p116
cnumpy.core.multiarray
_reconstruct
p117
(cnumpy
ndarray
p118
(I0
tp119
S'b'
p120
tp121
Rp122
(I1
(I5
tp123
cnumpy
dtype
p124
(S'O8'
p125
I0
I1
tp126
Rp127
(I3
S'|'
p128
NNNI-1
I-1
I63
tp129
bI00
(lp130
g24
ag25
ag27
ag28
ag26
atp131
bsS'TREE_LEAF'
p132
(dp133
I1
I00
sI2
I00
sI3
I01
sI4
I01
sI5
I00
sI6
I01
sI7
I01
ssS'num_pass_'
p134
(dp135
I1
I71
sI2
I33
sI3
I17
sI4
I16
sI5
I38
sI6
I9
sI7
I29
ssS'error'
p136
(dp137
I1
F54.92957746478873
sI2
F45.45454545454545
sI3
F23.52941176470588
sI4
F0.0
sI5
F15.789473684210526
sI6
F55.55555555555556
sI7
F3.4482758620689653
ssS'pvalue'
p138
g38
sS'class_names'
p139
g122
sS'n_node_samples'
p140
g135
sb.