ccopy_reg
_reconstructor
p0
(cmlx
tree_
p1
c__builtin__
object
p2
Ntp3
Rp4
(dp5
S'decision_rules_'
p6
(dp7
I3
S'P2343 %in% c("A", "T", "W") & P1575 %in% c("A", "C", "R", "T")'
p8
sI4
S'P2343 %in% c("A", "T", "W") & P1575 %in% c("G")'
p9
sI5
S'P2343 %in% c("C")'
p10
ssS'significant_feature_weight_'
p11
(dp12
S'P2343'
p13
F0.9664748866057782
sS'P1575'
p14
F0.5794768283324772
ssS'children_left'
p15
(dp16
I1
I2
sI2
I3
sI3
NsI4
NsI5
NssS'ACCx_'
p17
F0.7746478873239436
sS'ACC_'
p18
F0.8732394366197183
sS'value'
p19
(dp20
I1
(dp21
S'A'
p22
F3.0
sS'Y'
p23
F1.0
sS'C'
p24
F20.0
sS'T'
p25
F19.0
sS'G'
p26
F28.0
ssI2
(dp27
g22
F3.0
sg23
F1.0
sg24
F20.0
sg25
F17.0
sg26
F1.0
ssI3
(dp28
g22
F3.0
sg23
F1.0
sg24
F2.0
sg25
F17.0
sg26
F1.0
ssI4
(dp29
g22
F0.0
sg23
F0.0
sg24
F18.0
sg25
F0.0
sg26
F0.0
ssI5
(dp30
g22
F0.0
sg23
F0.0
sg24
F0.0
sg25
F2.0
sg26
F27.0
sssS'tprob_'
p31
(dp32
I3
F0.3380281690140845
sI4
F0.2535211267605634
sI5
F0.4084507042253521
ssS'threshold'
p33
(dp34
I1
I0
sI2
I0
ssS'children'
p35
(dp36
I1
c__builtin__
set
p37
((lp38
I2
aI5
atp39
Rp40
sI2
g37
((lp41
I3
aI4
atp42
Rp43
sI3
g37
((lp44
tp45
Rp46
sI4
g37
((lp47
tp48
Rp49
sI5
g37
((lp50
tp51
Rp52
ssS'children_right'
p53
(dp54
I1
I5
sI2
I4
sI3
NsI4
NsI5
NssS'feature'
p55
(dp56
I1
g13
sI2
g14
sI3
S'3'
p57
sI4
S'4'
p58
sI5
S'5'
p59
ssS'nodes'
p60
crpy2.robjects.robject
_reduce_robjectmixin
p61
(S'X\n\x00\x00\x00\x02\x00\x03\x05\x03\x00\x02\x03\x00\x00\x00\x00\r\x00\x00\x00\x05\x00\x00\x00\x01\x00\x00\x00\x02\x00\x00\x00\x03\x00\x00\x00\x04\x00\x00\x00\x05'
p62
I13
crpy2.rinterface._rinterface
unserialize
p63
crpy2.robjects.vectors
IntVector
p64
tp65
Rp66
(dp67
S'ro'
p68
g0
(crpy2.robjects.vectors
VectorOperationsDelegator
p69
g2
Ntp70
Rp71
(dp72
S'_parent'
p73
g66
sbsS'rx'
p74
g0
(crpy2.robjects.vectors
ExtractDelegator
p75
g2
Ntp76
Rp77
(dp78
g73
g66
sbsS'rx2'
p79
g0
(crpy2.robjects.vectors
DoubleExtractDelegator
p80
g2
Ntp81
Rp82
(dp83
g73
g66
sbsbsS'response_var_'
p84
S'P1752'
p85
sS'edge_cond_'
p86
(dp87
(I1
I2
tp88
(lp89
g22
ag25
aS'W'
p90
as(I1
I5
tp91
(lp92
S'C'
p93
as(I2
I3
tp94
(lp95
g22
ag24
aS'R'
p96
ag25
as(I2
I4
tp97
(lp98
S'G'
p99
assS'class_pred_'
p100
g20
sS'CLASSES'
p101
cnumpy.core.multiarray
_reconstruct
p102
(cnumpy
ndarray
p103
(I0
tp104
S'b'
p105
tp106
Rp107
(I1
(I5
tp108
cnumpy
dtype
p109
(S'O8'
p110
I0
I1
tp111
Rp112
(I3
S'|'
p113
NNNI-1
I-1
I63
tp114
bI00
(lp115
g22
ag24
ag26
ag25
ag23
atp116
bsS'TREE_LEAF'
p117
(dp118
I1
I00
sI2
I00
sI3
I01
sI4
I01
sI5
I01
ssS'num_pass_'
p119
(dp120
I1
I71
sI2
I42
sI3
I24
sI4
I18
sI5
I29
ssS'error'
p121
(dp122
I1
F60.563380281690144
sI2
F52.38095238095238
sI3
F29.166666666666664
sI4
F0.0
sI5
F6.896551724137931
ssS'pvalue'
p123
g34
sS'class_names'
p124
g107
sS'n_node_samples'
p125
g120
sb.