ccopy_reg
_reconstructor
p0
(cmlx
tree_
p1
c__builtin__
object
p2
Ntp3
Rp4
(dp5
S'decision_rules_'
p6
(dp7
I2
S'P3859 %in% c("A", "C", "T")'
p8
sI3
S'P3859 %in% c("G")'
p9
ssS'significant_feature_weight_'
p10
(dp11
S'P3859'
p12
F0.9982146201560502
ssS'children_left'
p13
(dp14
I1
I2
sI2
NsI3
NssS'ACCx_'
p15
F0.8309859154929577
sS'ACC_'
p16
F0.9154929577464789
sS'value'
p17
(dp18
I1
(dp19
S'A'
p20
F35.0
sS'C'
p21
F31.0
sS'T'
p22
F2.0
sS'G'
p23
F3.0
ssI2
(dp24
g20
F0.0
sg21
F30.0
sg22
F2.0
sg23
F2.0
ssI3
(dp25
g20
F35.0
sg21
F1.0
sg22
F0.0
sg23
F1.0
sssS'tprob_'
p26
(dp27
I2
F0.4788732394366197
sI3
F0.5211267605633803
ssS'threshold'
p28
(dp29
I1
I0
ssS'children'
p30
(dp31
I1
c__builtin__
set
p32
((lp33
I2
aI3
atp34
Rp35
sI2
g32
((lp36
tp37
Rp38
sI3
g32
((lp39
tp40
Rp41
ssS'children_right'
p42
(dp43
I1
I3
sI2
NsI3
NssS'feature'
p44
(dp45
I1
g12
sI2
S'2'
p46
sI3
S'3'
p47
ssS'nodes'
p48
crpy2.robjects.robject
_reduce_robjectmixin
p49
(S'X\n\x00\x00\x00\x02\x00\x03\x05\x03\x00\x02\x03\x00\x00\x00\x00\r\x00\x00\x00\x03\x00\x00\x00\x01\x00\x00\x00\x02\x00\x00\x00\x03'
p50
I13
crpy2.rinterface._rinterface
unserialize
p51
crpy2.robjects.vectors
IntVector
p52
tp53
Rp54
(dp55
S'ro'
p56
g0
(crpy2.robjects.vectors
VectorOperationsDelegator
p57
g2
Ntp58
Rp59
(dp60
S'_parent'
p61
g54
sbsS'rx'
p62
g0
(crpy2.robjects.vectors
ExtractDelegator
p63
g2
Ntp64
Rp65
(dp66
g61
g54
sbsS'rx2'
p67
g0
(crpy2.robjects.vectors
DoubleExtractDelegator
p68
g2
Ntp69
Rp70
(dp71
g61
g54
sbsbsS'response_var_'
p72
S'P4769'
p73
sS'edge_cond_'
p74
(dp75
(I1
I2
tp76
(lp77
g20
ag21
ag22
as(I1
I3
tp78
(lp79
S'G'
p80
assS'class_pred_'
p81
g18
sS'CLASSES'
p82
cnumpy.core.multiarray
_reconstruct
p83
(cnumpy
ndarray
p84
(I0
tp85
S'b'
p86
tp87
Rp88
(I1
(I4
tp89
cnumpy
dtype
p90
(S'O8'
p91
I0
I1
tp92
Rp93
(I3
S'|'
p94
NNNI-1
I-1
I63
tp95
bI00
(lp96
g20
ag21
ag23
ag22
atp97
bsS'TREE_LEAF'
p98
(dp99
I1
I00
sI2
I01
sI3
I01
ssS'num_pass_'
p100
(dp101
I1
I71
sI2
I34
sI3
I37
ssS'error'
p102
(dp103
I1
F50.70422535211267
sI2
F11.76470588235294
sI3
F5.405405405405405
ssS'pvalue'
p104
g29
sS'class_names'
p105
g88
sS'n_node_samples'
p106
g101
sb.