ccopy_reg
_reconstructor
p0
(cmlx
tree_
p1
c__builtin__
object
p2
Ntp3
Rp4
(dp5
S'decision_rules_'
p6
(dp7
I3
S'P3712 %in% c("A", "C", "N", "T") & P4641 %in% c("A")'
p8
sI4
S'P3712 %in% c("A", "C", "N", "T") & P4641 %in% c("C", "G", "T")'
p9
sI5
S'P3712 %in% c("G")'
p10
ssS'significant_feature_weight_'
p11
(dp12
S'P4641'
p13
F0.3900324770785418
sS'P3712'
p14
F0.9902796867684822
ssS'children_left'
p15
(dp16
I1
I2
sI2
I3
sI3
NsI4
NsI5
NssS'ACCx_'
p17
F0.323943661971831
sS'ACC_'
p18
F0.8450704225352113
sS'value'
p19
(dp20
I1
(dp21
S'A'
p22
F33.0
sS'C'
p23
F29.0
sS'T'
p24
F8.0
sS'G'
p25
F1.0
ssI2
(dp26
g22
F4.0
sg23
F26.0
sg24
F8.0
sg25
F1.0
ssI3
(dp27
g22
F1.0
sg23
F26.0
sg24
F3.0
sg25
F0.0
ssI4
(dp28
g22
F3.0
sg23
F0.0
sg24
F5.0
sg25
F1.0
ssI5
(dp29
g22
F29.0
sg23
F3.0
sg24
F0.0
sg25
F0.0
sssS'tprob_'
p30
(dp31
I3
F0.4225352112676056
sI4
F0.1267605633802817
sI5
F0.4507042253521127
ssS'threshold'
p32
(dp33
I1
I0
sI2
F3.28591598375283e-11
ssS'children'
p34
(dp35
I1
c__builtin__
set
p36
((lp37
I2
aI5
atp38
Rp39
sI2
g36
((lp40
I3
aI4
atp41
Rp42
sI3
g36
((lp43
tp44
Rp45
sI4
g36
((lp46
tp47
Rp48
sI5
g36
((lp49
tp50
Rp51
ssS'children_right'
p52
(dp53
I1
I5
sI2
I4
sI3
NsI4
NsI5
NssS'feature'
p54
(dp55
I1
g14
sI2
g13
sI3
S'3'
p56
sI4
S'4'
p57
sI5
S'5'
p58
ssS'nodes'
p59
crpy2.robjects.robject
_reduce_robjectmixin
p60
(S'X\n\x00\x00\x00\x02\x00\x03\x05\x03\x00\x02\x03\x00\x00\x00\x00\r\x00\x00\x00\x05\x00\x00\x00\x01\x00\x00\x00\x02\x00\x00\x00\x03\x00\x00\x00\x04\x00\x00\x00\x05'
p61
I13
crpy2.rinterface._rinterface
unserialize
p62
crpy2.robjects.vectors
IntVector
p63
tp64
Rp65
(dp66
S'ro'
p67
g0
(crpy2.robjects.vectors
VectorOperationsDelegator
p68
g2
Ntp69
Rp70
(dp71
S'_parent'
p72
g65
sbsS'rx'
p73
g0
(crpy2.robjects.vectors
ExtractDelegator
p74
g2
Ntp75
Rp76
(dp77
g72
g65
sbsS'rx2'
p78
g0
(crpy2.robjects.vectors
DoubleExtractDelegator
p79
g2
Ntp80
Rp81
(dp82
g72
g65
sbsbsS'response_var_'
p83
S'P1827'
p84
sS'edge_cond_'
p85
(dp86
(I1
I2
tp87
(lp88
g22
ag23
ag24
aS'N'
p89
as(I1
I5
tp90
(lp91
S'G'
p92
as(I2
I3
tp93
(lp94
S'A'
p95
as(I2
I4
tp96
(lp97
g23
ag24
ag25
assS'class_pred_'
p98
g20
sS'CLASSES'
p99
cnumpy.core.multiarray
_reconstruct
p100
(cnumpy
ndarray
p101
(I0
tp102
S'b'
p103
tp104
Rp105
(I1
(I4
tp106
cnumpy
dtype
p107
(S'O8'
p108
I0
I1
tp109
Rp110
(I3
S'|'
p111
NNNI-1
I-1
I63
tp112
bI00
(lp113
g22
ag23
ag25
ag24
atp114
bsS'TREE_LEAF'
p115
(dp116
I1
I00
sI2
I00
sI3
I01
sI4
I01
sI5
I01
ssS'num_pass_'
p117
(dp118
I1
I71
sI2
I39
sI3
I30
sI4
I9
sI5
I32
ssS'error'
p119
(dp120
I1
F53.521126760563384
sI2
F33.33333333333333
sI3
F13.333333333333334
sI4
F44.44444444444444
sI5
F9.375
ssS'pvalue'
p121
g33
sS'class_names'
p122
g105
sS'n_node_samples'
p123
g118
sb.