ccopy_reg
_reconstructor
p0
(cmlx
tree_
p1
c__builtin__
object
p2
Ntp3
Rp4
(dp5
S'decision_rules_'
p6
(dp7
I8
S'P44 %in% c("G") & P200 %in% c("C", "M", "T") & P3807 %in% c("A", "G") & P486 %in% c("C", "NA")'
p8
sI9
S'P44 %in% c("G") & P200 %in% c("C", "M", "T") & P3807 %in% c("T")'
p9
sI2
S'P44 %in% c("C", "T")'
p10
sI4
S'P44 %in% c("G") & P200 %in% c("A", "G")'
p11
sI7
S'P44 %in% c("G") & P200 %in% c("C", "M", "T") & P3807 %in% c("A", "G") & P486 %in% c("A", "NA", "T")'
p12
ssS'significant_feature_weight_'
p13
(dp14
S'P44'
p15
F0.4427692830262924
sS'P3807'
p16
F0.0
sS'P200'
p17
F0.472512482032519
sS'P486'
p18
F0.0
ssS'children_left'
p19
(dp20
I1
I2
sI2
NsI3
I4
sI4
NsI5
I9
sI6
I8
sI7
NsI8
NsI9
NssS'ACCx_'
p21
F0.8450704225352113
sS'ACC_'
p22
F0.8732394366197183
sS'value'
p23
(dp24
I1
(dp25
S'A'
p26
F49.0
sS'C'
p27
F3.0
sS'T'
p28
F5.0
sS'G'
p29
F14.0
ssI2
(dp30
g26
F0.0
sg27
F3.0
sg28
F5.0
sg29
F1.0
ssI3
(dp31
g26
F49.0
sg27
F0.0
sg28
F0.0
sg29
F13.0
ssI4
(dp32
g26
F1.0
sg27
F0.0
sg28
F0.0
sg29
F9.0
ssI5
(dp33
g26
F48.0
sg27
F0.0
sg28
F0.0
sg29
F4.0
ssI6
(dp34
g26
F20.0
sg27
F0.0
sg28
F0.0
sg29
F4.0
ssI7
(dp35
g26
F9.0
sg27
F0.0
sg28
F0.0
sg29
F4.0
ssI8
(dp36
g26
F11.0
sg27
F0.0
sg28
F0.0
sg29
F0.0
ssI9
(dp37
g26
F28.0
sg27
F0.0
sg28
F0.0
sg29
F0.0
sssS'tprob_'
p38
(dp39
I8
F0.15492957746478872
sI9
F0.39436619718309857
sI2
F0.1267605633802817
sI4
F0.14084507042253522
sI7
F0.18309859154929578
ssS'threshold'
p40
(dp41
I1
I0
sI3
F0.000375785199790979
sI5
F4.11486196227884e-08
sI6
F0.048281287465488
ssS'children'
p42
(dp43
I1
c__builtin__
set
p44
((lp45
I2
aI3
atp46
Rp47
sI2
g44
((lp48
tp49
Rp50
sI3
g44
((lp51
I4
aI5
atp52
Rp53
sI4
g44
((lp54
tp55
Rp56
sI5
g44
((lp57
I9
aI6
atp58
Rp59
sI6
g44
((lp60
I8
aI7
atp61
Rp62
sI7
g44
((lp63
tp64
Rp65
sI8
g44
((lp66
tp67
Rp68
sI9
g44
((lp69
tp70
Rp71
ssS'children_right'
p72
(dp73
I1
I3
sI2
NsI3
I5
sI4
NsI5
I6
sI6
I7
sI7
NsI8
NsI9
NssS'feature'
p74
(dp75
I1
g15
sI2
S'2'
p76
sI3
g17
sI4
S'4'
p77
sI5
g16
sI6
g18
sI7
S'7'
p78
sI8
S'8'
p79
sI9
S'9'
p80
ssS'nodes'
p81
crpy2.robjects.robject
_reduce_robjectmixin
p82
(S'X\n\x00\x00\x00\x02\x00\x03\x05\x03\x00\x02\x03\x00\x00\x00\x00\r\x00\x00\x00\t\x00\x00\x00\x01\x00\x00\x00\x02\x00\x00\x00\x03\x00\x00\x00\x04\x00\x00\x00\x05\x00\x00\x00\x06\x00\x00\x00\x07\x00\x00\x00\x08\x00\x00\x00\t'
p83
I13
crpy2.rinterface._rinterface
unserialize
p84
crpy2.robjects.vectors
IntVector
p85
tp86
Rp87
(dp88
S'ro'
p89
g0
(crpy2.robjects.vectors
VectorOperationsDelegator
p90
g2
Ntp91
Rp92
(dp93
S'_parent'
p94
g87
sbsS'rx'
p95
g0
(crpy2.robjects.vectors
ExtractDelegator
p96
g2
Ntp97
Rp98
(dp99
g94
g87
sbsS'rx2'
p100
g0
(crpy2.robjects.vectors
DoubleExtractDelegator
p101
g2
Ntp102
Rp103
(dp104
g94
g87
sbsbsS'response_var_'
p105
S'P3270'
p106
sS'edge_cond_'
p107
(dp108
(I1
I2
tp109
(lp110
g27
ag28
as(I5
I9
tp111
(lp112
S'T'
p113
as(I1
I3
tp114
(lp115
S'G'
p116
as(I6
I7
tp117
(lp118
g26
ag28
as(I6
I8
tp119
(lp120
g27
as(I5
I6
tp121
(lp122
g26
ag29
as(I3
I4
tp123
(lp124
g26
ag29
as(I3
I5
tp125
(lp126
g27
aS'M'
p127
ag28
assS'class_pred_'
p128
g24
sS'CLASSES'
p129
cnumpy.core.multiarray
_reconstruct
p130
(cnumpy
ndarray
p131
(I0
tp132
S'b'
p133
tp134
Rp135
(I1
(I4
tp136
cnumpy
dtype
p137
(S'O8'
p138
I0
I1
tp139
Rp140
(I3
S'|'
p141
NNNI-1
I-1
I63
tp142
bI00
(lp143
g26
ag27
ag29
ag28
atp144
bsS'TREE_LEAF'
p145
(dp146
I1
I00
sI2
I01
sI3
I00
sI4
I01
sI5
I00
sI6
I00
sI7
I01
sI8
I01
sI9
I01
ssS'num_pass_'
p147
(dp148
I1
I71
sI2
I9
sI3
I62
sI4
I10
sI5
I52
sI6
I24
sI7
I13
sI8
I11
sI9
I28
ssS'error'
p149
(dp150
I1
F30.985915492957744
sI2
F44.44444444444444
sI3
F20.967741935483872
sI4
F10.0
sI5
F7.6923076923076925
sI6
F16.666666666666664
sI7
F30.76923076923077
sI8
F0.0
sI9
F0.0
ssS'pvalue'
p151
g41
sS'class_names'
p152
g135
sS'n_node_samples'
p153
g148
sb.