ccopy_reg
_reconstructor
p0
(cmlx
tree_
p1
c__builtin__
object
p2
Ntp3
Rp4
(dp5
S'decision_rules_'
p6
(dp7
I2
S'P3246 %in% c("A", "G")'
p8
sI4
S'P3246 %in% c("C", "T", "Y") & P3363 %in% c("A", "C", "NA", "Y")'
p9
sI5
S'P3246 %in% c("C", "T", "Y") & P3363 %in% c("NA", "T")'
p10
ssS'significant_feature_weight_'
p11
(dp12
S'P3246'
p13
F0.9998016068335638
sS'P3363'
p14
F0.5054772693129902
ssS'children_left'
p15
(dp16
I1
I2
sI2
NsI3
I4
sI4
NsI5
NssS'ACCx_'
p17
F0.5492957746478873
sS'ACC_'
p18
F0.8873239436619719
sS'value'
p19
(dp20
I1
(dp21
S'A'
p22
F34.0
sS'Y'
p23
F1.0
sS'C'
p24
F20.0
sS'T'
p25
F11.0
sS'G'
p26
F5.0
ssI2
(dp27
g22
F33.0
sg23
F0.0
sg24
F1.0
sg25
F0.0
sg26
F1.0
ssI3
(dp28
g22
F1.0
sg23
F1.0
sg24
F19.0
sg25
F11.0
sg26
F4.0
ssI4
(dp29
g22
F1.0
sg23
F1.0
sg24
F0.0
sg25
F11.0
sg26
F4.0
ssI5
(dp30
g22
F0.0
sg23
F0.0
sg24
F19.0
sg25
F0.0
sg26
F0.0
sssS'tprob_'
p31
(dp32
I2
F0.49295774647887325
sI4
F0.23943661971830985
sI5
F0.2676056338028169
ssS'threshold'
p33
(dp34
I1
I0
sI3
F2.8355096048926503e-13
ssS'children'
p35
(dp36
I1
c__builtin__
set
p37
((lp38
I2
aI3
atp39
Rp40
sI2
g37
((lp41
tp42
Rp43
sI3
g37
((lp44
I4
aI5
atp45
Rp46
sI4
g37
((lp47
tp48
Rp49
sI5
g37
((lp50
tp51
Rp52
ssS'children_right'
p53
(dp54
I1
I3
sI2
NsI3
I5
sI4
NsI5
NssS'feature'
p55
(dp56
I1
g13
sI2
S'2'
p57
sI3
g14
sI4
S'4'
p58
sI5
S'5'
p59
ssS'nodes'
p60
crpy2.robjects.robject
_reduce_robjectmixin
p61
(S'X\n\x00\x00\x00\x02\x00\x03\x05\x03\x00\x02\x03\x00\x00\x00\x00\r\x00\x00\x00\x05\x00\x00\x00\x01\x00\x00\x00\x02\x00\x00\x00\x03\x00\x00\x00\x04\x00\x00\x00\x05'
p62
I13
crpy2.rinterface._rinterface
unserialize
p63
crpy2.robjects.vectors
IntVector
p64
tp65
Rp66
(dp67
S'ro'
p68
g0
(crpy2.robjects.vectors
VectorOperationsDelegator
p69
g2
Ntp70
Rp71
(dp72
S'_parent'
p73
g66
sbsS'rx'
p74
g0
(crpy2.robjects.vectors
ExtractDelegator
p75
g2
Ntp76
Rp77
(dp78
g73
g66
sbsS'rx2'
p79
g0
(crpy2.robjects.vectors
DoubleExtractDelegator
p80
g2
Ntp81
Rp82
(dp83
g73
g66
sbsbsS'response_var_'
p84
S'P1548'
p85
sS'edge_cond_'
p86
(dp87
(I1
I2
tp88
(lp89
g22
ag26
as(I1
I3
tp90
(lp91
g23
ag24
ag25
as(I3
I4
tp92
(lp93
g22
ag23
ag24
as(I3
I5
tp94
(lp95
g25
assS'class_pred_'
p96
g20
sS'CLASSES'
p97
cnumpy.core.multiarray
_reconstruct
p98
(cnumpy
ndarray
p99
(I0
tp100
S'b'
p101
tp102
Rp103
(I1
(I5
tp104
cnumpy
dtype
p105
(S'O8'
p106
I0
I1
tp107
Rp108
(I3
S'|'
p109
NNNI-1
I-1
I63
tp110
bI00
(lp111
g22
ag24
ag26
ag25
ag23
atp112
bsS'TREE_LEAF'
p113
(dp114
I1
I00
sI2
I01
sI3
I00
sI4
I01
sI5
I01
ssS'num_pass_'
p115
(dp116
I1
I71
sI2
I35
sI3
I36
sI4
I17
sI5
I19
ssS'error'
p117
(dp118
I1
F52.11267605633803
sI2
F5.714285714285714
sI3
F47.22222222222222
sI4
F35.29411764705882
sI5
F0.0
ssS'pvalue'
p119
g34
sS'class_names'
p120
g103
sS'n_node_samples'
p121
g116
sb.