ccopy_reg
_reconstructor
p0
(cmlx
tree_
p1
c__builtin__
object
p2
Ntp3
Rp4
(dp5
S'decision_rules_'
p6
(dp7
I2
S'P837 %in% c("A", "C")'
p8
sI4
S'P837 %in% c("G", "N", "T") & P1659 %in% c("A", "C", "N")'
p9
sI5
S'P837 %in% c("G", "N", "T") & P1659 %in% c("G", "T")'
p10
ssS'significant_feature_weight_'
p11
(dp12
S'P837'
p13
F0.9839317400584278
sS'P1659'
p14
F0.5577464440315075
ssS'children_left'
p15
(dp16
I1
I2
sI2
NsI3
I4
sI4
NsI5
NssS'ACCx_'
p17
F0.7323943661971831
sS'ACC_'
p18
F0.8169014084507042
sS'value'
p19
(dp20
I1
(dp21
S'A'
p22
F22.0
sS'C'
p23
F4.0
sS'T'
p24
F29.0
sS'G'
p25
F15.0
sS'N'
p26
F1.0
ssI2
(dp27
g22
F0.0
sg23
F0.0
sg24
F29.0
sg25
F2.0
sg26
F0.0
ssI3
(dp28
g22
F22.0
sg23
F4.0
sg24
F0.0
sg25
F13.0
sg26
F1.0
ssI4
(dp29
g22
F3.0
sg23
F4.0
sg24
F0.0
sg25
F10.0
sg26
F1.0
ssI5
(dp30
g22
F19.0
sg23
F0.0
sg24
F0.0
sg25
F3.0
sg26
F0.0
sssS'tprob_'
p31
(dp32
I2
F0.43661971830985913
sI4
F0.2535211267605634
sI5
F0.30985915492957744
ssS'threshold'
p33
(dp34
I1
I0
sI3
F5.32040922429644e-09
ssS'children'
p35
(dp36
I1
c__builtin__
set
p37
((lp38
I2
aI3
atp39
Rp40
sI2
g37
((lp41
tp42
Rp43
sI3
g37
((lp44
I4
aI5
atp45
Rp46
sI4
g37
((lp47
tp48
Rp49
sI5
g37
((lp50
tp51
Rp52
ssS'children_right'
p53
(dp54
I1
I3
sI2
NsI3
I5
sI4
NsI5
NssS'feature'
p55
(dp56
I1
g13
sI2
S'2'
p57
sI3
g14
sI4
S'4'
p58
sI5
S'5'
p59
ssS'nodes'
p60
crpy2.robjects.robject
_reduce_robjectmixin
p61
(S'X\n\x00\x00\x00\x02\x00\x03\x05\x03\x00\x02\x03\x00\x00\x00\x00\r\x00\x00\x00\x05\x00\x00\x00\x01\x00\x00\x00\x02\x00\x00\x00\x03\x00\x00\x00\x04\x00\x00\x00\x05'
p62
I13
crpy2.rinterface._rinterface
unserialize
p63
crpy2.robjects.vectors
IntVector
p64
tp65
Rp66
(dp67
S'ro'
p68
g0
(crpy2.robjects.vectors
VectorOperationsDelegator
p69
g2
Ntp70
Rp71
(dp72
S'_parent'
p73
g66
sbsS'rx'
p74
g0
(crpy2.robjects.vectors
ExtractDelegator
p75
g2
Ntp76
Rp77
(dp78
g73
g66
sbsS'rx2'
p79
g0
(crpy2.robjects.vectors
DoubleExtractDelegator
p80
g2
Ntp81
Rp82
(dp83
g73
g66
sbsbsS'response_var_'
p84
S'P834'
p85
sS'edge_cond_'
p86
(dp87
(I1
I2
tp88
(lp89
g22
ag23
as(I1
I3
tp90
(lp91
g24
ag25
ag26
as(I3
I4
tp92
(lp93
g22
ag23
ag26
as(I3
I5
tp94
(lp95
g24
ag25
assS'class_pred_'
p96
g20
sS'CLASSES'
p97
cnumpy.core.multiarray
_reconstruct
p98
(cnumpy
ndarray
p99
(I0
tp100
S'b'
p101
tp102
Rp103
(I1
(I5
tp104
cnumpy
dtype
p105
(S'O8'
p106
I0
I1
tp107
Rp108
(I3
S'|'
p109
NNNI-1
I-1
I63
tp110
bI00
(lp111
g22
ag23
ag25
ag26
ag24
atp112
bsS'TREE_LEAF'
p113
(dp114
I1
I00
sI2
I01
sI3
I00
sI4
I01
sI5
I01
ssS'num_pass_'
p115
(dp116
I1
I71
sI2
I31
sI3
I40
sI4
I18
sI5
I22
ssS'error'
p117
(dp118
I1
F59.154929577464785
sI2
F6.451612903225806
sI3
F45.0
sI4
F44.44444444444444
sI5
F13.636363636363635
ssS'pvalue'
p119
g34
sS'class_names'
p120
g103
sS'n_node_samples'
p121
g116
sb.