ccopy_reg
_reconstructor
p0
(cmlx
tree_
p1
c__builtin__
object
p2
Ntp3
Rp4
(dp5
S'decision_rules_'
p6
(dp7
I3
S'P782 %in% c("A", "G", "N") & P783 %in% c("NA", "NA", "N", "T", "Y")'
p8
sI4
S'P782 %in% c("A", "G", "N") & P783 %in% c("NA", "C", "NA")'
p9
sI6
S'P782 %in% c("C", "T") & P987 %in% c("A")'
p10
sI7
S'P782 %in% c("C", "T") & P987 %in% c("C", "G", "T")'
p11
ssS'significant_feature_weight_'
p12
(dp13
S'P783'
p14
F0.39981822284769186
sS'P782'
p15
F0.9839317400584278
sS'P987'
p16
F0.561971795880231
ssS'children_left'
p17
(dp18
I1
I2
sI2
I3
sI3
NsI4
NsI5
I6
sI6
NsI7
NssS'ACCx_'
p19
F0.7464788732394366
sS'ACC_'
p20
F0.7323943661971831
sS'value'
p21
(dp22
I1
(dp23
S'A'
p24
F20.0
sS'C'
p25
F26.0
sS'G'
p26
F15.0
sS'N'
p27
F1.0
sS'R'
p28
F1.0
sS'T'
p29
F8.0
ssI2
(dp30
g24
F16.0
sg25
F0.0
sg26
F13.0
sg27
F1.0
sg28
F1.0
sg29
F0.0
ssI3
(dp31
g24
F1.0
sg25
F0.0
sg26
F8.0
sg27
F1.0
sg28
F1.0
sg29
F0.0
ssI4
(dp32
g24
F15.0
sg25
F0.0
sg26
F5.0
sg27
F0.0
sg28
F0.0
sg29
F0.0
ssI5
(dp33
g24
F4.0
sg25
F26.0
sg26
F2.0
sg27
F0.0
sg28
F0.0
sg29
F8.0
ssI6
(dp34
g24
F0.0
sg25
F21.0
sg26
F0.0
sg27
F0.0
sg28
F0.0
sg29
F0.0
ssI7
(dp35
g24
F4.0
sg25
F5.0
sg26
F2.0
sg27
F0.0
sg28
F0.0
sg29
F8.0
sssS'tprob_'
p36
(dp37
I3
F0.15492957746478872
sI4
F0.28169014084507044
sI6
F0.29577464788732394
sI7
F0.2676056338028169
ssS'threshold'
p38
(dp39
I1
I0
sI2
F5.6803564851826105e-08
sI5
F3.6342817644197105e-11
ssS'children'
p40
(dp41
I1
c__builtin__
set
p42
((lp43
I2
aI5
atp44
Rp45
sI2
g42
((lp46
I3
aI4
atp47
Rp48
sI3
g42
((lp49
tp50
Rp51
sI4
g42
((lp52
tp53
Rp54
sI5
g42
((lp55
I6
aI7
atp56
Rp57
sI6
g42
((lp58
tp59
Rp60
sI7
g42
((lp61
tp62
Rp63
ssS'children_right'
p64
(dp65
I1
I5
sI2
I4
sI3
NsI4
NsI5
I7
sI6
NsI7
NssS'feature'
p66
(dp67
I1
g15
sI2
g14
sI3
S'3'
p68
sI4
S'4'
p69
sI5
g16
sI6
S'6'
p70
sI7
S'7'
p71
ssS'nodes'
p72
crpy2.robjects.robject
_reduce_robjectmixin
p73
(S'X\n\x00\x00\x00\x02\x00\x03\x05\x03\x00\x02\x03\x00\x00\x00\x00\r\x00\x00\x00\x07\x00\x00\x00\x01\x00\x00\x00\x02\x00\x00\x00\x03\x00\x00\x00\x04\x00\x00\x00\x05\x00\x00\x00\x06\x00\x00\x00\x07'
p74
I13
crpy2.rinterface._rinterface
unserialize
p75
crpy2.robjects.vectors
IntVector
p76
tp77
Rp78
(dp79
S'ro'
p80
g0
(crpy2.robjects.vectors
VectorOperationsDelegator
p81
g2
Ntp82
Rp83
(dp84
S'_parent'
p85
g78
sbsS'rx'
p86
g0
(crpy2.robjects.vectors
ExtractDelegator
p87
g2
Ntp88
Rp89
(dp90
g85
g78
sbsS'rx2'
p91
g0
(crpy2.robjects.vectors
DoubleExtractDelegator
p92
g2
Ntp93
Rp94
(dp95
g85
g78
sbsbsS'response_var_'
p96
S'P789'
p97
sS'edge_cond_'
p98
(dp99
(I1
I2
tp100
(lp101
g24
ag26
ag27
as(I5
I6
tp102
(lp103
S'A'
p104
as(I5
I7
tp105
(lp106
g25
ag29
ag26
as(I1
I5
tp107
(lp108
g25
ag29
as(I2
I3
tp109
(lp110
S'Y'
p111
ag29
ag27
as(I2
I4
tp112
(lp113
g25
assS'class_pred_'
p114
g22
sS'CLASSES'
p115
cnumpy.core.multiarray
_reconstruct
p116
(cnumpy
ndarray
p117
(I0
tp118
S'b'
p119
tp120
Rp121
(I1
(I6
tp122
cnumpy
dtype
p123
(S'O8'
p124
I0
I1
tp125
Rp126
(I3
S'|'
p127
NNNI-1
I-1
I63
tp128
bI00
(lp129
g24
ag25
ag26
ag27
ag28
ag29
atp130
bsS'TREE_LEAF'
p131
(dp132
I1
I00
sI2
I00
sI3
I01
sI4
I01
sI5
I00
sI6
I01
sI7
I01
ssS'num_pass_'
p133
(dp134
I1
I71
sI2
I31
sI3
I11
sI4
I20
sI5
I40
sI6
I21
sI7
I19
ssS'error'
p135
(dp136
I1
F63.38028169014085
sI2
F48.38709677419355
sI3
F27.272727272727273
sI4
F25.0
sI5
F35.0
sI6
F0.0
sI7
F57.89473684210526
ssS'pvalue'
p137
g39
sS'class_names'
p138
g121
sS'n_node_samples'
p139
g134
sb.