ccopy_reg
_reconstructor
p0
(cmlx
tree_
p1
c__builtin__
object
p2
Ntp3
Rp4
(dp5
S'decision_rules_'
p6
(dp7
I2
S'P3266 %in% c("C")'
p8
sI5
S'P3266 %in% c("G", "T") & P1633 %in% c("A", "NA", "T") & P1960 %in% c("A", "NA")'
p9
sI6
S'P3266 %in% c("G", "T") & P1633 %in% c("A", "NA", "T") & P1960 %in% c("NA", "G", "T")'
p10
sI9
S'P3266 %in% c("G", "T") & P1633 %in% c("NA", "G") & P3234 %in% c("A", "T") & P3177 %in% c("NA", "T")'
p11
sI10
S'P3266 %in% c("G", "T") & P1633 %in% c("NA", "G") & P3234 %in% c("A", "T") & P3177 %in% c("NA", "C", "G")'
p12
sI11
S'P3266 %in% c("G", "T") & P1633 %in% c("NA", "G") & P3234 %in% c("C", "G")'
p13
ssS'significant_feature_weight_'
p14
(dp15
S'P1633'
p16
F0.7010815377909443
sS'P3177'
p17
F0.0
sS'P1960'
p18
F0.17523213355144665
sS'P3266'
p19
F0.36049669376970145
sS'P3234'
p20
F0.0
ssS'children_left'
p21
(dp22
I1
I2
sI2
NsI3
I4
sI4
I5
sI5
NsI6
NsI7
I8
sI8
I9
sI9
NsI10
NsI11
NssS'ACCx_'
p23
F0.6056338028169015
sS'ACC_'
p24
F0.8028169014084507
sS'value'
p25
(dp26
I1
(dp27
S'A'
p28
F8.0
sS'C'
p29
F39.0
sS'T'
p30
F21.0
sS'G'
p31
F3.0
ssI2
(dp32
g28
F8.0
sg29
F0.0
sg30
F0.0
sg31
F0.0
ssI3
(dp33
g28
F0.0
sg29
F39.0
sg30
F21.0
sg31
F3.0
ssI4
(dp34
g28
F0.0
sg29
F6.0
sg30
F12.0
sg31
F3.0
ssI5
(dp35
g28
F0.0
sg29
F2.0
sg30
F12.0
sg31
F0.0
ssI6
(dp36
g28
F0.0
sg29
F4.0
sg30
F0.0
sg31
F3.0
ssI7
(dp37
g28
F0.0
sg29
F33.0
sg30
F9.0
sg31
F0.0
ssI8
(dp38
g28
F0.0
sg29
F26.0
sg30
F3.0
sg31
F0.0
ssI9
(dp39
g28
F0.0
sg29
F18.0
sg30
F0.0
sg31
F0.0
ssI10
(dp40
g28
F0.0
sg29
F8.0
sg30
F3.0
sg31
F0.0
ssI11
(dp41
g28
F0.0
sg29
F7.0
sg30
F6.0
sg31
F0.0
sssS'tprob_'
p42
(dp43
I2
F0.11267605633802817
sI5
F0.19718309859154928
sI6
F0.09859154929577464
sI9
F0.2535211267605634
sI10
F0.15492957746478872
sI11
F0.18309859154929578
ssS'threshold'
p44
(dp45
I8
F0.00405378063974993
sI1
I0
sI3
F1.82222015254752e-11
sI4
F0.0121527054893021
sI7
F0.0436128604910552
ssS'children'
p46
(dp47
I1
c__builtin__
set
p48
((lp49
I2
aI3
atp50
Rp51
sI2
g48
((lp52
tp53
Rp54
sI3
g48
((lp55
I4
aI7
atp56
Rp57
sI4
g48
((lp58
I5
aI6
atp59
Rp60
sI5
g48
((lp61
tp62
Rp63
sI6
g48
((lp64
tp65
Rp66
sI7
g48
((lp67
I8
aI11
atp68
Rp69
sI8
g48
((lp70
I9
aI10
atp71
Rp72
sI9
g48
((lp73
tp74
Rp75
sI10
g48
((lp76
tp77
Rp78
sI11
g48
((lp79
tp80
Rp81
ssS'children_right'
p82
(dp83
I1
I3
sI2
NsI3
I7
sI4
I6
sI5
NsI6
NsI7
I11
sI8
I10
sI9
NsI10
NsI11
NssS'feature'
p84
(dp85
I1
g19
sI2
S'2'
p86
sI3
g16
sI4
g18
sI5
S'5'
p87
sI6
S'6'
p88
sI7
g20
sI8
g17
sI9
S'9'
p89
sI10
S'10'
p90
sI11
S'11'
p91
ssS'nodes'
p92
crpy2.robjects.robject
_reduce_robjectmixin
p93
(S'X\n\x00\x00\x00\x02\x00\x03\x05\x03\x00\x02\x03\x00\x00\x00\x00\r\x00\x00\x00\x0b\x00\x00\x00\x01\x00\x00\x00\x02\x00\x00\x00\x03\x00\x00\x00\x04\x00\x00\x00\x05\x00\x00\x00\x06\x00\x00\x00\x07\x00\x00\x00\x08\x00\x00\x00\t\x00\x00\x00\n\x00\x00\x00\x0b'
p94
I13
crpy2.rinterface._rinterface
unserialize
p95
crpy2.robjects.vectors
IntVector
p96
tp97
Rp98
(dp99
S'ro'
p100
g0
(crpy2.robjects.vectors
VectorOperationsDelegator
p101
g2
Ntp102
Rp103
(dp104
S'_parent'
p105
g98
sbsS'rx'
p106
g0
(crpy2.robjects.vectors
ExtractDelegator
p107
g2
Ntp108
Rp109
(dp110
g105
g98
sbsS'rx2'
p111
g0
(crpy2.robjects.vectors
DoubleExtractDelegator
p112
g2
Ntp113
Rp114
(dp115
g105
g98
sbsbsS'response_var_'
p116
S'P3555'
p117
sS'edge_cond_'
p118
(dp119
(I1
I2
tp120
(lp121
S'C'
p122
as(I1
I3
tp123
(lp124
g30
ag31
as(I4
I6
tp125
(lp126
g30
ag31
as(I4
I5
tp127
(lp128
g28
as(I7
I8
tp129
(lp130
g28
ag30
as(I8
I10
tp131
(lp132
g29
ag31
as(I8
I9
tp133
(lp134
g30
as(I7
I11
tp135
(lp136
g29
ag31
as(I3
I7
tp137
(lp138
g31
as(I3
I4
tp139
(lp140
g28
ag30
assS'class_pred_'
p141
g26
sS'CLASSES'
p142
cnumpy.core.multiarray
_reconstruct
p143
(cnumpy
ndarray
p144
(I0
tp145
S'b'
p146
tp147
Rp148
(I1
(I4
tp149
cnumpy
dtype
p150
(S'O8'
p151
I0
I1
tp152
Rp153
(I3
S'|'
p154
NNNI-1
I-1
I63
tp155
bI00
(lp156
g28
ag29
ag31
ag30
atp157
bsS'TREE_LEAF'
p158
(dp159
I1
I00
sI2
I01
sI3
I00
sI4
I00
sI5
I01
sI6
I01
sI7
I00
sI8
I00
sI9
I01
sI10
I01
sI11
I01
ssS'num_pass_'
p160
(dp161
I1
I71
sI2
I8
sI3
I63
sI4
I21
sI5
I14
sI6
I7
sI7
I42
sI8
I29
sI9
I18
sI10
I11
sI11
I13
ssS'error'
p162
(dp163
I1
F45.070422535211264
sI2
F0.0
sI3
F38.09523809523809
sI4
F42.857142857142854
sI5
F14.285714285714285
sI6
F42.857142857142854
sI7
F21.428571428571427
sI8
F10.344827586206897
sI9
F0.0
sI10
F27.27272727272727
sI11
F46.15384615384615
ssS'pvalue'
p164
g45
sS'class_names'
p165
g148
sS'n_node_samples'
p166
g161
sb.