ccopy_reg
_reconstructor
p0
(cmlx
tree_
p1
c__builtin__
object
p2
Ntp3
Rp4
(dp5
S'decision_rules_'
p6
(dp7
I3
S'P4347 %in% c("A", "C", "G", "R") & P4347 %in% c("A", "C", "R", "NA")'
p8
sI5
S'P4347 %in% c("A", "C", "G", "R") & P4347 %in% c("G", "NA") & P987 %in% c("A", "C")'
p9
sI6
S'P4347 %in% c("A", "C", "G", "R") & P4347 %in% c("G", "NA") & P987 %in% c("G", "T")'
p10
sI7
S'P4347 %in% c("T")'
p11
ssS'significant_feature_weight_'
p12
(dp13
S'P4347'
p14
F1.1786716398798107
sS'P987'
p15
F0.5402672089902762
ssS'children_left'
p16
(dp17
I1
I2
sI2
I3
sI3
NsI4
I5
sI5
NsI6
NsI7
NssS'ACCx_'
p18
F0.8591549295774648
sS'ACC_'
p19
F0.9295774647887324
sS'value'
p20
(dp21
I1
(dp22
S'A'
p23
F1.0
sS'Y'
p24
F1.0
sS'C'
p25
F40.0
sS'T'
p26
F24.0
sS'G'
p27
F5.0
ssI2
(dp28
g23
F1.0
sg24
F1.0
sg25
F39.0
sg26
F23.0
sg27
F0.0
ssI3
(dp29
g23
F1.0
sg24
F1.0
sg25
F22.0
sg26
F1.0
sg27
F0.0
ssI4
(dp30
g23
F0.0
sg24
F0.0
sg25
F17.0
sg26
F22.0
sg27
F0.0
ssI5
(dp31
g23
F0.0
sg24
F0.0
sg25
F0.0
sg26
F22.0
sg27
F0.0
ssI6
(dp32
g23
F0.0
sg24
F0.0
sg25
F17.0
sg26
F0.0
sg27
F0.0
ssI7
(dp33
g23
F0.0
sg24
F0.0
sg25
F1.0
sg26
F1.0
sg27
F5.0
sssS'tprob_'
p34
(dp35
I3
F0.352112676056338
sI5
F0.30985915492957744
sI6
F0.23943661971830985
sI7
F0.09859154929577464
ssS'threshold'
p36
(dp37
I1
I0
sI2
I0
sI4
F0.000138063768230889
ssS'children'
p38
(dp39
I1
c__builtin__
set
p40
((lp41
I2
aI7
atp42
Rp43
sI2
g40
((lp44
I3
aI4
atp45
Rp46
sI3
g40
((lp47
tp48
Rp49
sI4
g40
((lp50
I5
aI6
atp51
Rp52
sI5
g40
((lp53
tp54
Rp55
sI6
g40
((lp56
tp57
Rp58
sI7
g40
((lp59
tp60
Rp61
ssS'children_right'
p62
(dp63
I1
I7
sI2
I4
sI3
NsI4
I6
sI5
NsI6
NsI7
NssS'feature'
p64
(dp65
I1
S'P4347'
p66
sI2
g14
sI3
S'3'
p67
sI4
g15
sI5
S'5'
p68
sI6
S'6'
p69
sI7
S'7'
p70
ssS'nodes'
p71
crpy2.robjects.robject
_reduce_robjectmixin
p72
(S'X\n\x00\x00\x00\x02\x00\x03\x05\x03\x00\x02\x03\x00\x00\x00\x00\r\x00\x00\x00\x07\x00\x00\x00\x01\x00\x00\x00\x02\x00\x00\x00\x03\x00\x00\x00\x04\x00\x00\x00\x05\x00\x00\x00\x06\x00\x00\x00\x07'
p73
I13
crpy2.rinterface._rinterface
unserialize
p74
crpy2.robjects.vectors
IntVector
p75
tp76
Rp77
(dp78
S'ro'
p79
g0
(crpy2.robjects.vectors
VectorOperationsDelegator
p80
g2
Ntp81
Rp82
(dp83
S'_parent'
p84
g77
sbsS'rx'
p85
g0
(crpy2.robjects.vectors
ExtractDelegator
p86
g2
Ntp87
Rp88
(dp89
g84
g77
sbsS'rx2'
p90
g0
(crpy2.robjects.vectors
DoubleExtractDelegator
p91
g2
Ntp92
Rp93
(dp94
g84
g77
sbsbsS'response_var_'
p95
S'P2403'
p96
sS'edge_cond_'
p97
(dp98
(I1
I2
tp99
(lp100
g23
ag25
aS'R'
p101
ag27
as(I4
I6
tp102
(lp103
g26
ag27
as(I4
I5
tp104
(lp105
g23
ag25
as(I2
I3
tp106
(lp107
g23
ag25
ag101
as(I1
I7
tp108
(lp109
S'T'
p110
as(I2
I4
tp111
(lp112
g27
assS'class_pred_'
p113
g21
sS'CLASSES'
p114
cnumpy.core.multiarray
_reconstruct
p115
(cnumpy
ndarray
p116
(I0
tp117
S'b'
p118
tp119
Rp120
(I1
(I5
tp121
cnumpy
dtype
p122
(S'O8'
p123
I0
I1
tp124
Rp125
(I3
S'|'
p126
NNNI-1
I-1
I63
tp127
bI00
(lp128
g23
ag25
ag27
ag26
ag24
atp129
bsS'TREE_LEAF'
p130
(dp131
I1
I00
sI2
I00
sI3
I01
sI4
I00
sI5
I01
sI6
I01
sI7
I01
ssS'num_pass_'
p132
(dp133
I1
I71
sI2
I64
sI3
I25
sI4
I39
sI5
I22
sI6
I17
sI7
I7
ssS'error'
p134
(dp135
I1
F43.66197183098591
sI2
F39.0625
sI3
F12.0
sI4
F43.58974358974359
sI5
F0.0
sI6
F0.0
sI7
F28.57142857142857
ssS'pvalue'
p136
g37
sS'class_names'
p137
g120
sS'n_node_samples'
p138
g133
sb.