ccopy_reg
_reconstructor
p0
(cmlx
tree_
p1
c__builtin__
object
p2
Ntp3
Rp4
(dp5
S'decision_rules_'
p6
(dp7
I2
S'P2249 %in% c("A")'
p8
sI4
S'P2249 %in% c("G", "T") & P3853 %in% c("A", "G")'
p9
sI6
S'P2249 %in% c("G", "T") & P3853 %in% c("C", "T", "Y") & P3062 %in% c("A", "NA", "NA")'
p10
sI7
S'P2249 %in% c("G", "T") & P3853 %in% c("C", "T", "Y") & P3062 %in% c("NA", "G", "NA")'
p11
ssS'significant_feature_weight_'
p12
(dp13
S'P3062'
p14
F0.4893359761735986
sS'P3853'
p15
F0.2738132591832596
sS'P2249'
p16
F0.8711927830051287
ssS'children_left'
p17
(dp18
I1
I2
sI2
NsI3
I4
sI4
NsI5
I6
sI6
NsI7
NssS'ACCx_'
p19
F0.8169014084507042
sS'ACC_'
p20
F0.9436619718309859
sS'value'
p21
(dp22
I1
(dp23
S'A'
p24
F6.0
sS'C'
p25
F18.0
sS'T'
p26
F18.0
sS'G'
p27
F29.0
ssI2
(dp28
g24
F0.0
sg25
F0.0
sg26
F0.0
sg27
F29.0
ssI3
(dp29
g24
F6.0
sg25
F18.0
sg26
F18.0
sg27
F0.0
ssI4
(dp30
g24
F6.0
sg25
F0.0
sg26
F1.0
sg27
F0.0
ssI5
(dp31
g24
F0.0
sg25
F18.0
sg26
F17.0
sg27
F0.0
ssI6
(dp32
g24
F0.0
sg25
F1.0
sg26
F15.0
sg27
F0.0
ssI7
(dp33
g24
F0.0
sg25
F17.0
sg26
F2.0
sg27
F0.0
sssS'tprob_'
p34
(dp35
I2
F0.4084507042253521
sI4
F0.09859154929577464
sI6
F0.22535211267605634
sI7
F0.2676056338028169
ssS'threshold'
p36
(dp37
I1
I0
sI3
F1.3387073287685101e-06
sI5
F0.00642328343390342
ssS'children'
p38
(dp39
I1
c__builtin__
set
p40
((lp41
I2
aI3
atp42
Rp43
sI2
g40
((lp44
tp45
Rp46
sI3
g40
((lp47
I4
aI5
atp48
Rp49
sI4
g40
((lp50
tp51
Rp52
sI5
g40
((lp53
I6
aI7
atp54
Rp55
sI6
g40
((lp56
tp57
Rp58
sI7
g40
((lp59
tp60
Rp61
ssS'children_right'
p62
(dp63
I1
I3
sI2
NsI3
I5
sI4
NsI5
I7
sI6
NsI7
NssS'feature'
p64
(dp65
I1
g16
sI2
S'2'
p66
sI3
g15
sI4
S'4'
p67
sI5
g14
sI6
S'6'
p68
sI7
S'7'
p69
ssS'nodes'
p70
crpy2.robjects.robject
_reduce_robjectmixin
p71
(S'X\n\x00\x00\x00\x02\x00\x03\x05\x03\x00\x02\x03\x00\x00\x00\x00\r\x00\x00\x00\x07\x00\x00\x00\x01\x00\x00\x00\x02\x00\x00\x00\x03\x00\x00\x00\x04\x00\x00\x00\x05\x00\x00\x00\x06\x00\x00\x00\x07'
p72
I13
crpy2.rinterface._rinterface
unserialize
p73
crpy2.robjects.vectors
IntVector
p74
tp75
Rp76
(dp77
S'ro'
p78
g0
(crpy2.robjects.vectors
VectorOperationsDelegator
p79
g2
Ntp80
Rp81
(dp82
S'_parent'
p83
g76
sbsS'rx'
p84
g0
(crpy2.robjects.vectors
ExtractDelegator
p85
g2
Ntp86
Rp87
(dp88
g83
g76
sbsS'rx2'
p89
g0
(crpy2.robjects.vectors
DoubleExtractDelegator
p90
g2
Ntp91
Rp92
(dp93
g83
g76
sbsbsS'response_var_'
p94
S'P2463'
p95
sS'edge_cond_'
p96
(dp97
(I1
I2
tp98
(lp99
S'A'
p100
as(I1
I3
tp101
(lp102
g26
ag27
as(I5
I6
tp103
(lp104
g24
as(I5
I7
tp105
(lp106
g27
as(I3
I4
tp107
(lp108
g24
ag27
as(I3
I5
tp109
(lp110
S'Y'
p111
ag25
ag26
assS'class_pred_'
p112
g22
sS'CLASSES'
p113
cnumpy.core.multiarray
_reconstruct
p114
(cnumpy
ndarray
p115
(I0
tp116
S'b'
p117
tp118
Rp119
(I1
(I4
tp120
cnumpy
dtype
p121
(S'O8'
p122
I0
I1
tp123
Rp124
(I3
S'|'
p125
NNNI-1
I-1
I63
tp126
bI00
(lp127
g24
ag25
ag27
ag26
atp128
bsS'TREE_LEAF'
p129
(dp130
I1
I00
sI2
I01
sI3
I00
sI4
I01
sI5
I00
sI6
I01
sI7
I01
ssS'num_pass_'
p131
(dp132
I1
I71
sI2
I29
sI3
I42
sI4
I7
sI5
I35
sI6
I16
sI7
I19
ssS'error'
p133
(dp134
I1
F59.154929577464785
sI2
F0.0
sI3
F57.14285714285714
sI4
F14.285714285714285
sI5
F48.57142857142857
sI6
F6.25
sI7
F10.526315789473683
ssS'pvalue'
p135
g37
sS'class_names'
p136
g119
sS'n_node_samples'
p137
g132
sb.