ccopy_reg
_reconstructor
p0
(cmlx
tree_
p1
c__builtin__
object
p2
Ntp3
Rp4
(dp5
S'decision_rules_'
p6
(dp7
I3
S'P1885 %in% c("A", "T") & P1476 %in% c("A", "NA")'
p8
sI4
S'P1885 %in% c("A", "T") & P1476 %in% c("C", "NA", "T")'
p9
sI6
S'P1885 %in% c("C", "G") & P3954 %in% c("A", "NA")'
p10
sI7
S'P1885 %in% c("C", "G") & P3954 %in% c("NA", "G", "T")'
p11
ssS'significant_feature_weight_'
p12
(dp13
S'P1885'
p14
F0.928387206345452
sS'P1476'
p15
F0.0
sS'P3954'
p16
F0.35752974130115
ssS'children_left'
p17
(dp18
I1
I2
sI2
I3
sI3
NsI4
NsI5
I6
sI6
NsI7
NssS'ACCx_'
p19
F0.8169014084507042
sS'ACC_'
p20
F0.8873239436619719
sS'value'
p21
(dp22
I1
(dp23
S'A'
p24
F48.0
sS'C'
p25
F4.0
sS'G'
p26
F19.0
ssI2
(dp27
g24
F42.0
sg25
F0.0
sg26
F3.0
ssI3
(dp28
g24
F37.0
sg25
F0.0
sg26
F0.0
ssI4
(dp29
g24
F5.0
sg25
F0.0
sg26
F3.0
ssI5
(dp30
g24
F6.0
sg25
F4.0
sg26
F16.0
ssI6
(dp31
g24
F0.0
sg25
F0.0
sg26
F15.0
ssI7
(dp32
g24
F6.0
sg25
F4.0
sg26
F1.0
sssS'tprob_'
p33
(dp34
I3
F0.5211267605633803
sI4
F0.11267605633802817
sI6
F0.2112676056338028
sI7
F0.15492957746478872
ssS'threshold'
p35
(dp36
I1
F2.2204460492503099e-16
sI2
F1.36265423511528e-06
sI5
F1.8609668869684602e-05
ssS'children'
p37
(dp38
I1
c__builtin__
set
p39
((lp40
I2
aI5
atp41
Rp42
sI2
g39
((lp43
I3
aI4
atp44
Rp45
sI3
g39
((lp46
tp47
Rp48
sI4
g39
((lp49
tp50
Rp51
sI5
g39
((lp52
I6
aI7
atp53
Rp54
sI6
g39
((lp55
tp56
Rp57
sI7
g39
((lp58
tp59
Rp60
ssS'children_right'
p61
(dp62
I1
I5
sI2
I4
sI3
NsI4
NsI5
I7
sI6
NsI7
NssS'feature'
p63
(dp64
I1
g14
sI2
g15
sI3
S'3'
p65
sI4
S'4'
p66
sI5
g16
sI6
S'6'
p67
sI7
S'7'
p68
ssS'nodes'
p69
crpy2.robjects.robject
_reduce_robjectmixin
p70
(S'X\n\x00\x00\x00\x02\x00\x03\x05\x03\x00\x02\x03\x00\x00\x00\x00\r\x00\x00\x00\x07\x00\x00\x00\x01\x00\x00\x00\x02\x00\x00\x00\x03\x00\x00\x00\x04\x00\x00\x00\x05\x00\x00\x00\x06\x00\x00\x00\x07'
p71
I13
crpy2.rinterface._rinterface
unserialize
p72
crpy2.robjects.vectors
IntVector
p73
tp74
Rp75
(dp76
S'ro'
p77
g0
(crpy2.robjects.vectors
VectorOperationsDelegator
p78
g2
Ntp79
Rp80
(dp81
S'_parent'
p82
g75
sbsS'rx'
p83
g0
(crpy2.robjects.vectors
ExtractDelegator
p84
g2
Ntp85
Rp86
(dp87
g82
g75
sbsS'rx2'
p88
g0
(crpy2.robjects.vectors
DoubleExtractDelegator
p89
g2
Ntp90
Rp91
(dp92
g82
g75
sbsbsS'response_var_'
p93
S'P409'
p94
sS'edge_cond_'
p95
(dp96
(I1
I2
tp97
(lp98
g24
aS'T'
p99
as(I5
I6
tp100
(lp101
g24
as(I5
I7
tp102
(lp103
g99
ag26
as(I1
I5
tp104
(lp105
g25
ag26
as(I2
I3
tp106
(lp107
g24
as(I2
I4
tp108
(lp109
g25
ag99
assS'class_pred_'
p110
g22
sS'CLASSES'
p111
cnumpy.core.multiarray
_reconstruct
p112
(cnumpy
ndarray
p113
(I0
tp114
S'b'
p115
tp116
Rp117
(I1
(I3
tp118
cnumpy
dtype
p119
(S'O8'
p120
I0
I1
tp121
Rp122
(I3
S'|'
p123
NNNI-1
I-1
I63
tp124
bI00
(lp125
g24
ag25
ag26
atp126
bsS'TREE_LEAF'
p127
(dp128
I1
I00
sI2
I00
sI3
I01
sI4
I01
sI5
I00
sI6
I01
sI7
I01
ssS'num_pass_'
p129
(dp130
I1
I71
sI2
I45
sI3
I37
sI4
I8
sI5
I26
sI6
I15
sI7
I11
ssS'error'
p131
(dp132
I1
F32.394366197183096
sI2
F6.666666666666667
sI3
F0.0
sI4
F37.5
sI5
F38.46153846153846
sI6
F0.0
sI7
F45.45454545454546
ssS'pvalue'
p133
g36
sS'class_names'
p134
g117
sS'n_node_samples'
p135
g130
sb.