ccopy_reg
_reconstructor
p0
(cmlx
tree_
p1
c__builtin__
object
p2
Ntp3
Rp4
(dp5
S'decision_rules_'
p6
(dp7
I4
S'P575 %in% c("A", "C", "G") & P4695 %in% c("A", "C", "G") & P4882 %in% c("A", "C")'
p8
sI5
S'P575 %in% c("A", "C", "G") & P4695 %in% c("A", "C", "G") & P4882 %in% c("G", "T")'
p9
sI6
S'P575 %in% c("A", "C", "G") & P4695 %in% c("T")'
p10
sI7
S'P575 %in% c("T")'
p11
ssS'significant_feature_weight_'
p12
(dp13
S'P575'
p14
F0.4840309366416459
sS'P4882'
p15
F0.4828973449081565
sS'P4695'
p16
F0.8404525287944815
ssS'children_left'
p17
(dp18
I1
I2
sI2
I3
sI3
I4
sI4
NsI5
NsI6
NsI7
NssS'ACCx_'
p19
F0.8450704225352113
sS'ACC_'
p20
F0.9577464788732395
sS'value'
p21
(dp22
I1
(dp23
S'A'
p24
F22.0
sS'C'
p25
F39.0
sS'T'
p26
F10.0
ssI2
(dp27
g24
F21.0
sg25
F39.0
sg26
F1.0
ssI3
(dp28
g24
F20.0
sg25
F14.0
sg26
F1.0
ssI4
(dp29
g24
F20.0
sg25
F0.0
sg26
F0.0
ssI5
(dp30
g24
F0.0
sg25
F14.0
sg26
F1.0
ssI6
(dp31
g24
F1.0
sg25
F25.0
sg26
F0.0
ssI7
(dp32
g24
F1.0
sg25
F0.0
sg26
F9.0
sssS'tprob_'
p33
(dp34
I4
F0.28169014084507044
sI5
F0.2112676056338028
sI6
F0.36619718309859156
sI7
F0.14084507042253522
ssS'threshold'
p35
(dp36
I1
F3.8821734715810397e-10
sI2
F1.2333356558258401e-11
sI3
F5.13230735688097e-09
ssS'children'
p37
(dp38
I1
c__builtin__
set
p39
((lp40
I2
aI7
atp41
Rp42
sI2
g39
((lp43
I3
aI6
atp44
Rp45
sI3
g39
((lp46
I4
aI5
atp47
Rp48
sI4
g39
((lp49
tp50
Rp51
sI5
g39
((lp52
tp53
Rp54
sI6
g39
((lp55
tp56
Rp57
sI7
g39
((lp58
tp59
Rp60
ssS'children_right'
p61
(dp62
I1
I7
sI2
I6
sI3
I5
sI4
NsI5
NsI6
NsI7
NssS'feature'
p63
(dp64
I1
g14
sI2
g16
sI3
g15
sI4
S'4'
p65
sI5
S'5'
p66
sI6
S'6'
p67
sI7
S'7'
p68
ssS'nodes'
p69
crpy2.robjects.robject
_reduce_robjectmixin
p70
(S'X\n\x00\x00\x00\x02\x00\x03\x05\x03\x00\x02\x03\x00\x00\x00\x00\r\x00\x00\x00\x07\x00\x00\x00\x01\x00\x00\x00\x02\x00\x00\x00\x03\x00\x00\x00\x04\x00\x00\x00\x05\x00\x00\x00\x06\x00\x00\x00\x07'
p71
I13
crpy2.rinterface._rinterface
unserialize
p72
crpy2.robjects.vectors
IntVector
p73
tp74
Rp75
(dp76
S'ro'
p77
g0
(crpy2.robjects.vectors
VectorOperationsDelegator
p78
g2
Ntp79
Rp80
(dp81
S'_parent'
p82
g75
sbsS'rx'
p83
g0
(crpy2.robjects.vectors
ExtractDelegator
p84
g2
Ntp85
Rp86
(dp87
g82
g75
sbsS'rx2'
p88
g0
(crpy2.robjects.vectors
DoubleExtractDelegator
p89
g2
Ntp90
Rp91
(dp92
g82
g75
sbsbsS'response_var_'
p93
S'P237'
p94
sS'edge_cond_'
p95
(dp96
(I1
I2
tp97
(lp98
g24
ag25
aS'G'
p99
as(I2
I6
tp100
(lp101
S'T'
p102
as(I2
I3
tp103
(lp104
g24
ag25
ag99
as(I1
I7
tp105
(lp106
S'T'
p107
as(I3
I4
tp108
(lp109
g24
ag25
as(I3
I5
tp110
(lp111
g26
ag99
assS'class_pred_'
p112
g22
sS'CLASSES'
p113
cnumpy.core.multiarray
_reconstruct
p114
(cnumpy
ndarray
p115
(I0
tp116
S'b'
p117
tp118
Rp119
(I1
(I3
tp120
cnumpy
dtype
p121
(S'O8'
p122
I0
I1
tp123
Rp124
(I3
S'|'
p125
NNNI-1
I-1
I63
tp126
bI00
(lp127
g24
ag25
ag26
atp128
bsS'TREE_LEAF'
p129
(dp130
I1
I00
sI2
I00
sI3
I00
sI4
I01
sI5
I01
sI6
I01
sI7
I01
ssS'num_pass_'
p131
(dp132
I1
I71
sI2
I61
sI3
I35
sI4
I20
sI5
I15
sI6
I26
sI7
I10
ssS'error'
p133
(dp134
I1
F45.070422535211264
sI2
F36.0655737704918
sI3
F42.857142857142854
sI4
F0.0
sI5
F6.666666666666667
sI6
F3.8461538461538463
sI7
F10.0
ssS'pvalue'
p135
g36
sS'class_names'
p136
g119
sS'n_node_samples'
p137
g132
sb.