ccopy_reg
_reconstructor
p0
(cmlx
tree_
p1
c__builtin__
object
p2
Ntp3
Rp4
(dp5
S'decision_rules_'
p6
(dp7
I2
S'P167 %in% c("A", "G", "Y")'
p8
sI4
S'P167 %in% c("C", "T") & P2655 %in% c("A")'
p9
sI5
S'P167 %in% c("C", "T") & P2655 %in% c("C", "G", "T")'
p10
ssS'significant_feature_weight_'
p11
(dp12
S'P167'
p13
F0.2853535896496085
sS'P2655'
p14
F0.31277348194483495
ssS'children_left'
p15
(dp16
I1
I2
sI2
NsI3
I4
sI4
NsI5
NssS'ACCx_'
p17
F0.47887323943661975
sS'ACC_'
p18
F0.8873239436619719
sS'value'
p19
(dp20
I1
(dp21
S'A'
p22
F1.0
sS'Y'
p23
F1.0
sS'C'
p24
F9.0
sS'T'
p25
F53.0
sS'G'
p26
F7.0
ssI2
(dp27
g22
F1.0
sg23
F1.0
sg24
F0.0
sg25
F0.0
sg26
F5.0
ssI3
(dp28
g22
F0.0
sg23
F0.0
sg24
F9.0
sg25
F53.0
sg26
F2.0
ssI4
(dp29
g22
F0.0
sg23
F0.0
sg24
F4.0
sg25
F53.0
sg26
F0.0
ssI5
(dp30
g22
F0.0
sg23
F0.0
sg24
F5.0
sg25
F0.0
sg26
F2.0
sssS'tprob_'
p31
(dp32
I2
F0.09859154929577464
sI4
F0.8028169014084507
sI5
F0.09859154929577464
ssS'threshold'
p33
(dp34
I1
I0
sI3
F1.04360964314765e-14
ssS'children'
p35
(dp36
I1
c__builtin__
set
p37
((lp38
I2
aI3
atp39
Rp40
sI2
g37
((lp41
tp42
Rp43
sI3
g37
((lp44
I4
aI5
atp45
Rp46
sI4
g37
((lp47
tp48
Rp49
sI5
g37
((lp50
tp51
Rp52
ssS'children_right'
p53
(dp54
I1
I3
sI2
NsI3
I5
sI4
NsI5
NssS'feature'
p55
(dp56
I1
g13
sI2
S'2'
p57
sI3
g14
sI4
S'4'
p58
sI5
S'5'
p59
ssS'nodes'
p60
crpy2.robjects.robject
_reduce_robjectmixin
p61
(S'X\n\x00\x00\x00\x02\x00\x03\x05\x03\x00\x02\x03\x00\x00\x00\x00\r\x00\x00\x00\x05\x00\x00\x00\x01\x00\x00\x00\x02\x00\x00\x00\x03\x00\x00\x00\x04\x00\x00\x00\x05'
p62
I13
crpy2.rinterface._rinterface
unserialize
p63
crpy2.robjects.vectors
IntVector
p64
tp65
Rp66
(dp67
S'ro'
p68
g0
(crpy2.robjects.vectors
VectorOperationsDelegator
p69
g2
Ntp70
Rp71
(dp72
S'_parent'
p73
g66
sbsS'rx'
p74
g0
(crpy2.robjects.vectors
ExtractDelegator
p75
g2
Ntp76
Rp77
(dp78
g73
g66
sbsS'rx2'
p79
g0
(crpy2.robjects.vectors
DoubleExtractDelegator
p80
g2
Ntp81
Rp82
(dp83
g73
g66
sbsbsS'response_var_'
p84
S'P3027'
p85
sS'edge_cond_'
p86
(dp87
(I1
I2
tp88
(lp89
g22
ag23
ag26
as(I1
I3
tp90
(lp91
g24
ag25
as(I3
I4
tp92
(lp93
S'A'
p94
as(I3
I5
tp95
(lp96
g24
ag25
ag26
assS'class_pred_'
p97
g20
sS'CLASSES'
p98
cnumpy.core.multiarray
_reconstruct
p99
(cnumpy
ndarray
p100
(I0
tp101
S'b'
p102
tp103
Rp104
(I1
(I5
tp105
cnumpy
dtype
p106
(S'O8'
p107
I0
I1
tp108
Rp109
(I3
S'|'
p110
NNNI-1
I-1
I63
tp111
bI00
(lp112
g22
ag24
ag26
ag25
ag23
atp113
bsS'TREE_LEAF'
p114
(dp115
I1
I00
sI2
I01
sI3
I00
sI4
I01
sI5
I01
ssS'num_pass_'
p116
(dp117
I1
I71
sI2
I7
sI3
I64
sI4
I57
sI5
I7
ssS'error'
p118
(dp119
I1
F25.352112676056336
sI2
F28.57142857142857
sI3
F17.1875
sI4
F7.017543859649122
sI5
F28.57142857142857
ssS'pvalue'
p120
g34
sS'class_names'
p121
g104
sS'n_node_samples'
p122
g117
sb.