ccopy_reg
_reconstructor
p0
(cmlx
tree_
p1
c__builtin__
object
p2
Ntp3
Rp4
(dp5
S'decision_rules_'
p6
(dp7
I2
S'P3728 %in% c("A")'
p8
sI4
S'P3728 %in% c("C", "G", "N", "T") & P750 %in% c("A", "N", "T")'
p9
sI5
S'P3728 %in% c("C", "G", "N", "T") & P750 %in% c("C")'
p10
ssS'significant_feature_weight_'
p11
(dp12
S'P750'
p13
F0.25585809769445933
sS'P3728'
p14
F0.9012300029682456
ssS'children_left'
p15
(dp16
I1
I2
sI2
NsI3
I4
sI4
NsI5
NssS'ACCx_'
p17
F0.8169014084507042
sS'ACC_'
p18
F0.9014084507042254
sS'value'
p19
(dp20
I1
(dp21
S'A'
p22
F27.0
sS'C'
p23
F33.0
sS'G'
p24
F8.0
sS'N'
p25
F1.0
sS'R'
p26
F1.0
sS'T'
p27
F1.0
ssI2
(dp28
g22
F1.0
sg23
F33.0
sg24
F1.0
sg25
F0.0
sg26
F0.0
sg27
F0.0
ssI3
(dp29
g22
F26.0
sg23
F0.0
sg24
F7.0
sg25
F1.0
sg26
F1.0
sg27
F1.0
ssI4
(dp30
g22
F0.0
sg23
F0.0
sg24
F5.0
sg25
F1.0
sg26
F1.0
sg27
F0.0
ssI5
(dp31
g22
F26.0
sg23
F0.0
sg24
F2.0
sg25
F0.0
sg26
F0.0
sg27
F1.0
sssS'tprob_'
p32
(dp33
I2
F0.49295774647887325
sI4
F0.09859154929577464
sI5
F0.4084507042253521
ssS'threshold'
p34
(dp35
I1
I0
sI3
F5.58271207040661e-11
ssS'children'
p36
(dp37
I1
c__builtin__
set
p38
((lp39
I2
aI3
atp40
Rp41
sI2
g38
((lp42
tp43
Rp44
sI3
g38
((lp45
I4
aI5
atp46
Rp47
sI4
g38
((lp48
tp49
Rp50
sI5
g38
((lp51
tp52
Rp53
ssS'children_right'
p54
(dp55
I1
I3
sI2
NsI3
I5
sI4
NsI5
NssS'feature'
p56
(dp57
I1
g14
sI2
S'2'
p58
sI3
g13
sI4
S'4'
p59
sI5
S'5'
p60
ssS'nodes'
p61
crpy2.robjects.robject
_reduce_robjectmixin
p62
(S'X\n\x00\x00\x00\x02\x00\x03\x05\x03\x00\x02\x03\x00\x00\x00\x00\r\x00\x00\x00\x05\x00\x00\x00\x01\x00\x00\x00\x02\x00\x00\x00\x03\x00\x00\x00\x04\x00\x00\x00\x05'
p63
I13
crpy2.rinterface._rinterface
unserialize
p64
crpy2.robjects.vectors
IntVector
p65
tp66
Rp67
(dp68
S'ro'
p69
g0
(crpy2.robjects.vectors
VectorOperationsDelegator
p70
g2
Ntp71
Rp72
(dp73
S'_parent'
p74
g67
sbsS'rx'
p75
g0
(crpy2.robjects.vectors
ExtractDelegator
p76
g2
Ntp77
Rp78
(dp79
g74
g67
sbsS'rx2'
p80
g0
(crpy2.robjects.vectors
DoubleExtractDelegator
p81
g2
Ntp82
Rp83
(dp84
g74
g67
sbsbsS'response_var_'
p85
S'P1684'
p86
sS'edge_cond_'
p87
(dp88
(I1
I2
tp89
(lp90
S'A'
p91
as(I1
I3
tp92
(lp93
g23
ag27
ag24
ag25
as(I3
I4
tp94
(lp95
g22
ag27
ag25
as(I3
I5
tp96
(lp97
S'C'
p98
assS'class_pred_'
p99
g20
sS'CLASSES'
p100
cnumpy.core.multiarray
_reconstruct
p101
(cnumpy
ndarray
p102
(I0
tp103
S'b'
p104
tp105
Rp106
(I1
(I6
tp107
cnumpy
dtype
p108
(S'O8'
p109
I0
I1
tp110
Rp111
(I3
S'|'
p112
NNNI-1
I-1
I63
tp113
bI00
(lp114
g22
ag23
ag24
ag25
ag26
ag27
atp115
bsS'TREE_LEAF'
p116
(dp117
I1
I00
sI2
I01
sI3
I00
sI4
I01
sI5
I01
ssS'num_pass_'
p118
(dp119
I1
I71
sI2
I35
sI3
I36
sI4
I7
sI5
I29
ssS'error'
p120
(dp121
I1
F53.52112676056338
sI2
F5.714285714285714
sI3
F27.77777777777778
sI4
F28.57142857142857
sI5
F10.344827586206897
ssS'pvalue'
p122
g35
sS'class_names'
p123
g106
sS'n_node_samples'
p124
g119
sb.