ccopy_reg
_reconstructor
p0
(cmlx
tree_
p1
c__builtin__
object
p2
Ntp3
Rp4
(dp5
S'decision_rules_'
p6
(dp7
I2
S'P4023 %in% c("A", "G", "T", "Y")'
p8
sI4
S'P4023 %in% c("C") & P1221 %in% c("A")'
p9
sI5
S'P4023 %in% c("C") & P1221 %in% c("C", "T")'
p10
ssS'significant_feature_weight_'
p11
(dp12
S'P4023'
p13
F0.3999206427334255
sS'P1221'
p14
F0.0
ssS'children_left'
p15
(dp16
I1
I2
sI2
NsI3
I4
sI4
NsI5
NssS'ACCx_'
p17
F0.8591549295774648
sS'ACC_'
p18
F0.8732394366197183
sS'value'
p19
(dp20
I1
(dp21
S'A'
p22
F58.0
sS'C'
p23
F2.0
sS'R'
p24
F1.0
sS'T'
p25
F1.0
sS'G'
p26
F9.0
ssI2
(dp27
g22
F0.0
sg23
F2.0
sg24
F1.0
sg25
F1.0
sg26
F4.0
ssI3
(dp28
g22
F58.0
sg23
F0.0
sg24
F0.0
sg25
F0.0
sg26
F5.0
ssI4
(dp29
g22
F30.0
sg23
F0.0
sg24
F0.0
sg25
F0.0
sg26
F0.0
ssI5
(dp30
g22
F28.0
sg23
F0.0
sg24
F0.0
sg25
F0.0
sg26
F5.0
sssS'tprob_'
p31
(dp32
I2
F0.11267605633802817
sI4
F0.4225352112676056
sI5
F0.4647887323943662
ssS'threshold'
p33
(dp34
I1
I0
sI3
F4.60284343972717e-08
ssS'children'
p35
(dp36
I1
c__builtin__
set
p37
((lp38
I2
aI3
atp39
Rp40
sI2
g37
((lp41
tp42
Rp43
sI3
g37
((lp44
I4
aI5
atp45
Rp46
sI4
g37
((lp47
tp48
Rp49
sI5
g37
((lp50
tp51
Rp52
ssS'children_right'
p53
(dp54
I1
I3
sI2
NsI3
I5
sI4
NsI5
NssS'feature'
p55
(dp56
I1
g13
sI2
S'2'
p57
sI3
g14
sI4
S'4'
p58
sI5
S'5'
p59
ssS'nodes'
p60
crpy2.robjects.robject
_reduce_robjectmixin
p61
(S'X\n\x00\x00\x00\x02\x00\x03\x05\x03\x00\x02\x03\x00\x00\x00\x00\r\x00\x00\x00\x05\x00\x00\x00\x01\x00\x00\x00\x02\x00\x00\x00\x03\x00\x00\x00\x04\x00\x00\x00\x05'
p62
I13
crpy2.rinterface._rinterface
unserialize
p63
crpy2.robjects.vectors
IntVector
p64
tp65
Rp66
(dp67
S'ro'
p68
g0
(crpy2.robjects.vectors
VectorOperationsDelegator
p69
g2
Ntp70
Rp71
(dp72
S'_parent'
p73
g66
sbsS'rx'
p74
g0
(crpy2.robjects.vectors
ExtractDelegator
p75
g2
Ntp76
Rp77
(dp78
g73
g66
sbsS'rx2'
p79
g0
(crpy2.robjects.vectors
DoubleExtractDelegator
p80
g2
Ntp81
Rp82
(dp83
g73
g66
sbsbsS'response_var_'
p84
S'P1530'
p85
sS'edge_cond_'
p86
(dp87
(I1
I2
tp88
(lp89
g22
aS'Y'
p90
ag25
ag26
as(I1
I3
tp91
(lp92
S'C'
p93
as(I3
I4
tp94
(lp95
S'A'
p96
as(I3
I5
tp97
(lp98
g23
ag25
assS'class_pred_'
p99
g20
sS'CLASSES'
p100
cnumpy.core.multiarray
_reconstruct
p101
(cnumpy
ndarray
p102
(I0
tp103
S'b'
p104
tp105
Rp106
(I1
(I5
tp107
cnumpy
dtype
p108
(S'O8'
p109
I0
I1
tp110
Rp111
(I3
S'|'
p112
NNNI-1
I-1
I63
tp113
bI00
(lp114
g22
ag23
ag26
ag24
ag25
atp115
bsS'TREE_LEAF'
p116
(dp117
I1
I00
sI2
I01
sI3
I00
sI4
I01
sI5
I01
ssS'num_pass_'
p118
(dp119
I1
I71
sI2
I8
sI3
I63
sI4
I30
sI5
I33
ssS'error'
p120
(dp121
I1
F18.309859154929576
sI2
F50.0
sI3
F7.936507936507936
sI4
F0.0
sI5
F15.151515151515152
ssS'pvalue'
p122
g34
sS'class_names'
p123
g106
sS'n_node_samples'
p124
g119
sb.