ccopy_reg
_reconstructor
p0
(cmlx
tree_
p1
c__builtin__
object
p2
Ntp3
Rp4
(dp5
S'decision_rules_'
p6
(dp7
I3
S'P782 %in% c("A", "G", "N", "T") & P782 %in% c("A", "NA", "T")'
p8
sI5
S'P782 %in% c("A", "G", "N", "T") & P782 %in% c("NA", "G", "N") & P760 %in% c("A", "NA", "N", "NA")'
p9
sI6
S'P782 %in% c("A", "G", "N", "T") & P782 %in% c("NA", "G", "N") & P760 %in% c("NA", "G", "NA")'
p10
sI7
S'P782 %in% c("C")'
p11
ssS'significant_feature_weight_'
p12
(dp13
S'P782'
p14
F1.406466924930782
sS'P760'
p15
F0.4056337577765108
ssS'children_left'
p16
(dp17
I1
I2
sI2
I3
sI3
NsI4
I5
sI5
NsI6
NsI7
NssS'ACCx_'
p18
F0.8732394366197183
sS'ACC_'
p19
F0.8873239436619719
sS'value'
p20
(dp21
I1
(dp22
S'A'
p23
F28.0
sS'C'
p24
F29.0
sS'G'
p25
F1.0
sS'N'
p26
F1.0
sS'T'
p27
F11.0
sS'Y'
p28
F1.0
ssI2
(dp29
g23
F0.0
sg24
F28.0
sg25
F0.0
sg26
F1.0
sg27
F10.0
sg28
F1.0
ssI3
(dp30
g23
F0.0
sg24
F8.0
sg25
F0.0
sg26
F0.0
sg27
F1.0
sg28
F1.0
ssI4
(dp31
g23
F0.0
sg24
F20.0
sg25
F0.0
sg26
F1.0
sg27
F9.0
sg28
F0.0
ssI5
(dp32
g23
F0.0
sg24
F2.0
sg25
F0.0
sg26
F1.0
sg27
F9.0
sg28
F0.0
ssI6
(dp33
g23
F0.0
sg24
F18.0
sg25
F0.0
sg26
F0.0
sg27
F0.0
sg28
F0.0
ssI7
(dp34
g23
F28.0
sg24
F1.0
sg25
F1.0
sg26
F0.0
sg27
F1.0
sg28
F0.0
sssS'tprob_'
p35
(dp36
I3
F0.14084507042253522
sI5
F0.16901408450704225
sI6
F0.2535211267605634
sI7
F0.43661971830985913
ssS'threshold'
p37
(dp38
I1
I0
sI2
F1.01845942790391e-09
sI4
F1.48743510819394e-06
ssS'children'
p39
(dp40
I1
c__builtin__
set
p41
((lp42
I2
aI7
atp43
Rp44
sI2
g41
((lp45
I3
aI4
atp46
Rp47
sI3
g41
((lp48
tp49
Rp50
sI4
g41
((lp51
I5
aI6
atp52
Rp53
sI5
g41
((lp54
tp55
Rp56
sI6
g41
((lp57
tp58
Rp59
sI7
g41
((lp60
tp61
Rp62
ssS'children_right'
p63
(dp64
I1
I7
sI2
I4
sI3
NsI4
I6
sI5
NsI6
NsI7
NssS'feature'
p65
(dp66
I1
S'P782'
p67
sI2
g14
sI3
S'3'
p68
sI4
g15
sI5
S'5'
p69
sI6
S'6'
p70
sI7
S'7'
p71
ssS'nodes'
p72
crpy2.robjects.robject
_reduce_robjectmixin
p73
(S'X\n\x00\x00\x00\x02\x00\x03\x05\x03\x00\x02\x03\x00\x00\x00\x00\r\x00\x00\x00\x07\x00\x00\x00\x01\x00\x00\x00\x02\x00\x00\x00\x03\x00\x00\x00\x04\x00\x00\x00\x05\x00\x00\x00\x06\x00\x00\x00\x07'
p74
I13
crpy2.rinterface._rinterface
unserialize
p75
crpy2.robjects.vectors
IntVector
p76
tp77
Rp78
(dp79
S'ro'
p80
g0
(crpy2.robjects.vectors
VectorOperationsDelegator
p81
g2
Ntp82
Rp83
(dp84
S'_parent'
p85
g78
sbsS'rx'
p86
g0
(crpy2.robjects.vectors
ExtractDelegator
p87
g2
Ntp88
Rp89
(dp90
g85
g78
sbsS'rx2'
p91
g0
(crpy2.robjects.vectors
DoubleExtractDelegator
p92
g2
Ntp93
Rp94
(dp95
g85
g78
sbsbsS'response_var_'
p96
S'P783'
p97
sS'edge_cond_'
p98
(dp99
(I1
I2
tp100
(lp101
g23
ag27
ag25
ag26
as(I4
I6
tp102
(lp103
g25
as(I4
I5
tp104
(lp105
g23
ag26
as(I2
I3
tp106
(lp107
g23
ag27
as(I1
I7
tp108
(lp109
S'C'
p110
as(I2
I4
tp111
(lp112
g25
ag26
assS'class_pred_'
p113
g21
sS'CLASSES'
p114
cnumpy.core.multiarray
_reconstruct
p115
(cnumpy
ndarray
p116
(I0
tp117
S'b'
p118
tp119
Rp120
(I1
(I6
tp121
cnumpy
dtype
p122
(S'O8'
p123
I0
I1
tp124
Rp125
(I3
S'|'
p126
NNNI-1
I-1
I63
tp127
bI00
(lp128
g23
ag24
ag25
ag26
ag27
ag28
atp129
bsS'TREE_LEAF'
p130
(dp131
I1
I00
sI2
I00
sI3
I01
sI4
I00
sI5
I01
sI6
I01
sI7
I01
ssS'num_pass_'
p132
(dp133
I1
I71
sI2
I40
sI3
I10
sI4
I30
sI5
I12
sI6
I18
sI7
I31
ssS'error'
p134
(dp135
I1
F59.154929577464785
sI2
F30.0
sI3
F20.0
sI4
F33.333333333333336
sI5
F24.999999999999996
sI6
F0.0
sI7
F9.677419354838708
ssS'pvalue'
p136
g38
sS'class_names'
p137
g120
sS'n_node_samples'
p138
g133
sb.