ccopy_reg
_reconstructor
p0
(cmlx
tree_
p1
c__builtin__
object
p2
Ntp3
Rp4
(dp5
S'decision_rules_'
p6
(dp7
I2
S'P782 %in% c("A", "C", "N")'
p8
sI3
S'P782 %in% c("G", "T")'
p9
ssS'significant_feature_weight_'
p10
(dp11
S'P782'
p12
F0.9950406468010229
ssS'children_left'
p13
(dp14
I1
I2
sI2
NsI3
NssS'ACCx_'
p15
F0.8450704225352113
sS'ACC_'
p16
F0.9154929577464789
sS'value'
p17
(dp18
I1
(dp19
S'A'
p20
F37.0
sS'C'
p21
F31.0
sS'R'
p22
F1.0
sS'T'
p23
F1.0
sS'G'
p24
F1.0
ssI2
(dp25
g20
F1.0
sg21
F29.0
sg22
F1.0
sg23
F1.0
sg24
F1.0
ssI3
(dp26
g20
F36.0
sg21
F2.0
sg22
F0.0
sg23
F0.0
sg24
F0.0
sssS'tprob_'
p27
(dp28
I2
F0.4647887323943662
sI3
F0.5352112676056338
ssS'threshold'
p29
(dp30
I1
I0
ssS'children'
p31
(dp32
I1
c__builtin__
set
p33
((lp34
I2
aI3
atp35
Rp36
sI2
g33
((lp37
tp38
Rp39
sI3
g33
((lp40
tp41
Rp42
ssS'children_right'
p43
(dp44
I1
I3
sI2
NsI3
NssS'feature'
p45
(dp46
I1
g12
sI2
S'2'
p47
sI3
S'3'
p48
ssS'nodes'
p49
crpy2.robjects.robject
_reduce_robjectmixin
p50
(S'X\n\x00\x00\x00\x02\x00\x03\x05\x03\x00\x02\x03\x00\x00\x00\x00\r\x00\x00\x00\x03\x00\x00\x00\x01\x00\x00\x00\x02\x00\x00\x00\x03'
p51
I13
crpy2.rinterface._rinterface
unserialize
p52
crpy2.robjects.vectors
IntVector
p53
tp54
Rp55
(dp56
S'ro'
p57
g0
(crpy2.robjects.vectors
VectorOperationsDelegator
p58
g2
Ntp59
Rp60
(dp61
S'_parent'
p62
g55
sbsS'rx'
p63
g0
(crpy2.robjects.vectors
ExtractDelegator
p64
g2
Ntp65
Rp66
(dp67
g62
g55
sbsS'rx2'
p68
g0
(crpy2.robjects.vectors
DoubleExtractDelegator
p69
g2
Ntp70
Rp71
(dp72
g62
g55
sbsbsS'response_var_'
p73
S'P3924'
p74
sS'edge_cond_'
p75
(dp76
(I1
I2
tp77
(lp78
g20
ag21
aS'N'
p79
as(I1
I3
tp80
(lp81
g23
ag24
assS'class_pred_'
p82
g18
sS'CLASSES'
p83
cnumpy.core.multiarray
_reconstruct
p84
(cnumpy
ndarray
p85
(I0
tp86
S'b'
p87
tp88
Rp89
(I1
(I5
tp90
cnumpy
dtype
p91
(S'O8'
p92
I0
I1
tp93
Rp94
(I3
S'|'
p95
NNNI-1
I-1
I63
tp96
bI00
(lp97
g20
ag21
ag24
ag22
ag23
atp98
bsS'TREE_LEAF'
p99
(dp100
I1
I00
sI2
I01
sI3
I01
ssS'num_pass_'
p101
(dp102
I1
I71
sI2
I33
sI3
I38
ssS'error'
p103
(dp104
I1
F47.88732394366197
sI2
F12.121212121212121
sI3
F5.263157894736842
ssS'pvalue'
p105
g30
sS'class_names'
p106
g89
sS'n_node_samples'
p107
g102
sb.