ccopy_reg
_reconstructor
p0
(cmlx
tree_
p1
c__builtin__
object
p2
Ntp3
Rp4
(dp5
S'decision_rules_'
p6
(dp7
I2
S'P825 %in% c("A")'
p8
sI4
S'P825 %in% c("C", "G", "N", "T") & P797 %in% c("A", "G", "T")'
p9
sI6
S'P825 %in% c("C", "G", "N", "T") & P797 %in% c("C", "N") & P1690 %in% c("A", "C", "N", "T")'
p10
sI7
S'P825 %in% c("C", "G", "N", "T") & P797 %in% c("C", "N") & P1690 %in% c("G")'
p11
ssS'significant_feature_weight_'
p12
(dp13
S'P1690'
p14
F0.4603621354791092
sS'P797'
p15
F0.2738132591832596
sS'P825'
p16
F0.8711927830051287
ssS'children_left'
p17
(dp18
I1
I2
sI2
NsI3
I4
sI4
NsI5
I6
sI6
NsI7
NssS'ACCx_'
p19
F0.8450704225352113
sS'ACC_'
p20
F0.8591549295774648
sS'value'
p21
(dp22
I1
(dp23
S'A'
p24
F32.0
sS'C'
p25
F23.0
sS'T'
p26
F13.0
sS'G'
p27
F2.0
sS'N'
p28
F1.0
ssI2
(dp29
g24
F28.0
sg25
F0.0
sg26
F1.0
sg27
F0.0
sg28
F0.0
ssI3
(dp30
g24
F4.0
sg25
F23.0
sg26
F12.0
sg27
F2.0
sg28
F1.0
ssI4
(dp31
g24
F3.0
sg25
F2.0
sg26
F0.0
sg27
F2.0
sg28
F0.0
ssI5
(dp32
g24
F1.0
sg25
F21.0
sg26
F12.0
sg27
F0.0
sg28
F1.0
ssI6
(dp33
g24
F1.0
sg25
F1.0
sg26
F10.0
sg27
F0.0
sg28
F1.0
ssI7
(dp34
g24
F0.0
sg25
F20.0
sg26
F2.0
sg27
F0.0
sg28
F0.0
sssS'tprob_'
p35
(dp36
I2
F0.4084507042253521
sI4
F0.09859154929577464
sI6
F0.18309859154929578
sI7
F0.30985915492957744
ssS'threshold'
p37
(dp38
I1
I0
sI3
F5.36459765498876e-13
sI5
F1.58836499508652e-10
ssS'children'
p39
(dp40
I1
c__builtin__
set
p41
((lp42
I2
aI3
atp43
Rp44
sI2
g41
((lp45
tp46
Rp47
sI3
g41
((lp48
I4
aI5
atp49
Rp50
sI4
g41
((lp51
tp52
Rp53
sI5
g41
((lp54
I6
aI7
atp55
Rp56
sI6
g41
((lp57
tp58
Rp59
sI7
g41
((lp60
tp61
Rp62
ssS'children_right'
p63
(dp64
I1
I3
sI2
NsI3
I5
sI4
NsI5
I7
sI6
NsI7
NssS'feature'
p65
(dp66
I1
g16
sI2
S'2'
p67
sI3
g15
sI4
S'4'
p68
sI5
g14
sI6
S'6'
p69
sI7
S'7'
p70
ssS'nodes'
p71
crpy2.robjects.robject
_reduce_robjectmixin
p72
(S'X\n\x00\x00\x00\x02\x00\x03\x05\x03\x00\x02\x03\x00\x00\x00\x00\r\x00\x00\x00\x07\x00\x00\x00\x01\x00\x00\x00\x02\x00\x00\x00\x03\x00\x00\x00\x04\x00\x00\x00\x05\x00\x00\x00\x06\x00\x00\x00\x07'
p73
I13
crpy2.rinterface._rinterface
unserialize
p74
crpy2.robjects.vectors
IntVector
p75
tp76
Rp77
(dp78
S'ro'
p79
g0
(crpy2.robjects.vectors
VectorOperationsDelegator
p80
g2
Ntp81
Rp82
(dp83
S'_parent'
p84
g77
sbsS'rx'
p85
g0
(crpy2.robjects.vectors
ExtractDelegator
p86
g2
Ntp87
Rp88
(dp89
g84
g77
sbsS'rx2'
p90
g0
(crpy2.robjects.vectors
DoubleExtractDelegator
p91
g2
Ntp92
Rp93
(dp94
g84
g77
sbsbsS'response_var_'
p95
S'P739'
p96
sS'edge_cond_'
p97
(dp98
(I1
I2
tp99
(lp100
S'A'
p101
as(I1
I3
tp102
(lp103
g25
ag26
ag27
ag28
as(I5
I6
tp104
(lp105
g24
ag25
ag26
ag28
as(I5
I7
tp106
(lp107
S'G'
p108
as(I3
I4
tp109
(lp110
g24
ag26
ag27
as(I3
I5
tp111
(lp112
g25
ag28
assS'class_pred_'
p113
g22
sS'CLASSES'
p114
cnumpy.core.multiarray
_reconstruct
p115
(cnumpy
ndarray
p116
(I0
tp117
S'b'
p118
tp119
Rp120
(I1
(I5
tp121
cnumpy
dtype
p122
(S'O8'
p123
I0
I1
tp124
Rp125
(I3
S'|'
p126
NNNI-1
I-1
I63
tp127
bI00
(lp128
g24
ag25
ag27
ag28
ag26
atp129
bsS'TREE_LEAF'
p130
(dp131
I1
I00
sI2
I01
sI3
I00
sI4
I01
sI5
I00
sI6
I01
sI7
I01
ssS'num_pass_'
p132
(dp133
I1
I71
sI2
I29
sI3
I42
sI4
I7
sI5
I35
sI6
I13
sI7
I22
ssS'error'
p134
(dp135
I1
F54.92957746478874
sI2
F3.4482758620689653
sI3
F45.238095238095234
sI4
F57.14285714285714
sI5
F40.0
sI6
F23.076923076923077
sI7
F9.090909090909092
ssS'pvalue'
p136
g38
sS'class_names'
p137
g120
sS'n_node_samples'
p138
g133
sb.