ccopy_reg
_reconstructor
p0
(cmlx
tree_
p1
c__builtin__
object
p2
Ntp3
Rp4
(dp5
S'decision_rules_'
p6
(dp7
I2
S'P3637 %in% c("A")'
p8
sI4
S'P3637 %in% c("C", "G", "T") & P740 %in% c("A", "C", "NA", "NA")'
p9
sI5
S'P3637 %in% c("C", "G", "T") & P740 %in% c("NA", "NA", "T")'
p10
ssS'significant_feature_weight_'
p11
(dp12
S'P3637'
p13
F0.9012292208711784
sS'P740'
p14
F0.25234029199048
ssS'children_left'
p15
(dp16
I1
I2
sI2
NsI3
I4
sI4
NsI5
NssS'ACCx_'
p17
F0.7183098591549295
sS'ACC_'
p18
F0.9154929577464789
sS'value'
p19
(dp20
I1
(dp21
S'A'
p22
F33.0
sS'C'
p23
F4.0
sS'T'
p24
F31.0
sS'G'
p25
F3.0
ssI2
(dp26
g22
F33.0
sg23
F0.0
sg24
F3.0
sg25
F0.0
ssI3
(dp27
g22
F0.0
sg23
F4.0
sg24
F28.0
sg25
F3.0
ssI4
(dp28
g22
F0.0
sg23
F4.0
sg24
F0.0
sg25
F3.0
ssI5
(dp29
g22
F0.0
sg23
F0.0
sg24
F28.0
sg25
F0.0
sssS'tprob_'
p30
(dp31
I2
F0.5070422535211268
sI4
F0.09859154929577464
sI5
F0.39436619718309857
ssS'threshold'
p32
(dp33
I1
I0
sI3
F2.9303548476633497e-10
ssS'children'
p34
(dp35
I1
c__builtin__
set
p36
((lp37
I2
aI3
atp38
Rp39
sI2
g36
((lp40
tp41
Rp42
sI3
g36
((lp43
I4
aI5
atp44
Rp45
sI4
g36
((lp46
tp47
Rp48
sI5
g36
((lp49
tp50
Rp51
ssS'children_right'
p52
(dp53
I1
I3
sI2
NsI3
I5
sI4
NsI5
NssS'feature'
p54
(dp55
I1
g13
sI2
S'2'
p56
sI3
g14
sI4
S'4'
p57
sI5
S'5'
p58
ssS'nodes'
p59
crpy2.robjects.robject
_reduce_robjectmixin
p60
(S'X\n\x00\x00\x00\x02\x00\x03\x05\x03\x00\x02\x03\x00\x00\x00\x00\r\x00\x00\x00\x05\x00\x00\x00\x01\x00\x00\x00\x02\x00\x00\x00\x03\x00\x00\x00\x04\x00\x00\x00\x05'
p61
I13
crpy2.rinterface._rinterface
unserialize
p62
crpy2.robjects.vectors
IntVector
p63
tp64
Rp65
(dp66
S'ro'
p67
g0
(crpy2.robjects.vectors
VectorOperationsDelegator
p68
g2
Ntp69
Rp70
(dp71
S'_parent'
p72
g65
sbsS'rx'
p73
g0
(crpy2.robjects.vectors
ExtractDelegator
p74
g2
Ntp75
Rp76
(dp77
g72
g65
sbsS'rx2'
p78
g0
(crpy2.robjects.vectors
DoubleExtractDelegator
p79
g2
Ntp80
Rp81
(dp82
g72
g65
sbsbsS'response_var_'
p83
S'P3553'
p84
sS'edge_cond_'
p85
(dp86
(I1
I2
tp87
(lp88
S'A'
p89
as(I1
I3
tp90
(lp91
g23
ag24
ag25
as(I3
I4
tp92
(lp93
g22
ag23
as(I3
I5
tp94
(lp95
g24
assS'class_pred_'
p96
g20
sS'CLASSES'
p97
cnumpy.core.multiarray
_reconstruct
p98
(cnumpy
ndarray
p99
(I0
tp100
S'b'
p101
tp102
Rp103
(I1
(I4
tp104
cnumpy
dtype
p105
(S'O8'
p106
I0
I1
tp107
Rp108
(I3
S'|'
p109
NNNI-1
I-1
I63
tp110
bI00
(lp111
g22
ag23
ag25
ag24
atp112
bsS'TREE_LEAF'
p113
(dp114
I1
I00
sI2
I01
sI3
I00
sI4
I01
sI5
I01
ssS'num_pass_'
p115
(dp116
I1
I71
sI2
I36
sI3
I35
sI4
I7
sI5
I28
ssS'error'
p117
(dp118
I1
F53.52112676056338
sI2
F8.333333333333332
sI3
F20.0
sI4
F42.857142857142854
sI5
F0.0
ssS'pvalue'
p119
g33
sS'class_names'
p120
g103
sS'n_node_samples'
p121
g116
sb.