ccopy_reg
_reconstructor
p0
(cmlx
tree_
p1
c__builtin__
object
p2
Ntp3
Rp4
(dp5
S'decision_rules_'
p6
(dp7
I2
S'P4098 %in% c("A", "G", "T", "Y")'
p8
sI3
S'P4098 %in% c("C")'
p9
ssS'significant_feature_weight_'
p10
(dp11
S'P4098'
p12
F0.5982939774226246
ssS'children_left'
p13
(dp14
I1
I2
sI2
NsI3
NssS'ACCx_'
p15
F0.8591549295774648
sS'ACC_'
p16
F0.8873239436619719
sS'value'
p17
(dp18
I1
(dp19
S'A'
p20
F57.0
sS'C'
p21
F6.0
sS'T'
p22
F6.0
sS'G'
p23
F2.0
ssI2
(dp24
g20
F0.0
sg21
F5.0
sg22
F6.0
sg23
F2.0
ssI3
(dp25
g20
F57.0
sg21
F1.0
sg22
F0.0
sg23
F0.0
sssS'tprob_'
p26
(dp27
I2
F0.18309859154929578
sI3
F0.8169014084507042
ssS'threshold'
p28
(dp29
I1
I0
ssS'children'
p30
(dp31
I1
c__builtin__
set
p32
((lp33
I2
aI3
atp34
Rp35
sI2
g32
((lp36
tp37
Rp38
sI3
g32
((lp39
tp40
Rp41
ssS'children_right'
p42
(dp43
I1
I3
sI2
NsI3
NssS'feature'
p44
(dp45
I1
g12
sI2
S'2'
p46
sI3
S'3'
p47
ssS'nodes'
p48
crpy2.robjects.robject
_reduce_robjectmixin
p49
(S'X\n\x00\x00\x00\x02\x00\x03\x05\x03\x00\x02\x03\x00\x00\x00\x00\r\x00\x00\x00\x03\x00\x00\x00\x01\x00\x00\x00\x02\x00\x00\x00\x03'
p50
I13
crpy2.rinterface._rinterface
unserialize
p51
crpy2.robjects.vectors
IntVector
p52
tp53
Rp54
(dp55
S'ro'
p56
g0
(crpy2.robjects.vectors
VectorOperationsDelegator
p57
g2
Ntp58
Rp59
(dp60
S'_parent'
p61
g54
sbsS'rx'
p62
g0
(crpy2.robjects.vectors
ExtractDelegator
p63
g2
Ntp64
Rp65
(dp66
g61
g54
sbsS'rx2'
p67
g0
(crpy2.robjects.vectors
DoubleExtractDelegator
p68
g2
Ntp69
Rp70
(dp71
g61
g54
sbsbsS'response_var_'
p72
S'P1476'
p73
sS'edge_cond_'
p74
(dp75
(I1
I2
tp76
(lp77
g20
aS'Y'
p78
ag22
ag23
as(I1
I3
tp79
(lp80
S'C'
p81
assS'class_pred_'
p82
g18
sS'CLASSES'
p83
cnumpy.core.multiarray
_reconstruct
p84
(cnumpy
ndarray
p85
(I0
tp86
S'b'
p87
tp88
Rp89
(I1
(I4
tp90
cnumpy
dtype
p91
(S'O8'
p92
I0
I1
tp93
Rp94
(I3
S'|'
p95
NNNI-1
I-1
I63
tp96
bI00
(lp97
g20
ag21
ag23
ag22
atp98
bsS'TREE_LEAF'
p99
(dp100
I1
I00
sI2
I01
sI3
I01
ssS'num_pass_'
p101
(dp102
I1
I71
sI2
I13
sI3
I58
ssS'error'
p103
(dp104
I1
F19.718309859154928
sI2
F53.846153846153854
sI3
F1.7241379310344827
ssS'pvalue'
p105
g29
sS'class_names'
p106
g89
sS'n_node_samples'
p107
g102
sb.