ccopy_reg
_reconstructor
p0
(cmlx
tree_
p1
c__builtin__
object
p2
Ntp3
Rp4
(dp5
S'decision_rules_'
p6
(dp7
I8
S'P2370 %in% c("C") & P2457 %in% c("A", "T") & P4500 %in% c("NA", "T")'
p8
sI9
S'P2370 %in% c("C") & P2457 %in% c("C", "G")'
p9
sI3
S'P2370 %in% c("A", "T") & P751 %in% c("A", "NA", "NA", "T")'
p10
sI4
S'P2370 %in% c("A", "T") & P751 %in% c("C", "NA", "NA")'
p11
sI7
S'P2370 %in% c("C") & P2457 %in% c("A", "T") & P4500 %in% c("A", "NA", "G")'
p12
ssS'significant_feature_weight_'
p13
(dp14
S'P2457'
p15
F0.44600937032137844
sS'P4500'
p16
F0.0
sS'P2370'
p17
F0.8760166459875035
sS'P751'
p18
F0.31843227298637156
ssS'children_left'
p19
(dp20
I1
I2
sI2
I3
sI3
NsI4
NsI5
I9
sI6
I8
sI7
NsI8
NsI9
NssS'ACCx_'
p21
F0.47887323943661975
sS'ACC_'
p22
F0.8873239436619719
sS'value'
p23
(dp24
I1
(dp25
S'C'
p26
F48.0
sS'T'
p27
F21.0
sS'G'
p28
F2.0
ssI2
(dp29
g26
F7.0
sg27
F14.0
sg28
F2.0
ssI3
(dp30
g26
F7.0
sg27
F1.0
sg28
F2.0
ssI4
(dp31
g26
F0.0
sg27
F13.0
sg28
F0.0
ssI5
(dp32
g26
F41.0
sg27
F7.0
sg28
F0.0
ssI6
(dp33
g26
F37.0
sg27
F1.0
sg28
F0.0
ssI7
(dp34
g26
F10.0
sg27
F1.0
sg28
F0.0
ssI8
(dp35
g26
F27.0
sg27
F0.0
sg28
F0.0
ssI9
(dp36
g26
F4.0
sg27
F6.0
sg28
F0.0
sssS'tprob_'
p37
(dp38
I8
F0.38028169014084506
sI9
F0.14084507042253522
sI3
F0.14084507042253522
sI4
F0.18309859154929578
sI7
F0.15492957746478872
ssS'threshold'
p39
(dp40
I1
F1.0547118733939001e-14
sI2
F0.000224385319827491
sI5
F6.02303206586052e-05
sI6
F4.5123923692269606e-05
ssS'children'
p41
(dp42
I1
c__builtin__
set
p43
((lp44
I2
aI5
atp45
Rp46
sI2
g43
((lp47
I3
aI4
atp48
Rp49
sI3
g43
((lp50
tp51
Rp52
sI4
g43
((lp53
tp54
Rp55
sI5
g43
((lp56
I9
aI6
atp57
Rp58
sI6
g43
((lp59
I8
aI7
atp60
Rp61
sI7
g43
((lp62
tp63
Rp64
sI8
g43
((lp65
tp66
Rp67
sI9
g43
((lp68
tp69
Rp70
ssS'children_right'
p71
(dp72
I1
I5
sI2
I4
sI3
NsI4
NsI5
I6
sI6
I7
sI7
NsI8
NsI9
NssS'feature'
p73
(dp74
I1
g17
sI2
g18
sI3
S'3'
p75
sI4
S'4'
p76
sI5
g15
sI6
g16
sI7
S'7'
p77
sI8
S'8'
p78
sI9
S'9'
p79
ssS'nodes'
p80
crpy2.robjects.robject
_reduce_robjectmixin
p81
(S'X\n\x00\x00\x00\x02\x00\x03\x05\x03\x00\x02\x03\x00\x00\x00\x00\r\x00\x00\x00\t\x00\x00\x00\x01\x00\x00\x00\x02\x00\x00\x00\x03\x00\x00\x00\x04\x00\x00\x00\x05\x00\x00\x00\x06\x00\x00\x00\x07\x00\x00\x00\x08\x00\x00\x00\t'
p82
I13
crpy2.rinterface._rinterface
unserialize
p83
crpy2.robjects.vectors
IntVector
p84
tp85
Rp86
(dp87
S'ro'
p88
g0
(crpy2.robjects.vectors
VectorOperationsDelegator
p89
g2
Ntp90
Rp91
(dp92
S'_parent'
p93
g86
sbsS'rx'
p94
g0
(crpy2.robjects.vectors
ExtractDelegator
p95
g2
Ntp96
Rp97
(dp98
g93
g86
sbsS'rx2'
p99
g0
(crpy2.robjects.vectors
DoubleExtractDelegator
p100
g2
Ntp101
Rp102
(dp103
g93
g86
sbsbsS'response_var_'
p104
S'P4092'
p105
sS'edge_cond_'
p106
(dp107
(I1
I2
tp108
(lp109
S'A'
p110
ag27
as(I5
I9
tp111
(lp112
g26
ag28
as(I6
I7
tp113
(lp114
g110
ag28
as(I6
I8
tp115
(lp116
g27
as(I5
I6
tp117
(lp118
g110
ag27
as(I1
I5
tp119
(lp120
S'C'
p121
as(I2
I3
tp122
(lp123
g110
ag27
as(I2
I4
tp124
(lp125
g26
assS'class_pred_'
p126
g24
sS'CLASSES'
p127
cnumpy.core.multiarray
_reconstruct
p128
(cnumpy
ndarray
p129
(I0
tp130
S'b'
p131
tp132
Rp133
(I1
(I3
tp134
cnumpy
dtype
p135
(S'O8'
p136
I0
I1
tp137
Rp138
(I3
S'|'
p139
NNNI-1
I-1
I63
tp140
bI00
(lp141
g26
ag28
ag27
atp142
bsS'TREE_LEAF'
p143
(dp144
I1
I00
sI2
I00
sI3
I01
sI4
I01
sI5
I00
sI6
I00
sI7
I01
sI8
I01
sI9
I01
ssS'num_pass_'
p145
(dp146
I1
I71
sI2
I23
sI3
I10
sI4
I13
sI5
I48
sI6
I38
sI7
I11
sI8
I27
sI9
I10
ssS'error'
p147
(dp148
I1
F32.394366197183096
sI2
F39.1304347826087
sI3
F30.0
sI4
F0.0
sI5
F14.583333333333334
sI6
F2.631578947368421
sI7
F9.090909090909092
sI8
F0.0
sI9
F40.0
ssS'pvalue'
p149
g40
sS'class_names'
p150
g133
sS'n_node_samples'
p151
g146
sb.