ccopy_reg
_reconstructor
p0
(cmlx
tree_
p1
c__builtin__
object
p2
Ntp3
Rp4
(dp5
S'decision_rules_'
p6
(dp7
I8
S'P2534 %in% c("C", "T") & P861 %in% c("A", "C", "T") & P3948 %in% c("NA", "G", "T")'
p8
sI9
S'P2534 %in% c("C", "T") & P861 %in% c("G")'
p9
sI2
S'P2534 %in% c("A", "G")'
p10
sI6
S'P2534 %in% c("C", "T") & P861 %in% c("A", "C", "T") & P3948 %in% c("A", "NA") & P2574 %in% c("A", "NA")'
p11
sI7
S'P2534 %in% c("C", "T") & P861 %in% c("A", "C", "T") & P3948 %in% c("A", "NA") & P2574 %in% c("NA", "G", "T")'
p12
ssS'significant_feature_weight_'
p13
(dp14
S'P3948'
p15
F0.0
sS'P2534'
p16
F0.2853535896496085
sS'P2574'
p17
F0.0
sS'P861'
p18
F0.6021203614192466
ssS'children_left'
p19
(dp20
I1
I2
sI2
NsI3
I9
sI4
I8
sI5
I6
sI6
NsI7
NsI8
NsI9
NssS'ACCx_'
p21
F0.8873239436619719
sS'ACC_'
p22
F0.8873239436619719
sS'value'
p23
(dp24
I1
(dp25
S'A'
p26
F3.0
sS'C'
p27
F19.0
sS'T'
p28
F45.0
sS'G'
p29
F4.0
ssI2
(dp30
g26
F3.0
sg27
F0.0
sg28
F0.0
sg29
F4.0
ssI3
(dp31
g26
F0.0
sg27
F19.0
sg28
F45.0
sg29
F0.0
ssI4
(dp32
g26
F0.0
sg27
F4.0
sg28
F44.0
sg29
F0.0
ssI5
(dp33
g26
F0.0
sg27
F1.0
sg28
F40.0
sg29
F0.0
ssI6
(dp34
g26
F0.0
sg27
F0.0
sg28
F27.0
sg29
F0.0
ssI7
(dp35
g26
F0.0
sg27
F1.0
sg28
F13.0
sg29
F0.0
ssI8
(dp36
g26
F0.0
sg27
F3.0
sg28
F4.0
sg29
F0.0
ssI9
(dp37
g26
F0.0
sg27
F15.0
sg28
F1.0
sg29
F0.0
sssS'tprob_'
p38
(dp39
I8
F0.09859154929577464
sI9
F0.22535211267605634
sI2
F0.09859154929577464
sI6
F0.38028169014084506
sI7
F0.19718309859154928
ssS'threshold'
p40
(dp41
I1
I0
sI3
F2.0605982101740102e-05
sI4
F0.00015792619267851498
sI5
F1.00686847664955e-05
ssS'children'
p42
(dp43
I1
c__builtin__
set
p44
((lp45
I2
aI3
atp46
Rp47
sI2
g44
((lp48
tp49
Rp50
sI3
g44
((lp51
I9
aI4
atp52
Rp53
sI4
g44
((lp54
I8
aI5
atp55
Rp56
sI5
g44
((lp57
I6
aI7
atp58
Rp59
sI6
g44
((lp60
tp61
Rp62
sI7
g44
((lp63
tp64
Rp65
sI8
g44
((lp66
tp67
Rp68
sI9
g44
((lp69
tp70
Rp71
ssS'children_right'
p72
(dp73
I1
I3
sI2
NsI3
I4
sI4
I5
sI5
I7
sI6
NsI7
NsI8
NsI9
NssS'feature'
p74
(dp75
I1
g16
sI2
S'2'
p76
sI3
g18
sI4
g15
sI5
g17
sI6
S'6'
p77
sI7
S'7'
p78
sI8
S'8'
p79
sI9
S'9'
p80
ssS'nodes'
p81
crpy2.robjects.robject
_reduce_robjectmixin
p82
(S'X\n\x00\x00\x00\x02\x00\x03\x05\x03\x00\x02\x03\x00\x00\x00\x00\r\x00\x00\x00\t\x00\x00\x00\x01\x00\x00\x00\x02\x00\x00\x00\x03\x00\x00\x00\x04\x00\x00\x00\x05\x00\x00\x00\x06\x00\x00\x00\x07\x00\x00\x00\x08\x00\x00\x00\t'
p83
I13
crpy2.rinterface._rinterface
unserialize
p84
crpy2.robjects.vectors
IntVector
p85
tp86
Rp87
(dp88
S'ro'
p89
g0
(crpy2.robjects.vectors
VectorOperationsDelegator
p90
g2
Ntp91
Rp92
(dp93
S'_parent'
p94
g87
sbsS'rx'
p95
g0
(crpy2.robjects.vectors
ExtractDelegator
p96
g2
Ntp97
Rp98
(dp99
g94
g87
sbsS'rx2'
p100
g0
(crpy2.robjects.vectors
DoubleExtractDelegator
p101
g2
Ntp102
Rp103
(dp104
g94
g87
sbsbsS'response_var_'
p105
S'P56'
p106
sS'edge_cond_'
p107
(dp108
(I1
I2
tp109
(lp110
g26
ag29
as(I1
I3
tp111
(lp112
g27
ag28
as(I4
I8
tp113
(lp114
g28
ag29
as(I4
I5
tp115
(lp116
g26
as(I5
I7
tp117
(lp118
g28
ag29
as(I5
I6
tp119
(lp120
g26
as(I3
I9
tp121
(lp122
S'G'
p123
as(I3
I4
tp124
(lp125
g26
ag27
ag28
assS'class_pred_'
p126
g24
sS'CLASSES'
p127
cnumpy.core.multiarray
_reconstruct
p128
(cnumpy
ndarray
p129
(I0
tp130
S'b'
p131
tp132
Rp133
(I1
(I4
tp134
cnumpy
dtype
p135
(S'O8'
p136
I0
I1
tp137
Rp138
(I3
S'|'
p139
NNNI-1
I-1
I63
tp140
bI00
(lp141
g26
ag27
ag29
ag28
atp142
bsS'TREE_LEAF'
p143
(dp144
I1
I00
sI2
I01
sI3
I00
sI4
I00
sI5
I00
sI6
I01
sI7
I01
sI8
I01
sI9
I01
ssS'num_pass_'
p145
(dp146
I1
I71
sI2
I7
sI3
I64
sI4
I48
sI5
I41
sI6
I27
sI7
I14
sI8
I7
sI9
I16
ssS'error'
p147
(dp148
I1
F36.61971830985915
sI2
F42.857142857142854
sI3
F29.6875
sI4
F8.333333333333332
sI5
F2.4390243902439024
sI6
F0.0
sI7
F7.142857142857142
sI8
F42.857142857142854
sI9
F6.25
ssS'pvalue'
p149
g41
sS'class_names'
p150
g133
sS'n_node_samples'
p151
g146
sb.