ccopy_reg
_reconstructor
p0
(cmlx
tree_
p1
c__builtin__
object
p2
Ntp3
Rp4
(dp5
S'decision_rules_'
p6
(dp7
I4
S'P1050 %in% c("A", "C", "T") & P1050 %in% c("A", "NA", "T") & P4628 %in% c("A", "C")'
p8
sI5
S'P1050 %in% c("A", "C", "T") & P1050 %in% c("A", "NA", "T") & P4628 %in% c("T")'
p9
sI6
S'P1050 %in% c("A", "C", "T") & P1050 %in% c("C", "NA")'
p10
sI7
S'P1050 %in% c("G")'
p11
ssS'significant_feature_weight_'
p12
(dp13
S'P4628'
p14
F0.3004694314466778
sS'P1050'
p15
F1.5528110834982796
ssS'children_left'
p16
(dp17
I1
I2
sI2
I3
sI3
I4
sI4
NsI5
NsI6
NsI7
NssS'ACCx_'
p18
F0.7605633802816901
sS'ACC_'
p19
F0.9436619718309859
sS'value'
p20
(dp21
I1
(dp22
S'A'
p23
F27.0
sS'C'
p24
F17.0
sS'T'
p25
F20.0
sS'G'
p26
F7.0
ssI2
(dp27
g23
F0.0
sg24
F17.0
sg25
F20.0
sg26
F6.0
ssI3
(dp28
g23
F0.0
sg24
F16.0
sg25
F2.0
sg26
F6.0
ssI4
(dp29
g23
F0.0
sg24
F0.0
sg25
F2.0
sg26
F6.0
ssI5
(dp30
g23
F0.0
sg24
F16.0
sg25
F0.0
sg26
F0.0
ssI6
(dp31
g23
F0.0
sg24
F1.0
sg25
F18.0
sg26
F0.0
ssI7
(dp32
g23
F27.0
sg24
F0.0
sg25
F0.0
sg26
F1.0
sssS'tprob_'
p33
(dp34
I4
F0.11267605633802817
sI5
F0.22535211267605634
sI6
F0.2676056338028169
sI7
F0.39436619718309857
ssS'threshold'
p35
(dp36
I1
I0
sI2
F5.2323700927559e-11
sI3
F1.20309553225395e-05
ssS'children'
p37
(dp38
I1
c__builtin__
set
p39
((lp40
I2
aI7
atp41
Rp42
sI2
g39
((lp43
I3
aI6
atp44
Rp45
sI3
g39
((lp46
I4
aI5
atp47
Rp48
sI4
g39
((lp49
tp50
Rp51
sI5
g39
((lp52
tp53
Rp54
sI6
g39
((lp55
tp56
Rp57
sI7
g39
((lp58
tp59
Rp60
ssS'children_right'
p61
(dp62
I1
I7
sI2
I6
sI3
I5
sI4
NsI5
NsI6
NsI7
NssS'feature'
p63
(dp64
I1
S'P1050'
p65
sI2
g15
sI3
g14
sI4
S'4'
p66
sI5
S'5'
p67
sI6
S'6'
p68
sI7
S'7'
p69
ssS'nodes'
p70
crpy2.robjects.robject
_reduce_robjectmixin
p71
(S'X\n\x00\x00\x00\x02\x00\x03\x05\x03\x00\x02\x03\x00\x00\x00\x00\r\x00\x00\x00\x07\x00\x00\x00\x01\x00\x00\x00\x02\x00\x00\x00\x03\x00\x00\x00\x04\x00\x00\x00\x05\x00\x00\x00\x06\x00\x00\x00\x07'
p72
I13
crpy2.rinterface._rinterface
unserialize
p73
crpy2.robjects.vectors
IntVector
p74
tp75
Rp76
(dp77
S'ro'
p78
g0
(crpy2.robjects.vectors
VectorOperationsDelegator
p79
g2
Ntp80
Rp81
(dp82
S'_parent'
p83
g76
sbsS'rx'
p84
g0
(crpy2.robjects.vectors
ExtractDelegator
p85
g2
Ntp86
Rp87
(dp88
g83
g76
sbsS'rx2'
p89
g0
(crpy2.robjects.vectors
DoubleExtractDelegator
p90
g2
Ntp91
Rp92
(dp93
g83
g76
sbsbsS'response_var_'
p94
S'P2035'
p95
sS'edge_cond_'
p96
(dp97
(I1
I2
tp98
(lp99
g23
ag24
ag25
as(I2
I6
tp100
(lp101
g24
as(I2
I3
tp102
(lp103
g23
ag25
as(I1
I7
tp104
(lp105
S'G'
p106
as(I3
I4
tp107
(lp108
g23
ag24
as(I3
I5
tp109
(lp110
S'T'
p111
assS'class_pred_'
p112
g21
sS'CLASSES'
p113
cnumpy.core.multiarray
_reconstruct
p114
(cnumpy
ndarray
p115
(I0
tp116
S'b'
p117
tp118
Rp119
(I1
(I4
tp120
cnumpy
dtype
p121
(S'O8'
p122
I0
I1
tp123
Rp124
(I3
S'|'
p125
NNNI-1
I-1
I63
tp126
bI00
(lp127
g23
ag24
ag26
ag25
atp128
bsS'TREE_LEAF'
p129
(dp130
I1
I00
sI2
I00
sI3
I00
sI4
I01
sI5
I01
sI6
I01
sI7
I01
ssS'num_pass_'
p131
(dp132
I1
I71
sI2
I43
sI3
I24
sI4
I8
sI5
I16
sI6
I19
sI7
I28
ssS'error'
p133
(dp134
I1
F61.97183098591549
sI2
F53.48837209302326
sI3
F33.33333333333333
sI4
F25.0
sI5
F0.0
sI6
F5.263157894736842
sI7
F3.571428571428571
ssS'pvalue'
p135
g36
sS'class_names'
p136
g119
sS'n_node_samples'
p137
g132
sb.