ccopy_reg
_reconstructor
p0
(cmlx
tree_
p1
c__builtin__
object
p2
Ntp3
Rp4
(dp5
S'decision_rules_'
p6
(dp7
I3
S'P2823 %in% c("A", "T") & P2109 %in% c("A", "NA", "T")'
p8
sI4
S'P2823 %in% c("A", "T") & P2109 %in% c("NA", "G")'
p9
sI6
S'P2823 %in% c("C", "G", "W") & P885 %in% c("NA", "G", "T", "Y")'
p10
sI7
S'P2823 %in% c("C", "G", "W") & P885 %in% c("NA", "C")'
p11
ssS'significant_feature_weight_'
p12
(dp13
S'P885'
p14
F0.4139120264585978
sS'P2109'
p15
F0.307298272033638
sS'P2823'
p16
F0.8553858191798269
ssS'children_left'
p17
(dp18
I1
I2
sI2
I3
sI3
NsI4
NsI5
I6
sI6
NsI7
NssS'ACCx_'
p19
F0.8169014084507042
sS'ACC_'
p20
F0.7746478873239436
sS'value'
p21
(dp22
I1
(dp23
S'A'
p24
F3.0
sS'Y'
p25
F1.0
sS'C'
p26
F19.0
sS'T'
p27
F47.0
sS'G'
p28
F1.0
ssI2
(dp29
g24
F3.0
sg25
F0.0
sg26
F5.0
sg27
F14.0
sg28
F0.0
ssI3
(dp30
g24
F3.0
sg25
F0.0
sg26
F5.0
sg27
F4.0
sg28
F0.0
ssI4
(dp31
g24
F0.0
sg25
F0.0
sg26
F0.0
sg27
F10.0
sg28
F0.0
ssI5
(dp32
g24
F0.0
sg25
F1.0
sg26
F14.0
sg27
F33.0
sg28
F1.0
ssI6
(dp33
g24
F0.0
sg25
F1.0
sg26
F7.0
sg27
F0.0
sg28
F1.0
ssI7
(dp34
g24
F0.0
sg25
F0.0
sg26
F7.0
sg27
F33.0
sg28
F0.0
sssS'tprob_'
p35
(dp36
I3
F0.16901408450704225
sI4
F0.14084507042253522
sI6
F0.1267605633802817
sI7
F0.5633802816901409
ssS'threshold'
p37
(dp38
I1
I0
sI2
F0.0321450916461843
sI5
I0
ssS'children'
p39
(dp40
I1
c__builtin__
set
p41
((lp42
I2
aI5
atp43
Rp44
sI2
g41
((lp45
I3
aI4
atp46
Rp47
sI3
g41
((lp48
tp49
Rp50
sI4
g41
((lp51
tp52
Rp53
sI5
g41
((lp54
I6
aI7
atp55
Rp56
sI6
g41
((lp57
tp58
Rp59
sI7
g41
((lp60
tp61
Rp62
ssS'children_right'
p63
(dp64
I1
I5
sI2
I4
sI3
NsI4
NsI5
I7
sI6
NsI7
NssS'feature'
p65
(dp66
I1
g16
sI2
g15
sI3
S'3'
p67
sI4
S'4'
p68
sI5
g14
sI6
S'6'
p69
sI7
S'7'
p70
ssS'nodes'
p71
crpy2.robjects.robject
_reduce_robjectmixin
p72
(S'X\n\x00\x00\x00\x02\x00\x03\x05\x03\x00\x02\x03\x00\x00\x00\x00\r\x00\x00\x00\x07\x00\x00\x00\x01\x00\x00\x00\x02\x00\x00\x00\x03\x00\x00\x00\x04\x00\x00\x00\x05\x00\x00\x00\x06\x00\x00\x00\x07'
p73
I13
crpy2.rinterface._rinterface
unserialize
p74
crpy2.robjects.vectors
IntVector
p75
tp76
Rp77
(dp78
S'ro'
p79
g0
(crpy2.robjects.vectors
VectorOperationsDelegator
p80
g2
Ntp81
Rp82
(dp83
S'_parent'
p84
g77
sbsS'rx'
p85
g0
(crpy2.robjects.vectors
ExtractDelegator
p86
g2
Ntp87
Rp88
(dp89
g84
g77
sbsS'rx2'
p90
g0
(crpy2.robjects.vectors
DoubleExtractDelegator
p91
g2
Ntp92
Rp93
(dp94
g84
g77
sbsbsS'response_var_'
p95
S'P2196'
p96
sS'edge_cond_'
p97
(dp98
(I1
I2
tp99
(lp100
g24
ag27
as(I5
I6
tp101
(lp102
g25
ag27
ag28
as(I5
I7
tp103
(lp104
g26
as(I1
I5
tp105
(lp106
g26
ag28
aS'W'
p107
as(I2
I3
tp108
(lp109
g24
ag27
as(I2
I4
tp110
(lp111
g28
assS'class_pred_'
p112
g22
sS'CLASSES'
p113
cnumpy.core.multiarray
_reconstruct
p114
(cnumpy
ndarray
p115
(I0
tp116
S'b'
p117
tp118
Rp119
(I1
(I5
tp120
cnumpy
dtype
p121
(S'O8'
p122
I0
I1
tp123
Rp124
(I3
S'|'
p125
NNNI-1
I-1
I63
tp126
bI00
(lp127
g24
ag26
ag28
ag27
ag25
atp128
bsS'TREE_LEAF'
p129
(dp130
I1
I00
sI2
I00
sI3
I01
sI4
I01
sI5
I00
sI6
I01
sI7
I01
ssS'num_pass_'
p131
(dp132
I1
I71
sI2
I22
sI3
I12
sI4
I10
sI5
I49
sI6
I9
sI7
I40
ssS'error'
p133
(dp134
I1
F33.80281690140845
sI2
F36.36363636363636
sI3
F58.33333333333333
sI4
F0.0
sI5
F32.6530612244898
sI6
F22.22222222222222
sI7
F17.5
ssS'pvalue'
p135
g38
sS'class_names'
p136
g119
sS'n_node_samples'
p137
g132
sb.