ccopy_reg
_reconstructor
p0
(cmlx
tree_
p1
c__builtin__
object
p2
Ntp3
Rp4
(dp5
S'decision_rules_'
p6
(dp7
I8
S'P1593 %in% c("A", "G", "R") & P1392 %in% c("C")'
p8
sI9
S'P1593 %in% c("T")'
p9
sI4
S'P1593 %in% c("A", "G", "R") & P1392 %in% c("A", "G", "R", "T") & P3853 %in% c("A", "C")'
p10
sI6
S'P1593 %in% c("A", "G", "R") & P1392 %in% c("A", "G", "R", "T") & P3853 %in% c("G", "T", "Y") & P1392 %in% c("A", "NA")'
p11
sI7
S'P1593 %in% c("A", "G", "R") & P1392 %in% c("A", "G", "R", "T") & P3853 %in% c("G", "T", "Y") & P1392 %in% c("NA", "G", "R", "T")'
p12
ssS'significant_feature_weight_'
p13
(dp14
S'P3853'
p15
F0.4820030927195077
sS'P1392'
p16
F1.1765135418909836
sS'P1593'
p17
F0.3999206427334255
ssS'children_left'
p18
(dp19
I1
I9
sI2
I8
sI3
I4
sI4
NsI5
I6
sI6
NsI7
NsI8
NsI9
NssS'ACCx_'
p20
F0.7746478873239436
sS'ACC_'
p21
F0.8873239436619719
sS'value'
p22
(dp23
I1
(dp24
S'A'
p25
F13.0
sS'C'
p26
F3.0
sS'S'
p27
F1.0
sS'G'
p28
F14.0
sS'T'
p29
F40.0
ssI2
(dp30
g25
F5.0
sg26
F3.0
sg27
F1.0
sg28
F14.0
sg29
F40.0
ssI3
(dp31
g25
F5.0
sg26
F3.0
sg27
F1.0
sg28
F14.0
sg29
F13.0
ssI4
(dp32
g25
F0.0
sg26
F0.0
sg27
F0.0
sg28
F1.0
sg29
F13.0
ssI5
(dp33
g25
F5.0
sg26
F3.0
sg27
F1.0
sg28
F13.0
sg29
F0.0
ssI6
(dp34
g25
F1.0
sg26
F0.0
sg27
F0.0
sg28
F11.0
sg29
F0.0
ssI7
(dp35
g25
F4.0
sg26
F3.0
sg27
F1.0
sg28
F2.0
sg29
F0.0
ssI8
(dp36
g25
F0.0
sg26
F0.0
sg27
F0.0
sg28
F0.0
sg29
F27.0
ssI9
(dp37
g25
F8.0
sg26
F0.0
sg27
F0.0
sg28
F0.0
sg29
F0.0
sssS'tprob_'
p38
(dp39
I8
F0.38028169014084506
sI9
F0.11267605633802817
sI4
F0.19718309859154928
sI6
F0.16901408450704225
sI7
F0.14084507042253522
ssS'threshold'
p40
(dp41
I1
I0
sI2
I0
sI3
F4.904342820744029e-09
sI5
F0.00166211597883059
ssS'children'
p42
(dp43
I1
c__builtin__
set
p44
((lp45
I9
aI2
atp46
Rp47
sI2
g44
((lp48
I8
aI3
atp49
Rp50
sI3
g44
((lp51
I4
aI5
atp52
Rp53
sI4
g44
((lp54
tp55
Rp56
sI5
g44
((lp57
I6
aI7
atp58
Rp59
sI6
g44
((lp60
tp61
Rp62
sI7
g44
((lp63
tp64
Rp65
sI8
g44
((lp66
tp67
Rp68
sI9
g44
((lp69
tp70
Rp71
ssS'children_right'
p72
(dp73
I1
I2
sI2
I3
sI3
I5
sI4
NsI5
I7
sI6
NsI7
NsI8
NsI9
NssS'feature'
p74
(dp75
I1
g17
sI2
g16
sI3
g15
sI4
S'4'
p76
sI5
S'P1392'
p77
sI6
S'6'
p78
sI7
S'7'
p79
sI8
S'8'
p80
sI9
S'9'
p81
ssS'nodes'
p82
crpy2.robjects.robject
_reduce_robjectmixin
p83
(S'X\n\x00\x00\x00\x02\x00\x03\x05\x03\x00\x02\x03\x00\x00\x00\x00\r\x00\x00\x00\t\x00\x00\x00\x01\x00\x00\x00\x02\x00\x00\x00\x03\x00\x00\x00\x04\x00\x00\x00\x05\x00\x00\x00\x06\x00\x00\x00\x07\x00\x00\x00\x08\x00\x00\x00\t'
p84
I13
crpy2.rinterface._rinterface
unserialize
p85
crpy2.robjects.vectors
IntVector
p86
tp87
Rp88
(dp89
S'ro'
p90
g0
(crpy2.robjects.vectors
VectorOperationsDelegator
p91
g2
Ntp92
Rp93
(dp94
S'_parent'
p95
g88
sbsS'rx'
p96
g0
(crpy2.robjects.vectors
ExtractDelegator
p97
g2
Ntp98
Rp99
(dp100
g95
g88
sbsS'rx2'
p101
g0
(crpy2.robjects.vectors
DoubleExtractDelegator
p102
g2
Ntp103
Rp104
(dp105
g95
g88
sbsbsS'response_var_'
p106
S'P3004'
p107
sS'edge_cond_'
p108
(dp109
(I1
I2
tp110
(lp111
g25
aS'R'
p112
ag28
as(I5
I6
tp113
(lp114
g25
as(I2
I8
tp115
(lp116
S'C'
p117
as(I5
I7
tp118
(lp119
g112
ag29
ag28
as(I2
I3
tp120
(lp121
g25
ag112
ag29
ag28
as(I1
I9
tp122
(lp123
S'T'
p124
as(I3
I4
tp125
(lp126
g25
ag26
as(I3
I5
tp127
(lp128
S'Y'
p129
ag29
ag28
assS'class_pred_'
p130
g23
sS'CLASSES'
p131
cnumpy.core.multiarray
_reconstruct
p132
(cnumpy
ndarray
p133
(I0
tp134
S'b'
p135
tp136
Rp137
(I1
(I5
tp138
cnumpy
dtype
p139
(S'O8'
p140
I0
I1
tp141
Rp142
(I3
S'|'
p143
NNNI-1
I-1
I63
tp144
bI00
(lp145
g25
ag26
ag28
ag27
ag29
atp146
bsS'TREE_LEAF'
p147
(dp148
I1
I00
sI2
I00
sI3
I00
sI4
I01
sI5
I00
sI6
I01
sI7
I01
sI8
I01
sI9
I01
ssS'num_pass_'
p149
(dp150
I1
I71
sI2
I63
sI3
I36
sI4
I14
sI5
I22
sI6
I12
sI7
I10
sI8
I27
sI9
I8
ssS'error'
p151
(dp152
I1
F43.66197183098592
sI2
F36.507936507936506
sI3
F61.11111111111111
sI4
F7.142857142857142
sI5
F40.90909090909091
sI6
F8.333333333333332
sI7
F60.0
sI8
F0.0
sI9
F0.0
ssS'pvalue'
p153
g41
sS'class_names'
p154
g137
sS'n_node_samples'
p155
g150
sb.