ccopy_reg
_reconstructor
p0
(cmlx
tree_
p1
c__builtin__
object
p2
Ntp3
Rp4
(dp5
S'decision_rules_'
p6
(dp7
I4
S'P1467 %in% c("A", "C", "G") & P1837 %in% c("A", "C", "G") & P1710 %in% c("A", "C", "T")'
p8
sI5
S'P1467 %in% c("A", "C", "G") & P1837 %in% c("A", "C", "G") & P1710 %in% c("G")'
p9
sI6
S'P1467 %in% c("A", "C", "G") & P1837 %in% c("T")'
p10
sI7
S'P1467 %in% c("T")'
p11
ssS'significant_feature_weight_'
p12
(dp13
S'P1710'
p14
F0.33152757829743
sS'P1467'
p15
F0.6665344045557091
sS'P1837'
p16
F0.7847082244833317
ssS'children_left'
p17
(dp18
I1
I2
sI2
I3
sI3
I4
sI4
NsI5
NsI6
NsI7
NssS'ACCx_'
p19
F0.7605633802816901
sS'ACC_'
p20
F0.8169014084507042
sS'value'
p21
(dp22
I1
(dp23
S'A'
p24
F11.0
sS'C'
p25
F33.0
sS'T'
p26
F25.0
sS'G'
p27
F2.0
ssI2
(dp28
g24
F1.0
sg25
F33.0
sg26
F20.0
sg27
F2.0
ssI3
(dp29
g24
F1.0
sg25
F6.0
sg26
F17.0
sg27
F2.0
ssI4
(dp30
g24
F1.0
sg25
F5.0
sg26
F1.0
sg27
F2.0
ssI5
(dp31
g24
F0.0
sg25
F1.0
sg26
F16.0
sg27
F0.0
ssI6
(dp32
g24
F0.0
sg25
F27.0
sg26
F3.0
sg27
F0.0
ssI7
(dp33
g24
F10.0
sg25
F0.0
sg26
F5.0
sg27
F0.0
sssS'tprob_'
p34
(dp35
I4
F0.1267605633802817
sI5
F0.23943661971830985
sI6
F0.4225352112676056
sI7
F0.2112676056338028
ssS'threshold'
p36
(dp37
I1
I0
sI2
I0
sI3
F7.05832457148503e-07
ssS'children'
p38
(dp39
I1
c__builtin__
set
p40
((lp41
I2
aI7
atp42
Rp43
sI2
g40
((lp44
I3
aI6
atp45
Rp46
sI3
g40
((lp47
I4
aI5
atp48
Rp49
sI4
g40
((lp50
tp51
Rp52
sI5
g40
((lp53
tp54
Rp55
sI6
g40
((lp56
tp57
Rp58
sI7
g40
((lp59
tp60
Rp61
ssS'children_right'
p62
(dp63
I1
I7
sI2
I6
sI3
I5
sI4
NsI5
NsI6
NsI7
NssS'feature'
p64
(dp65
I1
g15
sI2
g16
sI3
g14
sI4
S'4'
p66
sI5
S'5'
p67
sI6
S'6'
p68
sI7
S'7'
p69
ssS'nodes'
p70
crpy2.robjects.robject
_reduce_robjectmixin
p71
(S'X\n\x00\x00\x00\x02\x00\x03\x05\x03\x00\x02\x03\x00\x00\x00\x00\r\x00\x00\x00\x07\x00\x00\x00\x01\x00\x00\x00\x02\x00\x00\x00\x03\x00\x00\x00\x04\x00\x00\x00\x05\x00\x00\x00\x06\x00\x00\x00\x07'
p72
I13
crpy2.rinterface._rinterface
unserialize
p73
crpy2.robjects.vectors
IntVector
p74
tp75
Rp76
(dp77
S'ro'
p78
g0
(crpy2.robjects.vectors
VectorOperationsDelegator
p79
g2
Ntp80
Rp81
(dp82
S'_parent'
p83
g76
sbsS'rx'
p84
g0
(crpy2.robjects.vectors
ExtractDelegator
p85
g2
Ntp86
Rp87
(dp88
g83
g76
sbsS'rx2'
p89
g0
(crpy2.robjects.vectors
DoubleExtractDelegator
p90
g2
Ntp91
Rp92
(dp93
g83
g76
sbsbsS'response_var_'
p94
S'P2856'
p95
sS'edge_cond_'
p96
(dp97
(I1
I2
tp98
(lp99
g24
ag25
ag27
as(I2
I6
tp100
(lp101
S'T'
p102
as(I2
I3
tp103
(lp104
g24
ag25
ag27
as(I1
I7
tp105
(lp106
S'T'
p107
as(I3
I4
tp108
(lp109
g24
ag25
ag26
as(I3
I5
tp110
(lp111
S'G'
p112
assS'class_pred_'
p113
g22
sS'CLASSES'
p114
cnumpy.core.multiarray
_reconstruct
p115
(cnumpy
ndarray
p116
(I0
tp117
S'b'
p118
tp119
Rp120
(I1
(I4
tp121
cnumpy
dtype
p122
(S'O8'
p123
I0
I1
tp124
Rp125
(I3
S'|'
p126
NNNI-1
I-1
I63
tp127
bI00
(lp128
g24
ag25
ag27
ag26
atp129
bsS'TREE_LEAF'
p130
(dp131
I1
I00
sI2
I00
sI3
I00
sI4
I01
sI5
I01
sI6
I01
sI7
I01
ssS'num_pass_'
p132
(dp133
I1
I71
sI2
I56
sI3
I26
sI4
I9
sI5
I17
sI6
I30
sI7
I15
ssS'error'
p134
(dp135
I1
F53.52112676056338
sI2
F41.07142857142857
sI3
F34.61538461538461
sI4
F44.44444444444444
sI5
F5.88235294117647
sI6
F10.0
sI7
F33.33333333333333
ssS'pvalue'
p136
g37
sS'class_names'
p137
g120
sS'n_node_samples'
p138
g133
sb.