ccopy_reg
_reconstructor
p0
(cmlx
tree_
p1
c__builtin__
object
p2
Ntp3
Rp4
(dp5
S'decision_rules_'
p6
(dp7
I3
S'P930 %in% c("A", "G", "R", "T") & P930 %in% c("A", "NA", "R")'
p8
sI4
S'P930 %in% c("A", "G", "R", "T") & P930 %in% c("NA", "G", "T")'
p9
sI5
S'P930 %in% c("C")'
p10
ssS'significant_feature_weight_'
p11
(dp12
S'P930'
p13
F1.3222182364812247
ssS'children_left'
p14
(dp15
I1
I2
sI2
I3
sI3
NsI4
NsI5
NssS'ACCx_'
p16
F0.8450704225352113
sS'ACC_'
p17
F0.9577464788732395
sS'value'
p18
(dp19
I1
(dp20
S'A'
p21
F28.0
sS'C'
p22
F2.0
sS'T'
p23
F36.0
sS'G'
p24
F5.0
ssI2
(dp25
g21
F0.0
sg22
F2.0
sg23
F36.0
sg24
F5.0
ssI3
(dp26
g21
F0.0
sg22
F0.0
sg23
F35.0
sg24
F0.0
ssI4
(dp27
g21
F0.0
sg22
F2.0
sg23
F1.0
sg24
F5.0
ssI5
(dp28
g21
F28.0
sg22
F0.0
sg23
F0.0
sg24
F0.0
sssS'tprob_'
p29
(dp30
I3
F0.49295774647887325
sI4
F0.11267605633802817
sI5
F0.39436619718309857
ssS'threshold'
p31
(dp32
I1
I0
sI2
F2.88358914524167e-09
ssS'children'
p33
(dp34
I1
c__builtin__
set
p35
((lp36
I2
aI5
atp37
Rp38
sI2
g35
((lp39
I3
aI4
atp40
Rp41
sI3
g35
((lp42
tp43
Rp44
sI4
g35
((lp45
tp46
Rp47
sI5
g35
((lp48
tp49
Rp50
ssS'children_right'
p51
(dp52
I1
I5
sI2
I4
sI3
NsI4
NsI5
NssS'feature'
p53
(dp54
I1
S'P930'
p55
sI2
g13
sI3
S'3'
p56
sI4
S'4'
p57
sI5
S'5'
p58
ssS'nodes'
p59
crpy2.robjects.robject
_reduce_robjectmixin
p60
(S'X\n\x00\x00\x00\x02\x00\x03\x05\x03\x00\x02\x03\x00\x00\x00\x00\r\x00\x00\x00\x05\x00\x00\x00\x01\x00\x00\x00\x02\x00\x00\x00\x03\x00\x00\x00\x04\x00\x00\x00\x05'
p61
I13
crpy2.rinterface._rinterface
unserialize
p62
crpy2.robjects.vectors
IntVector
p63
tp64
Rp65
(dp66
S'ro'
p67
g0
(crpy2.robjects.vectors
VectorOperationsDelegator
p68
g2
Ntp69
Rp70
(dp71
S'_parent'
p72
g65
sbsS'rx'
p73
g0
(crpy2.robjects.vectors
ExtractDelegator
p74
g2
Ntp75
Rp76
(dp77
g72
g65
sbsS'rx2'
p78
g0
(crpy2.robjects.vectors
DoubleExtractDelegator
p79
g2
Ntp80
Rp81
(dp82
g72
g65
sbsbsS'response_var_'
p83
S'P2690'
p84
sS'edge_cond_'
p85
(dp86
(I1
I2
tp87
(lp88
g21
aS'R'
p89
ag23
ag24
as(I1
I5
tp90
(lp91
S'C'
p92
as(I2
I3
tp93
(lp94
g21
ag89
as(I2
I4
tp95
(lp96
g23
ag24
assS'class_pred_'
p97
g19
sS'CLASSES'
p98
cnumpy.core.multiarray
_reconstruct
p99
(cnumpy
ndarray
p100
(I0
tp101
S'b'
p102
tp103
Rp104
(I1
(I4
tp105
cnumpy
dtype
p106
(S'O8'
p107
I0
I1
tp108
Rp109
(I3
S'|'
p110
NNNI-1
I-1
I63
tp111
bI00
(lp112
g21
ag22
ag24
ag23
atp113
bsS'TREE_LEAF'
p114
(dp115
I1
I00
sI2
I00
sI3
I01
sI4
I01
sI5
I01
ssS'num_pass_'
p116
(dp117
I1
I71
sI2
I43
sI3
I35
sI4
I8
sI5
I28
ssS'error'
p118
(dp119
I1
F49.29577464788732
sI2
F16.27906976744186
sI3
F0.0
sI4
F37.5
sI5
F0.0
ssS'pvalue'
p120
g32
sS'class_names'
p121
g104
sS'n_node_samples'
p122
g117
sb.