ccopy_reg
_reconstructor
p0
(cmlx
tree_
p1
c__builtin__
object
p2
Ntp3
Rp4
(dp5
S'decision_rules_'
p6
(dp7
I2
S'P1737 %in% c("A")'
p8
sI4
S'P1737 %in% c("C", "G", "T", "Y") & P4042 %in% c("A", "C", "G", "Y")'
p9
sI5
S'P1737 %in% c("C", "G", "T", "Y") & P4042 %in% c("T")'
p10
ssS'significant_feature_weight_'
p11
(dp12
S'P4042'
p13
F0.0
sS'P1737'
p14
F0.9902796867684822
ssS'children_left'
p15
(dp16
I1
I2
sI2
NsI3
I4
sI4
NsI5
NssS'ACCx_'
p17
F0.7887323943661972
sS'ACC_'
p18
F0.8591549295774648
sS'value'
p19
(dp20
I1
(dp21
S'A'
p22
F33.0
sS'C'
p23
F1.0
sS'R'
p24
F1.0
sS'T'
p25
F33.0
sS'G'
p26
F3.0
ssI2
(dp27
g22
F2.0
sg23
F0.0
sg24
F0.0
sg25
F30.0
sg26
F0.0
ssI3
(dp28
g22
F31.0
sg23
F1.0
sg24
F1.0
sg25
F3.0
sg26
F3.0
ssI4
(dp29
g22
F5.0
sg23
F1.0
sg24
F1.0
sg25
F3.0
sg26
F1.0
ssI5
(dp30
g22
F26.0
sg23
F0.0
sg24
F0.0
sg25
F0.0
sg26
F2.0
sssS'tprob_'
p31
(dp32
I2
F0.4507042253521127
sI4
F0.15492957746478872
sI5
F0.39436619718309857
ssS'threshold'
p33
(dp34
I1
I0
sI3
F7.44571071464861e-12
ssS'children'
p35
(dp36
I1
c__builtin__
set
p37
((lp38
I2
aI3
atp39
Rp40
sI2
g37
((lp41
tp42
Rp43
sI3
g37
((lp44
I4
aI5
atp45
Rp46
sI4
g37
((lp47
tp48
Rp49
sI5
g37
((lp50
tp51
Rp52
ssS'children_right'
p53
(dp54
I1
I3
sI2
NsI3
I5
sI4
NsI5
NssS'feature'
p55
(dp56
I1
g14
sI2
S'2'
p57
sI3
g13
sI4
S'4'
p58
sI5
S'5'
p59
ssS'nodes'
p60
crpy2.robjects.robject
_reduce_robjectmixin
p61
(S'X\n\x00\x00\x00\x02\x00\x03\x05\x03\x00\x02\x03\x00\x00\x00\x00\r\x00\x00\x00\x05\x00\x00\x00\x01\x00\x00\x00\x02\x00\x00\x00\x03\x00\x00\x00\x04\x00\x00\x00\x05'
p62
I13
crpy2.rinterface._rinterface
unserialize
p63
crpy2.robjects.vectors
IntVector
p64
tp65
Rp66
(dp67
S'ro'
p68
g0
(crpy2.robjects.vectors
VectorOperationsDelegator
p69
g2
Ntp70
Rp71
(dp72
S'_parent'
p73
g66
sbsS'rx'
p74
g0
(crpy2.robjects.vectors
ExtractDelegator
p75
g2
Ntp76
Rp77
(dp78
g73
g66
sbsS'rx2'
p79
g0
(crpy2.robjects.vectors
DoubleExtractDelegator
p80
g2
Ntp81
Rp82
(dp83
g73
g66
sbsbsS'response_var_'
p84
S'P4774'
p85
sS'edge_cond_'
p86
(dp87
(I1
I2
tp88
(lp89
S'A'
p90
as(I1
I3
tp91
(lp92
S'Y'
p93
ag23
ag25
ag26
as(I3
I4
tp94
(lp95
g22
ag93
ag23
ag26
as(I3
I5
tp96
(lp97
S'T'
p98
assS'class_pred_'
p99
g20
sS'CLASSES'
p100
cnumpy.core.multiarray
_reconstruct
p101
(cnumpy
ndarray
p102
(I0
tp103
S'b'
p104
tp105
Rp106
(I1
(I5
tp107
cnumpy
dtype
p108
(S'O8'
p109
I0
I1
tp110
Rp111
(I3
S'|'
p112
NNNI-1
I-1
I63
tp113
bI00
(lp114
g22
ag23
ag26
ag24
ag25
atp115
bsS'TREE_LEAF'
p116
(dp117
I1
I00
sI2
I01
sI3
I00
sI4
I01
sI5
I01
ssS'num_pass_'
p118
(dp119
I1
I71
sI2
I32
sI3
I39
sI4
I11
sI5
I28
ssS'error'
p120
(dp121
I1
F53.52112676056338
sI2
F6.25
sI3
F20.51282051282051
sI4
F54.54545454545455
sI5
F7.142857142857142
ssS'pvalue'
p122
g34
sS'class_names'
p123
g106
sS'n_node_samples'
p124
g119
sb.