ccopy_reg
_reconstructor
p0
(cmlx
tree_
p1
c__builtin__
object
p2
Ntp3
Rp4
(dp5
S'decision_rules_'
p6
(dp7
I4
S'P4584 %in% c("A", "C", "T") & P2767 %in% c("A", "C", "G") & P2365 %in% c("A", "T", "Y")'
p8
sI5
S'P4584 %in% c("A", "C", "T") & P2767 %in% c("A", "C", "G") & P2365 %in% c("C")'
p9
sI6
S'P4584 %in% c("A", "C", "T") & P2767 %in% c("T")'
p10
sI7
S'P4584 %in% c("G")'
p11
ssS'significant_feature_weight_'
p12
(dp13
S'P4584'
p14
F0.9426700864430746
sS'P2365'
p15
F0.46791858676341824
sS'P2767'
p16
F0.3687579835220569
ssS'children_left'
p17
(dp18
I1
I2
sI2
I3
sI3
I4
sI4
NsI5
NsI6
NsI7
NssS'ACCx_'
p19
F0.7887323943661972
sS'ACC_'
p20
F0.8873239436619719
sS'value'
p21
(dp22
I1
(dp23
S'A'
p24
F28.0
sS'C'
p25
F24.0
sS'T'
p26
F11.0
sS'G'
p27
F8.0
ssI2
(dp28
g24
F1.0
sg25
F24.0
sg26
F11.0
sg27
F8.0
ssI3
(dp29
g24
F1.0
sg25
F24.0
sg26
F10.0
sg27
F1.0
ssI4
(dp30
g24
F1.0
sg25
F3.0
sg26
F8.0
sg27
F1.0
ssI5
(dp31
g24
F0.0
sg25
F21.0
sg26
F2.0
sg27
F0.0
ssI6
(dp32
g24
F0.0
sg25
F0.0
sg26
F1.0
sg27
F7.0
ssI7
(dp33
g24
F27.0
sg25
F0.0
sg26
F0.0
sg27
F0.0
sssS'tprob_'
p34
(dp35
I4
F0.18309859154929578
sI5
F0.323943661971831
sI6
F0.11267605633802817
sI7
F0.38028169014084506
ssS'threshold'
p36
(dp37
I1
I0
sI2
F7.786660205511e-12
sI3
F7.51598783210738e-11
ssS'children'
p38
(dp39
I1
c__builtin__
set
p40
((lp41
I2
aI7
atp42
Rp43
sI2
g40
((lp44
I3
aI6
atp45
Rp46
sI3
g40
((lp47
I4
aI5
atp48
Rp49
sI4
g40
((lp50
tp51
Rp52
sI5
g40
((lp53
tp54
Rp55
sI6
g40
((lp56
tp57
Rp58
sI7
g40
((lp59
tp60
Rp61
ssS'children_right'
p62
(dp63
I1
I7
sI2
I6
sI3
I5
sI4
NsI5
NsI6
NsI7
NssS'feature'
p64
(dp65
I1
g14
sI2
g16
sI3
g15
sI4
S'4'
p66
sI5
S'5'
p67
sI6
S'6'
p68
sI7
S'7'
p69
ssS'nodes'
p70
crpy2.robjects.robject
_reduce_robjectmixin
p71
(S'X\n\x00\x00\x00\x02\x00\x03\x05\x03\x00\x02\x03\x00\x00\x00\x00\r\x00\x00\x00\x07\x00\x00\x00\x01\x00\x00\x00\x02\x00\x00\x00\x03\x00\x00\x00\x04\x00\x00\x00\x05\x00\x00\x00\x06\x00\x00\x00\x07'
p72
I13
crpy2.rinterface._rinterface
unserialize
p73
crpy2.robjects.vectors
IntVector
p74
tp75
Rp76
(dp77
S'ro'
p78
g0
(crpy2.robjects.vectors
VectorOperationsDelegator
p79
g2
Ntp80
Rp81
(dp82
S'_parent'
p83
g76
sbsS'rx'
p84
g0
(crpy2.robjects.vectors
ExtractDelegator
p85
g2
Ntp86
Rp87
(dp88
g83
g76
sbsS'rx2'
p89
g0
(crpy2.robjects.vectors
DoubleExtractDelegator
p90
g2
Ntp91
Rp92
(dp93
g83
g76
sbsbsS'response_var_'
p94
S'P2553'
p95
sS'edge_cond_'
p96
(dp97
(I1
I2
tp98
(lp99
g24
ag25
ag26
as(I2
I6
tp100
(lp101
S'T'
p102
as(I2
I3
tp103
(lp104
g24
ag25
ag27
as(I1
I7
tp105
(lp106
S'G'
p107
as(I3
I4
tp108
(lp109
g24
aS'Y'
p110
ag26
as(I3
I5
tp111
(lp112
S'C'
p113
assS'class_pred_'
p114
g22
sS'CLASSES'
p115
cnumpy.core.multiarray
_reconstruct
p116
(cnumpy
ndarray
p117
(I0
tp118
S'b'
p119
tp120
Rp121
(I1
(I4
tp122
cnumpy
dtype
p123
(S'O8'
p124
I0
I1
tp125
Rp126
(I3
S'|'
p127
NNNI-1
I-1
I63
tp128
bI00
(lp129
g24
ag25
ag27
ag26
atp130
bsS'TREE_LEAF'
p131
(dp132
I1
I00
sI2
I00
sI3
I00
sI4
I01
sI5
I01
sI6
I01
sI7
I01
ssS'num_pass_'
p133
(dp134
I1
I71
sI2
I44
sI3
I36
sI4
I13
sI5
I23
sI6
I8
sI7
I27
ssS'error'
p135
(dp136
I1
F60.56338028169014
sI2
F45.45454545454545
sI3
F33.333333333333336
sI4
F38.46153846153846
sI5
F8.695652173913043
sI6
F12.5
sI7
F0.0
ssS'pvalue'
p137
g37
sS'class_names'
p138
g121
sS'n_node_samples'
p139
g134
sb.