ccopy_reg
_reconstructor
p0
(cmlx
tree_
p1
c__builtin__
object
p2
Ntp3
Rp4
(dp5
S'decision_rules_'
p6
(dp7
I2
S'P3026 %in% c("A", "G")'
p8
sI4
S'P3026 %in% c("C", "T", "Y") & P1752 %in% c("A", "C")'
p9
sI5
S'P3026 %in% c("C", "T", "Y") & P1752 %in% c("G", "T", "Y")'
p10
ssS'significant_feature_weight_'
p11
(dp12
S'P3026'
p13
F0.9950406468010229
sS'P1752'
p14
F0.5352112305606415
ssS'children_left'
p15
(dp16
I1
I2
sI2
NsI3
I4
sI4
NsI5
NssS'ACCx_'
p17
F0.8028169014084507
sS'ACC_'
p18
F0.9014084507042254
sS'value'
p19
(dp20
I1
(dp21
S'A'
p22
F48.0
sS'C'
p23
F1.0
sS'R'
p24
F1.0
sS'T'
p25
F2.0
sS'G'
p26
F19.0
ssI2
(dp27
g22
F31.0
sg23
F0.0
sg24
F0.0
sg25
F0.0
sg26
F2.0
ssI3
(dp28
g22
F17.0
sg23
F1.0
sg24
F1.0
sg25
F2.0
sg26
F17.0
ssI4
(dp29
g22
F17.0
sg23
F1.0
sg24
F0.0
sg25
F0.0
sg26
F1.0
ssI5
(dp30
g22
F0.0
sg23
F0.0
sg24
F1.0
sg25
F2.0
sg26
F16.0
sssS'tprob_'
p31
(dp32
I2
F0.4647887323943662
sI4
F0.2676056338028169
sI5
F0.2676056338028169
ssS'threshold'
p33
(dp34
I1
I0
sI3
F2.0666912625699803e-11
ssS'children'
p35
(dp36
I1
c__builtin__
set
p37
((lp38
I2
aI3
atp39
Rp40
sI2
g37
((lp41
tp42
Rp43
sI3
g37
((lp44
I4
aI5
atp45
Rp46
sI4
g37
((lp47
tp48
Rp49
sI5
g37
((lp50
tp51
Rp52
ssS'children_right'
p53
(dp54
I1
I3
sI2
NsI3
I5
sI4
NsI5
NssS'feature'
p55
(dp56
I1
g13
sI2
S'2'
p57
sI3
g14
sI4
S'4'
p58
sI5
S'5'
p59
ssS'nodes'
p60
crpy2.robjects.robject
_reduce_robjectmixin
p61
(S'X\n\x00\x00\x00\x02\x00\x03\x05\x03\x00\x02\x03\x00\x00\x00\x00\r\x00\x00\x00\x05\x00\x00\x00\x01\x00\x00\x00\x02\x00\x00\x00\x03\x00\x00\x00\x04\x00\x00\x00\x05'
p62
I13
crpy2.rinterface._rinterface
unserialize
p63
crpy2.robjects.vectors
IntVector
p64
tp65
Rp66
(dp67
S'ro'
p68
g0
(crpy2.robjects.vectors
VectorOperationsDelegator
p69
g2
Ntp70
Rp71
(dp72
S'_parent'
p73
g66
sbsS'rx'
p74
g0
(crpy2.robjects.vectors
ExtractDelegator
p75
g2
Ntp76
Rp77
(dp78
g73
g66
sbsS'rx2'
p79
g0
(crpy2.robjects.vectors
DoubleExtractDelegator
p80
g2
Ntp81
Rp82
(dp83
g73
g66
sbsbsS'response_var_'
p84
S'P1917'
p85
sS'edge_cond_'
p86
(dp87
(I1
I2
tp88
(lp89
g22
ag26
as(I1
I3
tp90
(lp91
S'Y'
p92
ag23
ag25
as(I3
I4
tp93
(lp94
g22
ag23
as(I3
I5
tp95
(lp96
g92
ag25
ag26
assS'class_pred_'
p97
g20
sS'CLASSES'
p98
cnumpy.core.multiarray
_reconstruct
p99
(cnumpy
ndarray
p100
(I0
tp101
S'b'
p102
tp103
Rp104
(I1
(I5
tp105
cnumpy
dtype
p106
(S'O8'
p107
I0
I1
tp108
Rp109
(I3
S'|'
p110
NNNI-1
I-1
I63
tp111
bI00
(lp112
g22
ag23
ag26
ag24
ag25
atp113
bsS'TREE_LEAF'
p114
(dp115
I1
I00
sI2
I01
sI3
I00
sI4
I01
sI5
I01
ssS'num_pass_'
p116
(dp117
I1
I71
sI2
I33
sI3
I38
sI4
I19
sI5
I19
ssS'error'
p118
(dp119
I1
F32.394366197183096
sI2
F6.0606060606060606
sI3
F55.26315789473684
sI4
F10.526315789473683
sI5
F15.789473684210524
ssS'pvalue'
p120
g34
sS'class_names'
p121
g104
sS'n_node_samples'
p122
g117
sb.