ccopy_reg
_reconstructor
p0
(cmlx
tree_
p1
c__builtin__
object
p2
Ntp3
Rp4
(dp5
S'decision_rules_'
p6
(dp7
I3
S'P67 %in% c("C") & P736 %in% c("A", "G", "T")'
p8
sI5
S'P67 %in% c("C") & P736 %in% c("C", "N") & P3188 %in% c("A", "NA")'
p9
sI6
S'P67 %in% c("C") & P736 %in% c("C", "N") & P3188 %in% c("NA", "G", "T")'
p10
sI7
S'P67 %in% c("T")'
p11
ssS'significant_feature_weight_'
p12
(dp13
S'P736'
p14
F0.2952891582215388
sS'P3188'
p15
F0.0
sS'P67'
p16
F0.7066853686074774
ssS'children_left'
p17
(dp18
I1
I2
sI2
I3
sI3
NsI4
I5
sI5
NsI6
NsI7
NssS'ACCx_'
p19
F0.2676056338028169
sS'ACC_'
p20
F0.9295774647887324
sS'value'
p21
(dp22
I1
(dp23
S'A'
p24
F19.0
sS'C'
p25
F45.0
sS'T'
p26
F7.0
ssI2
(dp27
g24
F1.0
sg25
F44.0
sg26
F7.0
ssI3
(dp28
g24
F1.0
sg25
F1.0
sg26
F5.0
ssI4
(dp29
g24
F0.0
sg25
F43.0
sg26
F2.0
ssI5
(dp30
g24
F0.0
sg25
F22.0
sg26
F0.0
ssI6
(dp31
g24
F0.0
sg25
F21.0
sg26
F2.0
ssI7
(dp32
g24
F18.0
sg25
F1.0
sg26
F0.0
sssS'tprob_'
p33
(dp34
I3
F0.09859154929577464
sI5
F0.30985915492957744
sI6
F0.323943661971831
sI7
F0.2676056338028169
ssS'threshold'
p35
(dp36
I1
F3.9034819820926704e-10
sI2
F3.5864777814253996e-10
sI4
F1.36265423511528e-06
ssS'children'
p37
(dp38
I1
c__builtin__
set
p39
((lp40
I2
aI7
atp41
Rp42
sI2
g39
((lp43
I3
aI4
atp44
Rp45
sI3
g39
((lp46
tp47
Rp48
sI4
g39
((lp49
I5
aI6
atp50
Rp51
sI5
g39
((lp52
tp53
Rp54
sI6
g39
((lp55
tp56
Rp57
sI7
g39
((lp58
tp59
Rp60
ssS'children_right'
p61
(dp62
I1
I7
sI2
I4
sI3
NsI4
I6
sI5
NsI6
NsI7
NssS'feature'
p63
(dp64
I1
g16
sI2
g14
sI3
S'3'
p65
sI4
g15
sI5
S'5'
p66
sI6
S'6'
p67
sI7
S'7'
p68
ssS'nodes'
p69
crpy2.robjects.robject
_reduce_robjectmixin
p70
(S'X\n\x00\x00\x00\x02\x00\x03\x05\x03\x00\x02\x03\x00\x00\x00\x00\r\x00\x00\x00\x07\x00\x00\x00\x01\x00\x00\x00\x02\x00\x00\x00\x03\x00\x00\x00\x04\x00\x00\x00\x05\x00\x00\x00\x06\x00\x00\x00\x07'
p71
I13
crpy2.rinterface._rinterface
unserialize
p72
crpy2.robjects.vectors
IntVector
p73
tp74
Rp75
(dp76
S'ro'
p77
g0
(crpy2.robjects.vectors
VectorOperationsDelegator
p78
g2
Ntp79
Rp80
(dp81
S'_parent'
p82
g75
sbsS'rx'
p83
g0
(crpy2.robjects.vectors
ExtractDelegator
p84
g2
Ntp85
Rp86
(dp87
g82
g75
sbsS'rx2'
p88
g0
(crpy2.robjects.vectors
DoubleExtractDelegator
p89
g2
Ntp90
Rp91
(dp92
g82
g75
sbsbsS'response_var_'
p93
S'P610'
p94
sS'edge_cond_'
p95
(dp96
(I1
I2
tp97
(lp98
S'C'
p99
as(I4
I6
tp100
(lp101
g26
aS'G'
p102
as(I4
I5
tp103
(lp104
g24
as(I2
I3
tp105
(lp106
g24
ag26
ag102
as(I1
I7
tp107
(lp108
S'T'
p109
as(I2
I4
tp110
(lp111
g25
aS'N'
p112
assS'class_pred_'
p113
g22
sS'CLASSES'
p114
cnumpy.core.multiarray
_reconstruct
p115
(cnumpy
ndarray
p116
(I0
tp117
S'b'
p118
tp119
Rp120
(I1
(I3
tp121
cnumpy
dtype
p122
(S'O8'
p123
I0
I1
tp124
Rp125
(I3
S'|'
p126
NNNI-1
I-1
I63
tp127
bI00
(lp128
g24
ag25
ag26
atp129
bsS'TREE_LEAF'
p130
(dp131
I1
I00
sI2
I00
sI3
I01
sI4
I00
sI5
I01
sI6
I01
sI7
I01
ssS'num_pass_'
p132
(dp133
I1
I71
sI2
I52
sI3
I7
sI4
I45
sI5
I22
sI6
I23
sI7
I19
ssS'error'
p134
(dp135
I1
F36.61971830985915
sI2
F15.384615384615385
sI3
F28.57142857142857
sI4
F4.444444444444445
sI5
F0.0
sI6
F8.695652173913043
sI7
F5.263157894736842
ssS'pvalue'
p136
g36
sS'class_names'
p137
g120
sS'n_node_samples'
p138
g133
sb.