ccopy_reg
_reconstructor
p0
(cmlx
tree_
p1
c__builtin__
object
p2
Ntp3
Rp4
(dp5
S'decision_rules_'
p6
(dp7
I2
S'P3081 %in% c("A", "T")'
p8
sI3
S'P3081 %in% c("C", "G")'
p9
ssS'significant_feature_weight_'
p10
(dp11
S'P3081'
p12
F0.3203970129399113
ssS'children_left'
p13
(dp14
I1
I2
sI2
NsI3
NssS'ACCx_'
p15
F0.9577464788732395
sS'ACC_'
p16
F0.971830985915493
sS'value'
p17
(dp18
I1
(dp19
S'A'
p20
F7.0
sS'T'
p21
F2.0
sS'G'
p22
F62.0
ssI2
(dp23
g20
F7.0
sg21
F0.0
sg22
F0.0
ssI3
(dp24
g20
F0.0
sg21
F2.0
sg22
F62.0
sssS'tprob_'
p25
(dp26
I2
F0.09859154929577464
sI3
F0.9014084507042254
ssS'threshold'
p27
(dp28
I1
I0
ssS'children'
p29
(dp30
I1
c__builtin__
set
p31
((lp32
I2
aI3
atp33
Rp34
sI2
g31
((lp35
tp36
Rp37
sI3
g31
((lp38
tp39
Rp40
ssS'children_right'
p41
(dp42
I1
I3
sI2
NsI3
NssS'feature'
p43
(dp44
I1
g12
sI2
S'2'
p45
sI3
S'3'
p46
ssS'nodes'
p47
crpy2.robjects.robject
_reduce_robjectmixin
p48
(S'X\n\x00\x00\x00\x02\x00\x03\x05\x03\x00\x02\x03\x00\x00\x00\x00\r\x00\x00\x00\x03\x00\x00\x00\x01\x00\x00\x00\x02\x00\x00\x00\x03'
p49
I13
crpy2.rinterface._rinterface
unserialize
p50
crpy2.robjects.vectors
IntVector
p51
tp52
Rp53
(dp54
S'ro'
p55
g0
(crpy2.robjects.vectors
VectorOperationsDelegator
p56
g2
Ntp57
Rp58
(dp59
S'_parent'
p60
g53
sbsS'rx'
p61
g0
(crpy2.robjects.vectors
ExtractDelegator
p62
g2
Ntp63
Rp64
(dp65
g60
g53
sbsS'rx2'
p66
g0
(crpy2.robjects.vectors
DoubleExtractDelegator
p67
g2
Ntp68
Rp69
(dp70
g60
g53
sbsbsS'response_var_'
p71
S'P2828'
p72
sS'edge_cond_'
p73
(dp74
(I1
I2
tp75
(lp76
g20
ag21
as(I1
I3
tp77
(lp78
S'C'
p79
ag22
assS'class_pred_'
p80
g18
sS'CLASSES'
p81
cnumpy.core.multiarray
_reconstruct
p82
(cnumpy
ndarray
p83
(I0
tp84
S'b'
p85
tp86
Rp87
(I1
(I3
tp88
cnumpy
dtype
p89
(S'O8'
p90
I0
I1
tp91
Rp92
(I3
S'|'
p93
NNNI-1
I-1
I63
tp94
bI00
(lp95
g20
ag22
ag21
atp96
bsS'TREE_LEAF'
p97
(dp98
I1
I00
sI2
I01
sI3
I01
ssS'num_pass_'
p99
(dp100
I1
I71
sI2
I7
sI3
I64
ssS'error'
p101
(dp102
I1
F12.676056338028168
sI2
F0.0
sI3
F3.125
ssS'pvalue'
p103
g28
sS'class_names'
p104
g87
sS'n_node_samples'
p105
g100
sb.