ccopy_reg
_reconstructor
p0
(cmlx
tree_
p1
c__builtin__
object
p2
Ntp3
Rp4
(dp5
S'decision_rules_'
p6
(dp7
I2
S'P1697 %in% c("A", "G", "N")'
p8
sI3
S'P1697 %in% c("C", "T")'
p9
ssS'significant_feature_weight_'
p10
(dp11
S'P1697'
p12
F0.3203970129399113
ssS'children_left'
p13
(dp14
I1
I2
sI2
NsI3
NssS'ACCx_'
p15
F0.8450704225352113
sS'ACC_'
p16
F0.8873239436619719
sS'value'
p17
(dp18
I1
(dp19
S'A'
p20
F2.0
sS'C'
p21
F5.0
sS'T'
p22
F58.0
sS'G'
p23
F5.0
sS'N'
p24
F1.0
ssI2
(dp25
g20
F0.0
sg21
F5.0
sg22
F58.0
sg23
F0.0
sg24
F1.0
ssI3
(dp26
g20
F2.0
sg21
F0.0
sg22
F0.0
sg23
F5.0
sg24
F0.0
sssS'tprob_'
p27
(dp28
I2
F0.9014084507042254
sI3
F0.09859154929577464
ssS'threshold'
p29
(dp30
I1
I0
ssS'children'
p31
(dp32
I1
c__builtin__
set
p33
((lp34
I2
aI3
atp35
Rp36
sI2
g33
((lp37
tp38
Rp39
sI3
g33
((lp40
tp41
Rp42
ssS'children_right'
p43
(dp44
I1
I3
sI2
NsI3
NssS'feature'
p45
(dp46
I1
g12
sI2
S'2'
p47
sI3
S'3'
p48
ssS'nodes'
p49
crpy2.robjects.robject
_reduce_robjectmixin
p50
(S'X\n\x00\x00\x00\x02\x00\x03\x05\x03\x00\x02\x03\x00\x00\x00\x00\r\x00\x00\x00\x03\x00\x00\x00\x01\x00\x00\x00\x02\x00\x00\x00\x03'
p51
I13
crpy2.rinterface._rinterface
unserialize
p52
crpy2.robjects.vectors
IntVector
p53
tp54
Rp55
(dp56
S'ro'
p57
g0
(crpy2.robjects.vectors
VectorOperationsDelegator
p58
g2
Ntp59
Rp60
(dp61
S'_parent'
p62
g55
sbsS'rx'
p63
g0
(crpy2.robjects.vectors
ExtractDelegator
p64
g2
Ntp65
Rp66
(dp67
g62
g55
sbsS'rx2'
p68
g0
(crpy2.robjects.vectors
DoubleExtractDelegator
p69
g2
Ntp70
Rp71
(dp72
g62
g55
sbsbsS'response_var_'
p73
S'P832'
p74
sS'edge_cond_'
p75
(dp76
(I1
I2
tp77
(lp78
g20
ag23
ag24
as(I1
I3
tp79
(lp80
g21
ag22
assS'class_pred_'
p81
g18
sS'CLASSES'
p82
cnumpy.core.multiarray
_reconstruct
p83
(cnumpy
ndarray
p84
(I0
tp85
S'b'
p86
tp87
Rp88
(I1
(I5
tp89
cnumpy
dtype
p90
(S'O8'
p91
I0
I1
tp92
Rp93
(I3
S'|'
p94
NNNI-1
I-1
I63
tp95
bI00
(lp96
g20
ag21
ag23
ag24
ag22
atp97
bsS'TREE_LEAF'
p98
(dp99
I1
I00
sI2
I01
sI3
I01
ssS'num_pass_'
p100
(dp101
I1
I71
sI2
I64
sI3
I7
ssS'error'
p102
(dp103
I1
F18.30985915492958
sI2
F9.375
sI3
F28.57142857142857
ssS'pvalue'
p104
g30
sS'class_names'
p105
g88
sS'n_node_samples'
p106
g101
sb.