ccopy_reg
_reconstructor
p0
(cmlx
tree_
p1
c__builtin__
object
p2
Ntp3
Rp4
(dp5
S'decision_rules_'
p6
(dp7
I3
S'P391 %in% c("A", "G", "T") & P1365 %in% c("A", "G", "T")'
p8
sI4
S'P391 %in% c("A", "G", "T") & P1365 %in% c("C")'
p9
sI5
S'P391 %in% c("C")'
p10
ssS'significant_feature_weight_'
p11
(dp12
S'P1365'
p13
F0.7996365080550323
sS'P391'
p14
F0.4427692830262925
ssS'children_left'
p15
(dp16
I1
I2
sI2
I3
sI3
NsI4
NsI5
NssS'ACCx_'
p17
F0.8028169014084507
sS'ACC_'
p18
F0.8873239436619719
sS'value'
p19
(dp20
I1
(dp21
S'A'
p22
F10.0
sS'C'
p23
F41.0
sS'T'
p24
F20.0
ssI2
(dp25
g22
F1.0
sg23
F41.0
sg24
F20.0
ssI3
(dp26
g22
F1.0
sg23
F4.0
sg24
F17.0
ssI4
(dp27
g22
F0.0
sg23
F37.0
sg24
F3.0
ssI5
(dp28
g22
F9.0
sg23
F0.0
sg24
F0.0
sssS'tprob_'
p29
(dp30
I3
F0.30985915492957744
sI4
F0.5633802816901409
sI5
F0.1267605633802817
ssS'threshold'
p31
(dp32
I1
F2.1398327554322798e-11
sI2
F1.5432100042289698e-14
ssS'children'
p33
(dp34
I1
c__builtin__
set
p35
((lp36
I2
aI5
atp37
Rp38
sI2
g35
((lp39
I3
aI4
atp40
Rp41
sI3
g35
((lp42
tp43
Rp44
sI4
g35
((lp45
tp46
Rp47
sI5
g35
((lp48
tp49
Rp50
ssS'children_right'
p51
(dp52
I1
I5
sI2
I4
sI3
NsI4
NsI5
NssS'feature'
p53
(dp54
I1
g14
sI2
g13
sI3
S'3'
p55
sI4
S'4'
p56
sI5
S'5'
p57
ssS'nodes'
p58
crpy2.robjects.robject
_reduce_robjectmixin
p59
(S'X\n\x00\x00\x00\x02\x00\x03\x05\x03\x00\x02\x03\x00\x00\x00\x00\r\x00\x00\x00\x05\x00\x00\x00\x01\x00\x00\x00\x02\x00\x00\x00\x03\x00\x00\x00\x04\x00\x00\x00\x05'
p60
I13
crpy2.rinterface._rinterface
unserialize
p61
crpy2.robjects.vectors
IntVector
p62
tp63
Rp64
(dp65
S'ro'
p66
g0
(crpy2.robjects.vectors
VectorOperationsDelegator
p67
g2
Ntp68
Rp69
(dp70
S'_parent'
p71
g64
sbsS'rx'
p72
g0
(crpy2.robjects.vectors
ExtractDelegator
p73
g2
Ntp74
Rp75
(dp76
g71
g64
sbsS'rx2'
p77
g0
(crpy2.robjects.vectors
DoubleExtractDelegator
p78
g2
Ntp79
Rp80
(dp81
g71
g64
sbsbsS'response_var_'
p82
S'P3846'
p83
sS'edge_cond_'
p84
(dp85
(I1
I2
tp86
(lp87
g22
ag24
aS'G'
p88
as(I1
I5
tp89
(lp90
S'C'
p91
as(I2
I3
tp92
(lp93
g22
ag24
ag88
as(I2
I4
tp94
(lp95
S'C'
p96
assS'class_pred_'
p97
g20
sS'CLASSES'
p98
cnumpy.core.multiarray
_reconstruct
p99
(cnumpy
ndarray
p100
(I0
tp101
S'b'
p102
tp103
Rp104
(I1
(I3
tp105
cnumpy
dtype
p106
(S'O8'
p107
I0
I1
tp108
Rp109
(I3
S'|'
p110
NNNI-1
I-1
I63
tp111
bI00
(lp112
g22
ag23
ag24
atp113
bsS'TREE_LEAF'
p114
(dp115
I1
I00
sI2
I00
sI3
I01
sI4
I01
sI5
I01
ssS'num_pass_'
p116
(dp117
I1
I71
sI2
I62
sI3
I22
sI4
I40
sI5
I9
ssS'error'
p118
(dp119
I1
F42.25352112676057
sI2
F33.87096774193548
sI3
F22.72727272727273
sI4
F7.5
sI5
F0.0
ssS'pvalue'
p120
g32
sS'class_names'
p121
g104
sS'n_node_samples'
p122
g117
sb.