ccopy_reg
_reconstructor
p0
(cmlx
tree_
p1
c__builtin__
object
p2
Ntp3
Rp4
(dp5
S'decision_rules_'
p6
(dp7
I3
S'P530 %in% c("A", "C", "T") & P473 %in% c("A", "G", "T")'
p8
sI6
S'P530 %in% c("A", "C", "T") & P473 %in% c("C") & P1689 %in% c("NA", "NA", "T", "Y") & P4440 %in% c("NA", "C", "Y")'
p9
sI7
S'P530 %in% c("A", "C", "T") & P473 %in% c("C") & P1689 %in% c("NA", "NA", "T", "Y") & P4440 %in% c("NA", "T")'
p10
sI9
S'P530 %in% c("A", "C", "T") & P473 %in% c("C") & P1689 %in% c("NA", "C", "NA") & P942 %in% c("A", "C")'
p11
sI10
S'P530 %in% c("A", "C", "T") & P473 %in% c("C") & P1689 %in% c("NA", "C", "NA") & P942 %in% c("G", "T")'
p12
sI11
S'P530 %in% c("G")'
p13
ssS'significant_feature_weight_'
p14
(dp15
S'P530'
p16
F0.3956477112708213
sS'P1689'
p17
F0.534419403059111
sS'P942'
p18
F0.21633540378750402
sS'P473'
p19
F0.2238303138854686
sS'P4440'
p20
F0.2043894698063468
ssS'children_left'
p21
(dp22
I1
I2
sI2
I3
sI3
NsI4
I8
sI5
I6
sI6
NsI7
NsI8
I9
sI9
NsI10
NsI11
NssS'ACCx_'
p23
F0.619718309859155
sS'ACC_'
p24
F0.9154929577464789
sS'value'
p25
(dp26
I1
(dp27
S'A'
p28
F26.0
sS'C'
p29
F5.0
sS'T'
p30
F14.0
sS'G'
p31
F26.0
ssI2
(dp32
g28
F26.0
sg29
F5.0
sg30
F2.0
sg31
F26.0
ssI3
(dp33
g28
F0.0
sg29
F4.0
sg30
F2.0
sg31
F1.0
ssI4
(dp34
g28
F26.0
sg29
F1.0
sg30
F0.0
sg31
F25.0
ssI5
(dp35
g28
F6.0
sg29
F1.0
sg30
F0.0
sg31
F18.0
ssI6
(dp36
g28
F5.0
sg29
F1.0
sg30
F0.0
sg31
F1.0
ssI7
(dp37
g28
F1.0
sg29
F0.0
sg30
F0.0
sg31
F17.0
ssI8
(dp38
g28
F20.0
sg29
F0.0
sg30
F0.0
sg31
F7.0
ssI9
(dp39
g28
F0.0
sg29
F0.0
sg30
F0.0
sg31
F7.0
ssI10
(dp40
g28
F20.0
sg29
F0.0
sg30
F0.0
sg31
F0.0
ssI11
(dp41
g28
F0.0
sg29
F0.0
sg30
F12.0
sg31
F0.0
sssS'tprob_'
p42
(dp43
I3
F0.09859154929577464
sI6
F0.09859154929577464
sI7
F0.2535211267605634
sI9
F0.09859154929577464
sI10
F0.28169014084507044
sI11
F0.16901408450704225
ssS'threshold'
p44
(dp45
I8
F0.0455217807492482
sI1
F2.2204460492503102e-14
sI2
F2.18935980456081e-13
sI4
F2.9446893812234996e-09
sI5
F0.000427764975790113
ssS'children'
p46
(dp47
I1
c__builtin__
set
p48
((lp49
I2
aI11
atp50
Rp51
sI2
g48
((lp52
I3
aI4
atp53
Rp54
sI3
g48
((lp55
tp56
Rp57
sI4
g48
((lp58
I8
aI5
atp59
Rp60
sI5
g48
((lp61
I6
aI7
atp62
Rp63
sI6
g48
((lp64
tp65
Rp66
sI7
g48
((lp67
tp68
Rp69
sI8
g48
((lp70
I9
aI10
atp71
Rp72
sI9
g48
((lp73
tp74
Rp75
sI10
g48
((lp76
tp77
Rp78
sI11
g48
((lp79
tp80
Rp81
ssS'children_right'
p82
(dp83
I1
I11
sI2
I4
sI3
NsI4
I5
sI5
I7
sI6
NsI7
NsI8
I10
sI9
NsI10
NsI11
NssS'feature'
p84
(dp85
I1
g16
sI2
g19
sI3
S'3'
p86
sI4
g17
sI5
g20
sI6
S'6'
p87
sI7
S'7'
p88
sI8
g18
sI9
S'9'
p89
sI10
S'10'
p90
sI11
S'11'
p91
ssS'nodes'
p92
crpy2.robjects.robject
_reduce_robjectmixin
p93
(S'X\n\x00\x00\x00\x02\x00\x03\x05\x03\x00\x02\x03\x00\x00\x00\x00\r\x00\x00\x00\x0b\x00\x00\x00\x01\x00\x00\x00\x02\x00\x00\x00\x03\x00\x00\x00\x04\x00\x00\x00\x05\x00\x00\x00\x06\x00\x00\x00\x07\x00\x00\x00\x08\x00\x00\x00\t\x00\x00\x00\n\x00\x00\x00\x0b'
p94
I13
crpy2.rinterface._rinterface
unserialize
p95
crpy2.robjects.vectors
IntVector
p96
tp97
Rp98
(dp99
S'ro'
p100
g0
(crpy2.robjects.vectors
VectorOperationsDelegator
p101
g2
Ntp102
Rp103
(dp104
S'_parent'
p105
g98
sbsS'rx'
p106
g0
(crpy2.robjects.vectors
ExtractDelegator
p107
g2
Ntp108
Rp109
(dp110
g105
g98
sbsS'rx2'
p111
g0
(crpy2.robjects.vectors
DoubleExtractDelegator
p112
g2
Ntp113
Rp114
(dp115
g105
g98
sbsbsS'response_var_'
p116
S'P231'
p117
sS'edge_cond_'
p118
(dp119
(I1
I2
tp120
(lp121
g28
ag29
ag30
as(I4
I8
tp122
(lp123
g29
as(I4
I5
tp124
(lp125
S'Y'
p126
ag30
as(I5
I7
tp127
(lp128
g30
as(I8
I10
tp129
(lp130
g30
ag31
as(I8
I9
tp131
(lp132
g28
ag29
as(I5
I6
tp133
(lp134
g126
ag29
as(I2
I3
tp135
(lp136
g28
ag30
ag31
as(I1
I11
tp137
(lp138
S'G'
p139
as(I2
I4
tp140
(lp141
S'C'
p142
assS'class_pred_'
p143
g26
sS'CLASSES'
p144
cnumpy.core.multiarray
_reconstruct
p145
(cnumpy
ndarray
p146
(I0
tp147
S'b'
p148
tp149
Rp150
(I1
(I4
tp151
cnumpy
dtype
p152
(S'O8'
p153
I0
I1
tp154
Rp155
(I3
S'|'
p156
NNNI-1
I-1
I63
tp157
bI00
(lp158
g28
ag29
ag31
ag30
atp159
bsS'TREE_LEAF'
p160
(dp161
I1
I00
sI2
I00
sI3
I01
sI4
I00
sI5
I00
sI6
I01
sI7
I01
sI8
I00
sI9
I01
sI10
I01
sI11
I01
ssS'num_pass_'
p162
(dp163
I1
I71
sI2
I59
sI3
I7
sI4
I52
sI5
I25
sI6
I7
sI7
I18
sI8
I27
sI9
I7
sI10
I20
sI11
I12
ssS'error'
p164
(dp165
I1
F63.38028169014085
sI2
F55.932203389830505
sI3
F42.857142857142854
sI4
F50.0
sI5
F28.0
sI6
F28.57142857142857
sI7
F5.555555555555555
sI8
F25.925925925925924
sI9
F0.0
sI10
F0.0
sI11
F0.0
ssS'pvalue'
p166
g45
sS'class_names'
p167
g150
sS'n_node_samples'
p168
g163
sb.