ccopy_reg
_reconstructor
p0
(cmlx
tree_
p1
c__builtin__
object
p2
Ntp3
Rp4
(dp5
S'decision_rules_'
p6
(dp7
I2
S'P1528 %in% c("A")'
p8
sI5
S'P1528 %in% c("G", "T") & P4473 %in% c("A", "C") & P3327 %in% c("A", "C", "G")'
p9
sI6
S'P1528 %in% c("G", "T") & P4473 %in% c("A", "C") & P3327 %in% c("T")'
p10
sI7
S'P1528 %in% c("G", "T") & P4473 %in% c("G", "T")'
p11
ssS'significant_feature_weight_'
p12
(dp13
S'P4473'
p14
F0.5771212298551089
sS'P1528'
p15
F0.97599680667086
sS'P3327'
p16
F0.2897383649457037
ssS'children_left'
p17
(dp18
I1
I2
sI2
NsI3
I4
sI4
I5
sI5
NsI6
NsI7
NssS'ACCx_'
p19
F0.8732394366197183
sS'ACC_'
p20
F0.9154929577464789
sS'value'
p21
(dp22
I1
(dp23
S'A'
p24
F4.0
sS'C'
p25
F22.0
sS'T'
p26
F15.0
sS'G'
p27
F30.0
ssI2
(dp28
g24
F0.0
sg25
F0.0
sg26
F0.0
sg27
F30.0
ssI3
(dp29
g24
F4.0
sg25
F22.0
sg26
F15.0
sg27
F0.0
ssI4
(dp30
g24
F4.0
sg25
F3.0
sg26
F14.0
sg27
F0.0
ssI5
(dp31
g24
F4.0
sg25
F3.0
sg26
F2.0
sg27
F0.0
ssI6
(dp32
g24
F0.0
sg25
F0.0
sg26
F12.0
sg27
F0.0
ssI7
(dp33
g24
F0.0
sg25
F19.0
sg26
F1.0
sg27
F0.0
sssS'tprob_'
p34
(dp35
I2
F0.4225352112676056
sI5
F0.1267605633802817
sI6
F0.16901408450704225
sI7
F0.28169014084507044
ssS'threshold'
p36
(dp37
I1
I0
sI3
F2.4279781185576603e-08
sI4
F0.0248130046496831
ssS'children'
p38
(dp39
I1
c__builtin__
set
p40
((lp41
I2
aI3
atp42
Rp43
sI2
g40
((lp44
tp45
Rp46
sI3
g40
((lp47
I4
aI7
atp48
Rp49
sI4
g40
((lp50
I5
aI6
atp51
Rp52
sI5
g40
((lp53
tp54
Rp55
sI6
g40
((lp56
tp57
Rp58
sI7
g40
((lp59
tp60
Rp61
ssS'children_right'
p62
(dp63
I1
I3
sI2
NsI3
I7
sI4
I6
sI5
NsI6
NsI7
NssS'feature'
p64
(dp65
I1
g15
sI2
S'2'
p66
sI3
g14
sI4
g16
sI5
S'5'
p67
sI6
S'6'
p68
sI7
S'7'
p69
ssS'nodes'
p70
crpy2.robjects.robject
_reduce_robjectmixin
p71
(S'X\n\x00\x00\x00\x02\x00\x03\x05\x03\x00\x02\x03\x00\x00\x00\x00\r\x00\x00\x00\x07\x00\x00\x00\x01\x00\x00\x00\x02\x00\x00\x00\x03\x00\x00\x00\x04\x00\x00\x00\x05\x00\x00\x00\x06\x00\x00\x00\x07'
p72
I13
crpy2.rinterface._rinterface
unserialize
p73
crpy2.robjects.vectors
IntVector
p74
tp75
Rp76
(dp77
S'ro'
p78
g0
(crpy2.robjects.vectors
VectorOperationsDelegator
p79
g2
Ntp80
Rp81
(dp82
S'_parent'
p83
g76
sbsS'rx'
p84
g0
(crpy2.robjects.vectors
ExtractDelegator
p85
g2
Ntp86
Rp87
(dp88
g83
g76
sbsS'rx2'
p89
g0
(crpy2.robjects.vectors
DoubleExtractDelegator
p90
g2
Ntp91
Rp92
(dp93
g83
g76
sbsbsS'response_var_'
p94
S'P4113'
p95
sS'edge_cond_'
p96
(dp97
(I1
I2
tp98
(lp99
S'A'
p100
as(I1
I3
tp101
(lp102
g26
ag27
as(I4
I6
tp103
(lp104
S'T'
p105
as(I4
I5
tp106
(lp107
g24
ag25
ag27
as(I3
I7
tp108
(lp109
g26
ag27
as(I3
I4
tp110
(lp111
g24
ag25
assS'class_pred_'
p112
g22
sS'CLASSES'
p113
cnumpy.core.multiarray
_reconstruct
p114
(cnumpy
ndarray
p115
(I0
tp116
S'b'
p117
tp118
Rp119
(I1
(I4
tp120
cnumpy
dtype
p121
(S'O8'
p122
I0
I1
tp123
Rp124
(I3
S'|'
p125
NNNI-1
I-1
I63
tp126
bI00
(lp127
g24
ag25
ag27
ag26
atp128
bsS'TREE_LEAF'
p129
(dp130
I1
I00
sI2
I01
sI3
I00
sI4
I00
sI5
I01
sI6
I01
sI7
I01
ssS'num_pass_'
p131
(dp132
I1
I71
sI2
I30
sI3
I41
sI4
I21
sI5
I9
sI6
I12
sI7
I20
ssS'error'
p133
(dp134
I1
F57.74647887323943
sI2
F0.0
sI3
F46.34146341463415
sI4
F33.33333333333333
sI5
F55.55555555555555
sI6
F0.0
sI7
F5.0
ssS'pvalue'
p135
g37
sS'class_names'
p136
g119
sS'n_node_samples'
p137
g132
sb.