ccopy_reg
_reconstructor
p0
(cmlx
tree_
p1
c__builtin__
object
p2
Ntp3
Rp4
(dp5
S'decision_rules_'
p6
(dp7
I3
S'P1280 %in% c("A", "C", "Y") & P4068 %in% c("A", "NA", "T", "Y")'
p8
sI4
S'P1280 %in% c("A", "C", "Y") & P4068 %in% c("C", "NA")'
p9
sI6
S'P1280 %in% c("G", "T") & P500 %in% c("A", "C", "NA")'
p10
sI7
S'P1280 %in% c("G", "T") & P500 %in% c("G", "NA")'
p11
ssS'significant_feature_weight_'
p12
(dp13
S'P500'
p14
F0.26240215867955136
sS'P4068'
p15
F0.44387533271762425
sS'P1280'
p16
F0.8969398653701628
ssS'children_left'
p17
(dp18
I1
I2
sI2
I3
sI3
NsI4
NsI5
I6
sI6
NsI7
NssS'ACCx_'
p19
F0.7323943661971831
sS'ACC_'
p20
F0.8309859154929577
sS'value'
p21
(dp22
I1
(dp23
S'A'
p24
F40.0
sS'C'
p25
F1.0
sS'R'
p26
F1.0
sS'T'
p27
F2.0
sS'G'
p28
F27.0
ssI2
(dp29
g24
F9.0
sg25
F1.0
sg26
F1.0
sg27
F1.0
sg28
F21.0
ssI3
(dp30
g24
F9.0
sg25
F1.0
sg26
F1.0
sg27
F1.0
sg28
F8.0
ssI4
(dp31
g24
F0.0
sg25
F0.0
sg26
F0.0
sg27
F0.0
sg28
F13.0
ssI5
(dp32
g24
F31.0
sg25
F0.0
sg26
F0.0
sg27
F1.0
sg28
F6.0
ssI6
(dp33
g24
F0.0
sg25
F0.0
sg26
F0.0
sg27
F1.0
sg28
F6.0
ssI7
(dp34
g24
F31.0
sg25
F0.0
sg26
F0.0
sg27
F0.0
sg28
F0.0
sssS'tprob_'
p35
(dp36
I3
F0.28169014084507044
sI4
F0.18309859154929578
sI6
F0.09859154929577464
sI7
F0.43661971830985913
ssS'threshold'
p37
(dp38
I1
I0
sI2
F1.79070501538092e-07
sI5
F1.5839884959234502e-11
ssS'children'
p39
(dp40
I1
c__builtin__
set
p41
((lp42
I2
aI5
atp43
Rp44
sI2
g41
((lp45
I3
aI4
atp46
Rp47
sI3
g41
((lp48
tp49
Rp50
sI4
g41
((lp51
tp52
Rp53
sI5
g41
((lp54
I6
aI7
atp55
Rp56
sI6
g41
((lp57
tp58
Rp59
sI7
g41
((lp60
tp61
Rp62
ssS'children_right'
p63
(dp64
I1
I5
sI2
I4
sI3
NsI4
NsI5
I7
sI6
NsI7
NssS'feature'
p65
(dp66
I1
g16
sI2
g15
sI3
S'3'
p67
sI4
S'4'
p68
sI5
g14
sI6
S'6'
p69
sI7
S'7'
p70
ssS'nodes'
p71
crpy2.robjects.robject
_reduce_robjectmixin
p72
(S'X\n\x00\x00\x00\x02\x00\x03\x05\x03\x00\x02\x03\x00\x00\x00\x00\r\x00\x00\x00\x07\x00\x00\x00\x01\x00\x00\x00\x02\x00\x00\x00\x03\x00\x00\x00\x04\x00\x00\x00\x05\x00\x00\x00\x06\x00\x00\x00\x07'
p73
I13
crpy2.rinterface._rinterface
unserialize
p74
crpy2.robjects.vectors
IntVector
p75
tp76
Rp77
(dp78
S'ro'
p79
g0
(crpy2.robjects.vectors
VectorOperationsDelegator
p80
g2
Ntp81
Rp82
(dp83
S'_parent'
p84
g77
sbsS'rx'
p85
g0
(crpy2.robjects.vectors
ExtractDelegator
p86
g2
Ntp87
Rp88
(dp89
g84
g77
sbsS'rx2'
p90
g0
(crpy2.robjects.vectors
DoubleExtractDelegator
p91
g2
Ntp92
Rp93
(dp94
g84
g77
sbsbsS'response_var_'
p95
S'P4005'
p96
sS'edge_cond_'
p97
(dp98
(I1
I2
tp99
(lp100
g24
aS'Y'
p101
ag25
as(I5
I6
tp102
(lp103
g24
ag25
as(I5
I7
tp104
(lp105
g28
as(I1
I5
tp106
(lp107
g27
ag28
as(I2
I3
tp108
(lp109
g24
ag101
ag27
as(I2
I4
tp110
(lp111
g25
assS'class_pred_'
p112
g22
sS'CLASSES'
p113
cnumpy.core.multiarray
_reconstruct
p114
(cnumpy
ndarray
p115
(I0
tp116
S'b'
p117
tp118
Rp119
(I1
(I5
tp120
cnumpy
dtype
p121
(S'O8'
p122
I0
I1
tp123
Rp124
(I3
S'|'
p125
NNNI-1
I-1
I63
tp126
bI00
(lp127
g24
ag25
ag28
ag26
ag27
atp128
bsS'TREE_LEAF'
p129
(dp130
I1
I00
sI2
I00
sI3
I01
sI4
I01
sI5
I00
sI6
I01
sI7
I01
ssS'num_pass_'
p131
(dp132
I1
I71
sI2
I33
sI3
I20
sI4
I13
sI5
I38
sI6
I7
sI7
I31
ssS'error'
p133
(dp134
I1
F43.66197183098591
sI2
F36.36363636363636
sI3
F55.0
sI4
F0.0
sI5
F18.421052631578945
sI6
F14.285714285714285
sI7
F0.0
ssS'pvalue'
p135
g38
sS'class_names'
p136
g119
sS'n_node_samples'
p137
g132
sb.