ccopy_reg
_reconstructor
p0
(cmlx
tree_
p1
c__builtin__
object
p2
Ntp3
Rp4
(dp5
S'decision_rules_'
p6
(dp7
I3
S'P3951 %in% c("A", "C", "R", "T") & P2823 %in% c("A", "T")'
p8
sI5
S'P3951 %in% c("A", "C", "R", "T") & P2823 %in% c("C", "G", "W") & P188 %in% c("A")'
p9
sI6
S'P3951 %in% c("A", "C", "R", "T") & P2823 %in% c("C", "G", "W") & P188 %in% c("C", "G", "T", "W")'
p10
sI7
S'P3951 %in% c("G")'
p11
ssS'significant_feature_weight_'
p12
(dp13
S'P3951'
p14
F0.2853535896496085
sS'P188'
p15
F0.27881603999990484
sS'P2823'
p16
F0.6899279766140677
ssS'children_left'
p17
(dp18
I1
I2
sI2
I3
sI3
NsI4
I5
sI5
NsI6
NsI7
NssS'ACCx_'
p19
F0.676056338028169
sS'ACC_'
p20
F0.8028169014084507
sS'value'
p21
(dp22
I1
(dp23
S'A'
p24
F14.0
sS'C'
p25
F1.0
sS'K'
p26
F1.0
sS'G'
p27
F46.0
sS'T'
p28
F9.0
ssI2
(dp29
g24
F7.0
sg25
F1.0
sg26
F1.0
sg27
F46.0
sg28
F9.0
ssI3
(dp30
g24
F3.0
sg25
F0.0
sg26
F0.0
sg27
F8.0
sg28
F9.0
ssI4
(dp31
g24
F4.0
sg25
F1.0
sg26
F1.0
sg27
F38.0
sg28
F0.0
ssI5
(dp32
g24
F0.0
sg25
F0.0
sg26
F0.0
sg27
F37.0
sg28
F0.0
ssI6
(dp33
g24
F4.0
sg25
F1.0
sg26
F1.0
sg27
F1.0
sg28
F0.0
ssI7
(dp34
g24
F7.0
sg25
F0.0
sg26
F0.0
sg27
F0.0
sg28
F0.0
sssS'tprob_'
p35
(dp36
I3
F0.28169014084507044
sI5
F0.5211267605633803
sI6
F0.09859154929577464
sI7
F0.09859154929577464
ssS'threshold'
p37
(dp38
I1
I0
sI2
I0
sI4
I0
ssS'children'
p39
(dp40
I1
c__builtin__
set
p41
((lp42
I2
aI7
atp43
Rp44
sI2
g41
((lp45
I3
aI4
atp46
Rp47
sI3
g41
((lp48
tp49
Rp50
sI4
g41
((lp51
I5
aI6
atp52
Rp53
sI5
g41
((lp54
tp55
Rp56
sI6
g41
((lp57
tp58
Rp59
sI7
g41
((lp60
tp61
Rp62
ssS'children_right'
p63
(dp64
I1
I7
sI2
I4
sI3
NsI4
I6
sI5
NsI6
NsI7
NssS'feature'
p65
(dp66
I1
g14
sI2
g16
sI3
S'3'
p67
sI4
g15
sI5
S'5'
p68
sI6
S'6'
p69
sI7
S'7'
p70
ssS'nodes'
p71
crpy2.robjects.robject
_reduce_robjectmixin
p72
(S'X\n\x00\x00\x00\x02\x00\x03\x05\x03\x00\x02\x03\x00\x00\x00\x00\r\x00\x00\x00\x07\x00\x00\x00\x01\x00\x00\x00\x02\x00\x00\x00\x03\x00\x00\x00\x04\x00\x00\x00\x05\x00\x00\x00\x06\x00\x00\x00\x07'
p73
I13
crpy2.rinterface._rinterface
unserialize
p74
crpy2.robjects.vectors
IntVector
p75
tp76
Rp77
(dp78
S'ro'
p79
g0
(crpy2.robjects.vectors
VectorOperationsDelegator
p80
g2
Ntp81
Rp82
(dp83
S'_parent'
p84
g77
sbsS'rx'
p85
g0
(crpy2.robjects.vectors
ExtractDelegator
p86
g2
Ntp87
Rp88
(dp89
g84
g77
sbsS'rx2'
p90
g0
(crpy2.robjects.vectors
DoubleExtractDelegator
p91
g2
Ntp92
Rp93
(dp94
g84
g77
sbsbsS'response_var_'
p95
S'P2215'
p96
sS'edge_cond_'
p97
(dp98
(I1
I2
tp99
(lp100
g24
ag25
aS'R'
p101
ag28
as(I4
I6
tp102
(lp103
g27
ag25
ag28
aS'W'
p104
as(I4
I5
tp105
(lp106
S'A'
p107
as(I2
I3
tp108
(lp109
g24
ag28
as(I1
I7
tp110
(lp111
S'G'
p112
as(I2
I4
tp113
(lp114
g25
ag27
ag104
assS'class_pred_'
p115
g22
sS'CLASSES'
p116
cnumpy.core.multiarray
_reconstruct
p117
(cnumpy
ndarray
p118
(I0
tp119
S'b'
p120
tp121
Rp122
(I1
(I5
tp123
cnumpy
dtype
p124
(S'O8'
p125
I0
I1
tp126
Rp127
(I3
S'|'
p128
NNNI-1
I-1
I63
tp129
bI00
(lp130
g24
ag25
ag27
ag26
ag28
atp131
bsS'TREE_LEAF'
p132
(dp133
I1
I00
sI2
I00
sI3
I01
sI4
I00
sI5
I01
sI6
I01
sI7
I01
ssS'num_pass_'
p134
(dp135
I1
I71
sI2
I64
sI3
I20
sI4
I44
sI5
I37
sI6
I7
sI7
I7
ssS'error'
p136
(dp137
I1
F35.2112676056338
sI2
F28.125
sI3
F55.0
sI4
F13.636363636363637
sI5
F0.0
sI6
F42.857142857142854
sI7
F0.0
ssS'pvalue'
p138
g38
sS'class_names'
p139
g122
sS'n_node_samples'
p140
g135
sb.