ccopy_reg
_reconstructor
p0
(cmlx
tree_
p1
c__builtin__
object
p2
Ntp3
Rp4
(dp5
S'decision_rules_'
p6
(dp7
I8
S'P3363 %in% c("A", "C", "G", "Y") & P1923 %in% c("C")'
p8
sI9
S'P3363 %in% c("T")'
p9
sI5
S'P3363 %in% c("A", "C", "G", "Y") & P1923 %in% c("A", "G", "T") & P4482 %in% c("A", "C", "G") & P2499 %in% c("A", "G", "T")'
p10
sI6
S'P3363 %in% c("A", "C", "G", "Y") & P1923 %in% c("A", "G", "T") & P4482 %in% c("A", "C", "G") & P2499 %in% c("C")'
p11
sI7
S'P3363 %in% c("A", "C", "G", "Y") & P1923 %in% c("A", "G", "T") & P4482 %in% c("T")'
p12
ssS'significant_feature_weight_'
p13
(dp14
S'P2499'
p15
F0.27887316978797594
sS'P1923'
p16
F0.5169842386235564
sS'P3363'
p17
F0.8093632055319324
sS'P4482'
p18
F0.5489345973697994
ssS'children_left'
p19
(dp20
I1
I9
sI2
I8
sI3
I4
sI4
I5
sI5
NsI6
NsI7
NsI8
NsI9
NssS'ACCx_'
p21
F0.6056338028169015
sS'ACC_'
p22
F0.9014084507042254
sS'value'
p23
(dp24
I1
(dp25
S'A'
p26
F22.0
sS'C'
p27
F12.0
sS'T'
p28
F25.0
sS'G'
p29
F12.0
ssI2
(dp30
g26
F2.0
sg27
F12.0
sg28
F25.0
sg29
F12.0
ssI3
(dp31
g26
F2.0
sg27
F1.0
sg28
F24.0
sg29
F12.0
ssI4
(dp32
g26
F2.0
sg27
F1.0
sg28
F5.0
sg29
F12.0
ssI5
(dp33
g26
F2.0
sg27
F1.0
sg28
F5.0
sg29
F3.0
ssI6
(dp34
g26
F0.0
sg27
F0.0
sg28
F0.0
sg29
F9.0
ssI7
(dp35
g26
F0.0
sg27
F0.0
sg28
F19.0
sg29
F0.0
ssI8
(dp36
g26
F0.0
sg27
F11.0
sg28
F1.0
sg29
F0.0
ssI9
(dp37
g26
F20.0
sg27
F0.0
sg28
F0.0
sg29
F0.0
sssS'tprob_'
p38
(dp39
I8
F0.16901408450704225
sI9
F0.28169014084507044
sI5
F0.15492957746478872
sI6
F0.1267605633802817
sI7
F0.2676056338028169
ssS'threshold'
p40
(dp41
I1
I0
sI2
I0
sI3
F2.78221889971064e-13
sI4
F0.00199385001116403
ssS'children'
p42
(dp43
I1
c__builtin__
set
p44
((lp45
I9
aI2
atp46
Rp47
sI2
g44
((lp48
I8
aI3
atp49
Rp50
sI3
g44
((lp51
I4
aI7
atp52
Rp53
sI4
g44
((lp54
I5
aI6
atp55
Rp56
sI5
g44
((lp57
tp58
Rp59
sI6
g44
((lp60
tp61
Rp62
sI7
g44
((lp63
tp64
Rp65
sI8
g44
((lp66
tp67
Rp68
sI9
g44
((lp69
tp70
Rp71
ssS'children_right'
p72
(dp73
I1
I2
sI2
I3
sI3
I7
sI4
I6
sI5
NsI6
NsI7
NsI8
NsI9
NssS'feature'
p74
(dp75
I1
g17
sI2
g16
sI3
g18
sI4
g15
sI5
S'5'
p76
sI6
S'6'
p77
sI7
S'7'
p78
sI8
S'8'
p79
sI9
S'9'
p80
ssS'nodes'
p81
crpy2.robjects.robject
_reduce_robjectmixin
p82
(S'X\n\x00\x00\x00\x02\x00\x03\x05\x03\x00\x02\x03\x00\x00\x00\x00\r\x00\x00\x00\t\x00\x00\x00\x01\x00\x00\x00\x02\x00\x00\x00\x03\x00\x00\x00\x04\x00\x00\x00\x05\x00\x00\x00\x06\x00\x00\x00\x07\x00\x00\x00\x08\x00\x00\x00\t'
p83
I13
crpy2.rinterface._rinterface
unserialize
p84
crpy2.robjects.vectors
IntVector
p85
tp86
Rp87
(dp88
S'ro'
p89
g0
(crpy2.robjects.vectors
VectorOperationsDelegator
p90
g2
Ntp91
Rp92
(dp93
S'_parent'
p94
g87
sbsS'rx'
p95
g0
(crpy2.robjects.vectors
ExtractDelegator
p96
g2
Ntp97
Rp98
(dp99
g94
g87
sbsS'rx2'
p100
g0
(crpy2.robjects.vectors
DoubleExtractDelegator
p101
g2
Ntp102
Rp103
(dp104
g94
g87
sbsbsS'response_var_'
p105
S'P2556'
p106
sS'edge_cond_'
p107
(dp108
(I1
I2
tp109
(lp110
g26
aS'Y'
p111
ag27
ag29
as(I4
I6
tp112
(lp113
S'C'
p114
as(I4
I5
tp115
(lp116
g26
ag28
ag29
as(I2
I8
tp117
(lp118
S'C'
p119
as(I2
I3
tp120
(lp121
g26
ag28
ag29
as(I1
I9
tp122
(lp123
S'T'
p124
as(I3
I7
tp125
(lp126
S'T'
p127
as(I3
I4
tp128
(lp129
g26
ag27
ag29
assS'class_pred_'
p130
g24
sS'CLASSES'
p131
cnumpy.core.multiarray
_reconstruct
p132
(cnumpy
ndarray
p133
(I0
tp134
S'b'
p135
tp136
Rp137
(I1
(I4
tp138
cnumpy
dtype
p139
(S'O8'
p140
I0
I1
tp141
Rp142
(I3
S'|'
p143
NNNI-1
I-1
I63
tp144
bI00
(lp145
g26
ag27
ag29
ag28
atp146
bsS'TREE_LEAF'
p147
(dp148
I1
I00
sI2
I00
sI3
I00
sI4
I00
sI5
I01
sI6
I01
sI7
I01
sI8
I01
sI9
I01
ssS'num_pass_'
p149
(dp150
I1
I71
sI2
I51
sI3
I39
sI4
I20
sI5
I11
sI6
I9
sI7
I19
sI8
I12
sI9
I20
ssS'error'
p151
(dp152
I1
F64.78873239436619
sI2
F50.98039215686274
sI3
F38.46153846153846
sI4
F40.0
sI5
F54.54545454545455
sI6
F0.0
sI7
F0.0
sI8
F8.333333333333332
sI9
F0.0
ssS'pvalue'
p153
g41
sS'class_names'
p154
g137
sS'n_node_samples'
p155
g150
sb.