ccopy_reg
_reconstructor
p0
(cmlx
tree_
p1
c__builtin__
object
p2
Ntp3
Rp4
(dp5
S'decision_rules_'
p6
(dp7
I4
S'P1322 %in% c("A", "G", "T") & P559 %in% c("A", "C", "T") & P559 %in% c("A", "NA", "T")'
p8
sI5
S'P1322 %in% c("A", "G", "T") & P559 %in% c("A", "C", "T") & P559 %in% c("C", "NA")'
p9
sI6
S'P1322 %in% c("A", "G", "T") & P559 %in% c("G")'
p10
sI7
S'P1322 %in% c("C")'
p11
ssS'significant_feature_weight_'
p12
(dp13
S'P1322'
p14
F0.8497358382381777
sS'P559'
p15
F0.7904262044000556
ssS'children_left'
p16
(dp17
I1
I2
sI2
I3
sI3
I4
sI4
NsI5
NsI6
NsI7
NssS'ACCx_'
p18
F0.9014084507042254
sS'ACC_'
p19
F0.9577464788732395
sS'value'
p20
(dp21
I1
(dp22
S'A'
p23
F27.0
sS'C'
p24
F17.0
sS'T'
p25
F21.0
sS'G'
p26
F6.0
ssI2
(dp27
g23
F0.0
sg24
F17.0
sg25
F21.0
sg26
F6.0
ssI3
(dp28
g23
F0.0
sg24
F16.0
sg25
F21.0
sg26
F0.0
ssI4
(dp29
g23
F0.0
sg24
F1.0
sg25
F20.0
sg26
F0.0
ssI5
(dp30
g23
F0.0
sg24
F15.0
sg25
F1.0
sg26
F0.0
ssI6
(dp31
g23
F0.0
sg24
F1.0
sg25
F0.0
sg26
F6.0
ssI7
(dp32
g23
F27.0
sg24
F0.0
sg25
F0.0
sg26
F0.0
sssS'tprob_'
p33
(dp34
I4
F0.29577464788732394
sI5
F0.22535211267605634
sI6
F0.09859154929577464
sI7
F0.38028169014084506
ssS'threshold'
p35
(dp36
I1
I0
sI2
F2.66002397886211e-09
sI3
F0.00269922020475544
ssS'children'
p37
(dp38
I1
c__builtin__
set
p39
((lp40
I2
aI7
atp41
Rp42
sI2
g39
((lp43
I3
aI6
atp44
Rp45
sI3
g39
((lp46
I4
aI5
atp47
Rp48
sI4
g39
((lp49
tp50
Rp51
sI5
g39
((lp52
tp53
Rp54
sI6
g39
((lp55
tp56
Rp57
sI7
g39
((lp58
tp59
Rp60
ssS'children_right'
p61
(dp62
I1
I7
sI2
I6
sI3
I5
sI4
NsI5
NsI6
NsI7
NssS'feature'
p63
(dp64
I1
g14
sI2
S'P559'
p65
sI3
g15
sI4
S'4'
p66
sI5
S'5'
p67
sI6
S'6'
p68
sI7
S'7'
p69
ssS'nodes'
p70
crpy2.robjects.robject
_reduce_robjectmixin
p71
(S'X\n\x00\x00\x00\x02\x00\x03\x05\x03\x00\x02\x03\x00\x00\x00\x00\r\x00\x00\x00\x07\x00\x00\x00\x01\x00\x00\x00\x02\x00\x00\x00\x03\x00\x00\x00\x04\x00\x00\x00\x05\x00\x00\x00\x06\x00\x00\x00\x07'
p72
I13
crpy2.rinterface._rinterface
unserialize
p73
crpy2.robjects.vectors
IntVector
p74
tp75
Rp76
(dp77
S'ro'
p78
g0
(crpy2.robjects.vectors
VectorOperationsDelegator
p79
g2
Ntp80
Rp81
(dp82
S'_parent'
p83
g76
sbsS'rx'
p84
g0
(crpy2.robjects.vectors
ExtractDelegator
p85
g2
Ntp86
Rp87
(dp88
g83
g76
sbsS'rx2'
p89
g0
(crpy2.robjects.vectors
DoubleExtractDelegator
p90
g2
Ntp91
Rp92
(dp93
g83
g76
sbsbsS'response_var_'
p94
S'P1332'
p95
sS'edge_cond_'
p96
(dp97
(I1
I2
tp98
(lp99
g23
ag25
ag26
as(I2
I6
tp100
(lp101
S'G'
p102
as(I2
I3
tp103
(lp104
g23
ag24
ag25
as(I1
I7
tp105
(lp106
S'C'
p107
as(I3
I4
tp108
(lp109
g23
ag25
as(I3
I5
tp110
(lp111
g24
assS'class_pred_'
p112
g21
sS'CLASSES'
p113
cnumpy.core.multiarray
_reconstruct
p114
(cnumpy
ndarray
p115
(I0
tp116
S'b'
p117
tp118
Rp119
(I1
(I4
tp120
cnumpy
dtype
p121
(S'O8'
p122
I0
I1
tp123
Rp124
(I3
S'|'
p125
NNNI-1
I-1
I63
tp126
bI00
(lp127
g23
ag24
ag26
ag25
atp128
bsS'TREE_LEAF'
p129
(dp130
I1
I00
sI2
I00
sI3
I00
sI4
I01
sI5
I01
sI6
I01
sI7
I01
ssS'num_pass_'
p131
(dp132
I1
I71
sI2
I44
sI3
I37
sI4
I21
sI5
I16
sI6
I7
sI7
I27
ssS'error'
p133
(dp134
I1
F61.97183098591549
sI2
F52.272727272727266
sI3
F43.24324324324324
sI4
F4.761904761904762
sI5
F6.25
sI6
F14.285714285714285
sI7
F0.0
ssS'pvalue'
p135
g36
sS'class_names'
p136
g119
sS'n_node_samples'
p137
g132
sb.