ccopy_reg
_reconstructor
p0
(cmlx
tree_
p1
c__builtin__
object
p2
Ntp3
Rp4
(dp5
S'decision_rules_'
p6
(dp7
I3
S'P3054 %in% c("A", "C", "G") & P3681 %in% c("A", "T")'
p8
sI5
S'P3054 %in% c("A", "C", "G") & P3681 %in% c("C", "G") & P2649 %in% c("NA", "C", "G")'
p9
sI6
S'P3054 %in% c("A", "C", "G") & P3681 %in% c("C", "G") & P2649 %in% c("NA", "T")'
p10
sI7
S'P3054 %in% c("T")'
p11
ssS'significant_feature_weight_'
p12
(dp13
S'P2649'
p14
F0.0
sS'P3054'
p15
F0.2853535896496085
sS'P3681'
p16
F0.3127734819448349
ssS'children_left'
p17
(dp18
I1
I2
sI2
I3
sI3
NsI4
I5
sI5
NsI6
NsI7
NssS'ACCx_'
p19
F0.8873239436619719
sS'ACC_'
p20
F0.971830985915493
sS'value'
p21
(dp22
I1
(dp23
S'A'
p24
F7.0
sS'C'
p25
F55.0
sS'T'
p26
F9.0
ssI2
(dp27
g24
F0.0
sg25
F55.0
sg26
F9.0
ssI3
(dp28
g24
F0.0
sg25
F0.0
sg26
F7.0
ssI4
(dp29
g24
F0.0
sg25
F55.0
sg26
F2.0
ssI5
(dp30
g24
F0.0
sg25
F22.0
sg26
F2.0
ssI6
(dp31
g24
F0.0
sg25
F33.0
sg26
F0.0
ssI7
(dp32
g24
F7.0
sg25
F0.0
sg26
F0.0
sssS'tprob_'
p33
(dp34
I3
F0.09859154929577464
sI5
F0.3380281690140845
sI6
F0.4647887323943662
sI7
F0.09859154929577464
ssS'threshold'
p35
(dp36
I1
F8.26005930321116e-14
sI2
F1.4647405699452801e-06
sI4
F3.3776844654553896e-09
ssS'children'
p37
(dp38
I1
c__builtin__
set
p39
((lp40
I2
aI7
atp41
Rp42
sI2
g39
((lp43
I3
aI4
atp44
Rp45
sI3
g39
((lp46
tp47
Rp48
sI4
g39
((lp49
I5
aI6
atp50
Rp51
sI5
g39
((lp52
tp53
Rp54
sI6
g39
((lp55
tp56
Rp57
sI7
g39
((lp58
tp59
Rp60
ssS'children_right'
p61
(dp62
I1
I7
sI2
I4
sI3
NsI4
I6
sI5
NsI6
NsI7
NssS'feature'
p63
(dp64
I1
g15
sI2
g16
sI3
S'3'
p65
sI4
g14
sI5
S'5'
p66
sI6
S'6'
p67
sI7
S'7'
p68
ssS'nodes'
p69
crpy2.robjects.robject
_reduce_robjectmixin
p70
(S'X\n\x00\x00\x00\x02\x00\x03\x05\x03\x00\x02\x03\x00\x00\x00\x00\r\x00\x00\x00\x07\x00\x00\x00\x01\x00\x00\x00\x02\x00\x00\x00\x03\x00\x00\x00\x04\x00\x00\x00\x05\x00\x00\x00\x06\x00\x00\x00\x07'
p71
I13
crpy2.rinterface._rinterface
unserialize
p72
crpy2.robjects.vectors
IntVector
p73
tp74
Rp75
(dp76
S'ro'
p77
g0
(crpy2.robjects.vectors
VectorOperationsDelegator
p78
g2
Ntp79
Rp80
(dp81
S'_parent'
p82
g75
sbsS'rx'
p83
g0
(crpy2.robjects.vectors
ExtractDelegator
p84
g2
Ntp85
Rp86
(dp87
g82
g75
sbsS'rx2'
p88
g0
(crpy2.robjects.vectors
DoubleExtractDelegator
p89
g2
Ntp90
Rp91
(dp92
g82
g75
sbsbsS'response_var_'
p93
S'P2835'
p94
sS'edge_cond_'
p95
(dp96
(I1
I2
tp97
(lp98
g24
ag25
aS'G'
p99
as(I4
I6
tp100
(lp101
g26
as(I4
I5
tp102
(lp103
g25
ag99
as(I2
I3
tp104
(lp105
g24
ag26
as(I1
I7
tp106
(lp107
S'T'
p108
as(I2
I4
tp109
(lp110
g25
ag99
assS'class_pred_'
p111
g22
sS'CLASSES'
p112
cnumpy.core.multiarray
_reconstruct
p113
(cnumpy
ndarray
p114
(I0
tp115
S'b'
p116
tp117
Rp118
(I1
(I3
tp119
cnumpy
dtype
p120
(S'O8'
p121
I0
I1
tp122
Rp123
(I3
S'|'
p124
NNNI-1
I-1
I63
tp125
bI00
(lp126
g24
ag25
ag26
atp127
bsS'TREE_LEAF'
p128
(dp129
I1
I00
sI2
I00
sI3
I01
sI4
I00
sI5
I01
sI6
I01
sI7
I01
ssS'num_pass_'
p130
(dp131
I1
I71
sI2
I64
sI3
I7
sI4
I57
sI5
I24
sI6
I33
sI7
I7
ssS'error'
p132
(dp133
I1
F22.535211267605632
sI2
F14.0625
sI3
F0.0
sI4
F3.508771929824561
sI5
F8.333333333333332
sI6
F0.0
sI7
F0.0
ssS'pvalue'
p134
g36
sS'class_names'
p135
g118
sS'n_node_samples'
p136
g131
sb.