ccopy_reg
_reconstructor
p0
(cmlx
tree_
p1
c__builtin__
object
p2
Ntp3
Rp4
(dp5
S'decision_rules_'
p6
(dp7
I3
S'P3690 %in% c("A") & P3918 %in% c("NA", "G", "T")'
p8
sI4
S'P3690 %in% c("A") & P3918 %in% c("NA", "C")'
p9
sI7
S'P3690 %in% c("C", "G", "T") & P2465 %in% c("A", "C", "T") & P239 %in% c("A", "G", "T")'
p10
sI9
S'P3690 %in% c("C", "G", "T") & P2465 %in% c("A", "C", "T") & P239 %in% c("C") & P786 %in% c("A", "C", "NA")'
p11
sI10
S'P3690 %in% c("C", "G", "T") & P2465 %in% c("A", "C", "T") & P239 %in% c("C") & P786 %in% c("G", "NA")'
p12
sI11
S'P3690 %in% c("C", "G", "T") & P2465 %in% c("G")'
p13
ssS'significant_feature_weight_'
p14
(dp15
S'P2465'
p16
F0.514654304580669
sS'P3690'
p17
F0.7295736627355683
sS'P239'
p18
F0.2558580976944593
sS'P786'
p19
F0.3263719864741152
sS'P3918'
p20
F0.281690070492905
ssS'children_left'
p21
(dp22
I1
I2
sI2
I3
sI3
NsI4
NsI5
I11
sI6
I8
sI7
NsI8
I9
sI9
NsI10
NsI11
NssS'ACCx_'
p23
F0.8169014084507042
sS'ACC_'
p24
F0.9295774647887324
sS'value'
p25
(dp26
I1
(dp27
S'A'
p28
F31.0
sS'C'
p29
F26.0
sS'T'
p30
F2.0
sS'G'
p31
F12.0
ssI2
(dp32
g28
F8.0
sg29
F1.0
sg30
F0.0
sg31
F11.0
ssI3
(dp33
g28
F8.0
sg29
F1.0
sg30
F0.0
sg31
F1.0
ssI4
(dp34
g28
F0.0
sg29
F0.0
sg30
F0.0
sg31
F10.0
ssI5
(dp35
g28
F23.0
sg29
F25.0
sg30
F2.0
sg31
F1.0
ssI6
(dp36
g28
F8.0
sg29
F25.0
sg30
F2.0
sg31
F1.0
ssI7
(dp37
g28
F0.0
sg29
F4.0
sg30
F2.0
sg31
F1.0
ssI8
(dp38
g28
F8.0
sg29
F21.0
sg30
F0.0
sg31
F0.0
ssI9
(dp39
g28
F0.0
sg29
F21.0
sg30
F0.0
sg31
F0.0
ssI10
(dp40
g28
F8.0
sg29
F0.0
sg30
F0.0
sg31
F0.0
ssI11
(dp41
g28
F15.0
sg29
F0.0
sg30
F0.0
sg31
F0.0
sssS'tprob_'
p42
(dp43
I3
F0.14084507042253522
sI4
F0.14084507042253522
sI7
F0.09859154929577464
sI9
F0.29577464788732394
sI10
F0.11267605633802817
sI11
F0.2112676056338028
ssS'threshold'
p44
(dp45
I8
F0.00405378063974993
sI1
F7.66053886991358e-15
sI2
F0.00307565214636485
sI5
F2.99760216648792e-15
sI6
F3.7002188091328505e-08
ssS'children'
p46
(dp47
I1
c__builtin__
set
p48
((lp49
I2
aI5
atp50
Rp51
sI2
g48
((lp52
I3
aI4
atp53
Rp54
sI3
g48
((lp55
tp56
Rp57
sI4
g48
((lp58
tp59
Rp60
sI5
g48
((lp61
I11
aI6
atp62
Rp63
sI6
g48
((lp64
I8
aI7
atp65
Rp66
sI7
g48
((lp67
tp68
Rp69
sI8
g48
((lp70
I9
aI10
atp71
Rp72
sI9
g48
((lp73
tp74
Rp75
sI10
g48
((lp76
tp77
Rp78
sI11
g48
((lp79
tp80
Rp81
ssS'children_right'
p82
(dp83
I1
I5
sI2
I4
sI3
NsI4
NsI5
I6
sI6
I7
sI7
NsI8
I10
sI9
NsI10
NsI11
NssS'feature'
p84
(dp85
I1
g17
sI2
g20
sI3
S'3'
p86
sI4
S'4'
p87
sI5
g16
sI6
g18
sI7
S'7'
p88
sI8
g19
sI9
S'9'
p89
sI10
S'10'
p90
sI11
S'11'
p91
ssS'nodes'
p92
crpy2.robjects.robject
_reduce_robjectmixin
p93
(S'X\n\x00\x00\x00\x02\x00\x03\x05\x03\x00\x02\x03\x00\x00\x00\x00\r\x00\x00\x00\x0b\x00\x00\x00\x01\x00\x00\x00\x02\x00\x00\x00\x03\x00\x00\x00\x04\x00\x00\x00\x05\x00\x00\x00\x06\x00\x00\x00\x07\x00\x00\x00\x08\x00\x00\x00\t\x00\x00\x00\n\x00\x00\x00\x0b'
p94
I13
crpy2.rinterface._rinterface
unserialize
p95
crpy2.robjects.vectors
IntVector
p96
tp97
Rp98
(dp99
S'ro'
p100
g0
(crpy2.robjects.vectors
VectorOperationsDelegator
p101
g2
Ntp102
Rp103
(dp104
S'_parent'
p105
g98
sbsS'rx'
p106
g0
(crpy2.robjects.vectors
ExtractDelegator
p107
g2
Ntp108
Rp109
(dp110
g105
g98
sbsS'rx2'
p111
g0
(crpy2.robjects.vectors
DoubleExtractDelegator
p112
g2
Ntp113
Rp114
(dp115
g105
g98
sbsbsS'response_var_'
p116
S'P419'
p117
sS'edge_cond_'
p118
(dp119
(I1
I2
tp120
(lp121
S'A'
p122
as(I6
I7
tp123
(lp124
g28
ag30
ag31
as(I6
I8
tp125
(lp126
S'C'
p127
as(I5
I11
tp128
(lp129
S'G'
p130
as(I5
I6
tp131
(lp132
g28
ag29
ag30
as(I8
I10
tp133
(lp134
g31
as(I8
I9
tp135
(lp136
g28
ag29
as(I1
I5
tp137
(lp138
g29
ag30
ag31
as(I2
I3
tp139
(lp140
g30
ag31
as(I2
I4
tp141
(lp142
g29
assS'class_pred_'
p143
g26
sS'CLASSES'
p144
cnumpy.core.multiarray
_reconstruct
p145
(cnumpy
ndarray
p146
(I0
tp147
S'b'
p148
tp149
Rp150
(I1
(I4
tp151
cnumpy
dtype
p152
(S'O8'
p153
I0
I1
tp154
Rp155
(I3
S'|'
p156
NNNI-1
I-1
I63
tp157
bI00
(lp158
g28
ag29
ag31
ag30
atp159
bsS'TREE_LEAF'
p160
(dp161
I1
I00
sI2
I00
sI3
I01
sI4
I01
sI5
I00
sI6
I00
sI7
I01
sI8
I00
sI9
I01
sI10
I01
sI11
I01
ssS'num_pass_'
p162
(dp163
I1
I71
sI2
I20
sI3
I10
sI4
I10
sI5
I51
sI6
I36
sI7
I7
sI8
I29
sI9
I21
sI10
I8
sI11
I15
ssS'error'
p164
(dp165
I1
F56.33802816901409
sI2
F45.0
sI3
F20.0
sI4
F0.0
sI5
F50.98039215686275
sI6
F30.555555555555554
sI7
F42.857142857142854
sI8
F27.586206896551722
sI9
F0.0
sI10
F0.0
sI11
F0.0
ssS'pvalue'
p166
g45
sS'class_names'
p167
g150
sS'n_node_samples'
p168
g163
sb.