ccopy_reg
_reconstructor
p0
(cmlx
tree_
p1
c__builtin__
object
p2
Ntp3
Rp4
(dp5
S'decision_rules_'
p6
(dp7
I8
S'P3894 %in% c("C", "G", "T") & P2670 %in% c("C", "G", "T") & P2676 %in% c("A", "C", "G") & P648 %in% c("C")'
p8
sI9
S'P3894 %in% c("C", "G", "T") & P2670 %in% c("C", "G", "T") & P2676 %in% c("T")'
p9
sI2
S'P3894 %in% c("A")'
p10
sI4
S'P3894 %in% c("C", "G", "T") & P2670 %in% c("A")'
p11
sI7
S'P3894 %in% c("C", "G", "T") & P2670 %in% c("C", "G", "T") & P2676 %in% c("A", "C", "G") & P648 %in% c("A", "G", "T")'
p12
ssS'significant_feature_weight_'
p13
(dp14
S'P2670'
p15
F0.27636714980785937
sS'P2676'
p16
F0.4929577084631329
sS'P648'
p17
F0.29510389022247596
sS'P3894'
p18
F0.8611795942536894
ssS'children_left'
p19
(dp20
I1
I2
sI2
NsI3
I4
sI4
NsI5
I9
sI6
I8
sI7
NsI8
NsI9
NssS'ACCx_'
p21
F0.8169014084507042
sS'ACC_'
p22
F0.9295774647887324
sS'value'
p23
(dp24
I1
(dp25
S'A'
p26
F29.0
sS'C'
p27
F25.0
sS'T'
p28
F9.0
sS'G'
p29
F8.0
ssI2
(dp30
g26
F28.0
sg27
F0.0
sg28
F0.0
sg29
F0.0
ssI3
(dp31
g26
F1.0
sg27
F25.0
sg28
F9.0
sg29
F8.0
ssI4
(dp32
g26
F0.0
sg27
F0.0
sg28
F1.0
sg29
F6.0
ssI5
(dp33
g26
F1.0
sg27
F25.0
sg28
F8.0
sg29
F2.0
ssI6
(dp34
g26
F1.0
sg27
F10.0
sg28
F8.0
sg29
F2.0
ssI7
(dp35
g26
F1.0
sg27
F0.0
sg28
F7.0
sg29
F2.0
ssI8
(dp36
g26
F0.0
sg27
F10.0
sg28
F1.0
sg29
F0.0
ssI9
(dp37
g26
F0.0
sg27
F15.0
sg28
F0.0
sg29
F0.0
sssS'tprob_'
p38
(dp39
I8
F0.15492957746478872
sI9
F0.2112676056338028
sI2
F0.39436619718309857
sI4
F0.09859154929577464
sI7
F0.14084507042253522
ssS'threshold'
p40
(dp41
I1
I0
sI3
F1.82210802002203e-10
sI5
F1.0708208764142999e-09
sI6
F3.99075678830796e-05
ssS'children'
p42
(dp43
I1
c__builtin__
set
p44
((lp45
I2
aI3
atp46
Rp47
sI2
g44
((lp48
tp49
Rp50
sI3
g44
((lp51
I4
aI5
atp52
Rp53
sI4
g44
((lp54
tp55
Rp56
sI5
g44
((lp57
I9
aI6
atp58
Rp59
sI6
g44
((lp60
I8
aI7
atp61
Rp62
sI7
g44
((lp63
tp64
Rp65
sI8
g44
((lp66
tp67
Rp68
sI9
g44
((lp69
tp70
Rp71
ssS'children_right'
p72
(dp73
I1
I3
sI2
NsI3
I5
sI4
NsI5
I6
sI6
I7
sI7
NsI8
NsI9
NssS'feature'
p74
(dp75
I1
g18
sI2
S'2'
p76
sI3
g15
sI4
S'4'
p77
sI5
g16
sI6
g17
sI7
S'7'
p78
sI8
S'8'
p79
sI9
S'9'
p80
ssS'nodes'
p81
crpy2.robjects.robject
_reduce_robjectmixin
p82
(S'X\n\x00\x00\x00\x02\x00\x03\x05\x03\x00\x02\x03\x00\x00\x00\x00\r\x00\x00\x00\t\x00\x00\x00\x01\x00\x00\x00\x02\x00\x00\x00\x03\x00\x00\x00\x04\x00\x00\x00\x05\x00\x00\x00\x06\x00\x00\x00\x07\x00\x00\x00\x08\x00\x00\x00\t'
p83
I13
crpy2.rinterface._rinterface
unserialize
p84
crpy2.robjects.vectors
IntVector
p85
tp86
Rp87
(dp88
S'ro'
p89
g0
(crpy2.robjects.vectors
VectorOperationsDelegator
p90
g2
Ntp91
Rp92
(dp93
S'_parent'
p94
g87
sbsS'rx'
p95
g0
(crpy2.robjects.vectors
ExtractDelegator
p96
g2
Ntp97
Rp98
(dp99
g94
g87
sbsS'rx2'
p100
g0
(crpy2.robjects.vectors
DoubleExtractDelegator
p101
g2
Ntp102
Rp103
(dp104
g94
g87
sbsbsS'response_var_'
p105
S'P2130'
p106
sS'edge_cond_'
p107
(dp108
(I1
I2
tp109
(lp110
S'A'
p111
as(I5
I9
tp112
(lp113
S'T'
p114
as(I1
I3
tp115
(lp116
g27
ag28
ag29
as(I6
I7
tp117
(lp118
g26
ag28
ag29
as(I6
I8
tp119
(lp120
S'C'
p121
as(I5
I6
tp122
(lp123
g26
ag27
ag29
as(I3
I4
tp124
(lp125
S'A'
p126
as(I3
I5
tp127
(lp128
g27
ag28
ag29
assS'class_pred_'
p129
g24
sS'CLASSES'
p130
cnumpy.core.multiarray
_reconstruct
p131
(cnumpy
ndarray
p132
(I0
tp133
S'b'
p134
tp135
Rp136
(I1
(I4
tp137
cnumpy
dtype
p138
(S'O8'
p139
I0
I1
tp140
Rp141
(I3
S'|'
p142
NNNI-1
I-1
I63
tp143
bI00
(lp144
g26
ag27
ag29
ag28
atp145
bsS'TREE_LEAF'
p146
(dp147
I1
I00
sI2
I01
sI3
I00
sI4
I01
sI5
I00
sI6
I00
sI7
I01
sI8
I01
sI9
I01
ssS'num_pass_'
p148
(dp149
I1
I71
sI2
I28
sI3
I43
sI4
I7
sI5
I36
sI6
I21
sI7
I10
sI8
I11
sI9
I15
ssS'error'
p150
(dp151
I1
F59.154929577464785
sI2
F0.0
sI3
F41.86046511627907
sI4
F14.285714285714285
sI5
F30.555555555555554
sI6
F52.38095238095238
sI7
F30.0
sI8
F9.090909090909092
sI9
F0.0
ssS'pvalue'
p152
g41
sS'class_names'
p153
g136
sS'n_node_samples'
p154
g149
sb.