ccopy_reg
_reconstructor
p0
(cmlx
tree_
p1
c__builtin__
object
p2
Ntp3
Rp4
(dp5
S'decision_rules_'
p6
(dp7
I8
S'P823 %in% c("A", "C", "G", "N") & P799 %in% c("C", "G", "T")'
p8
sI9
S'P823 %in% c("T")'
p9
sI4
S'P823 %in% c("A", "C", "G", "N") & P799 %in% c("A", "N") & P792 %in% c("A", "NA", "N", "T")'
p10
sI6
S'P823 %in% c("A", "C", "G", "N") & P799 %in% c("A", "N") & P792 %in% c("C", "NA") & P353 %in% c("A", "T")'
p11
sI7
S'P823 %in% c("A", "C", "G", "N") & P799 %in% c("A", "N") & P792 %in% c("C", "NA") & P353 %in% c("C")'
p12
ssS'significant_feature_weight_'
p13
(dp14
S'P823'
p15
F0.8611795942536894
sS'P792'
p16
F0.38028166081441683
sS'P353'
p17
F0.3380281226796652
sS'P799'
p18
F0.27636714980785937
ssS'children_left'
p19
(dp20
I1
I9
sI2
I8
sI3
I4
sI4
NsI5
I6
sI6
NsI7
NsI8
NsI9
NssS'ACCx_'
p21
F0.3943661971830986
sS'ACC_'
p22
F0.8732394366197183
sS'value'
p23
(dp24
I1
(dp25
S'A'
p26
F18.0
sS'C'
p27
F28.0
sS'T'
p28
F3.0
sS'G'
p29
F21.0
sS'N'
p30
F1.0
ssI2
(dp31
g26
F17.0
sg27
F1.0
sg28
F3.0
sg29
F21.0
sg30
F1.0
ssI3
(dp32
g26
F14.0
sg27
F0.0
sg28
F0.0
sg29
F21.0
sg30
F1.0
ssI4
(dp33
g26
F8.0
sg27
F0.0
sg28
F0.0
sg29
F0.0
sg30
F1.0
ssI5
(dp34
g26
F6.0
sg27
F0.0
sg28
F0.0
sg29
F21.0
sg30
F0.0
ssI6
(dp35
g26
F6.0
sg27
F0.0
sg28
F0.0
sg29
F3.0
sg30
F0.0
ssI7
(dp36
g26
F0.0
sg27
F0.0
sg28
F0.0
sg29
F18.0
sg30
F0.0
ssI8
(dp37
g26
F3.0
sg27
F1.0
sg28
F3.0
sg29
F0.0
sg30
F0.0
ssI9
(dp38
g26
F1.0
sg27
F27.0
sg28
F0.0
sg29
F0.0
sg30
F0.0
sssS'tprob_'
p39
(dp40
I8
F0.09859154929577464
sI9
F0.39436619718309857
sI4
F0.1267605633802817
sI6
F0.1267605633802817
sI7
F0.2535211267605634
ssS'threshold'
p41
(dp42
I1
I0
sI2
F2.2204460492503099e-16
sI3
F1.77679394022245e-05
sI5
F0.0109809855728646
ssS'children'
p43
(dp44
I1
c__builtin__
set
p45
((lp46
I9
aI2
atp47
Rp48
sI2
g45
((lp49
I8
aI3
atp50
Rp51
sI3
g45
((lp52
I4
aI5
atp53
Rp54
sI4
g45
((lp55
tp56
Rp57
sI5
g45
((lp58
I6
aI7
atp59
Rp60
sI6
g45
((lp61
tp62
Rp63
sI7
g45
((lp64
tp65
Rp66
sI8
g45
((lp67
tp68
Rp69
sI9
g45
((lp70
tp71
Rp72
ssS'children_right'
p73
(dp74
I1
I2
sI2
I3
sI3
I5
sI4
NsI5
I7
sI6
NsI7
NsI8
NsI9
NssS'feature'
p75
(dp76
I1
g15
sI2
g18
sI3
g16
sI4
S'4'
p77
sI5
g17
sI6
S'6'
p78
sI7
S'7'
p79
sI8
S'8'
p80
sI9
S'9'
p81
ssS'nodes'
p82
crpy2.robjects.robject
_reduce_robjectmixin
p83
(S'X\n\x00\x00\x00\x02\x00\x03\x05\x03\x00\x02\x03\x00\x00\x00\x00\r\x00\x00\x00\t\x00\x00\x00\x01\x00\x00\x00\x02\x00\x00\x00\x03\x00\x00\x00\x04\x00\x00\x00\x05\x00\x00\x00\x06\x00\x00\x00\x07\x00\x00\x00\x08\x00\x00\x00\t'
p84
I13
crpy2.rinterface._rinterface
unserialize
p85
crpy2.robjects.vectors
IntVector
p86
tp87
Rp88
(dp89
S'ro'
p90
g0
(crpy2.robjects.vectors
VectorOperationsDelegator
p91
g2
Ntp92
Rp93
(dp94
S'_parent'
p95
g88
sbsS'rx'
p96
g0
(crpy2.robjects.vectors
ExtractDelegator
p97
g2
Ntp98
Rp99
(dp100
g95
g88
sbsS'rx2'
p101
g0
(crpy2.robjects.vectors
DoubleExtractDelegator
p102
g2
Ntp103
Rp104
(dp105
g95
g88
sbsbsS'response_var_'
p106
S'P763'
p107
sS'edge_cond_'
p108
(dp109
(I1
I2
tp110
(lp111
g26
ag27
ag29
ag30
as(I5
I6
tp112
(lp113
g26
ag28
as(I2
I8
tp114
(lp115
g27
ag28
ag29
as(I5
I7
tp116
(lp117
S'C'
p118
as(I2
I3
tp119
(lp120
g26
ag30
as(I1
I9
tp121
(lp122
S'T'
p123
as(I3
I4
tp124
(lp125
g26
ag28
ag30
as(I3
I5
tp126
(lp127
g27
assS'class_pred_'
p128
g24
sS'CLASSES'
p129
cnumpy.core.multiarray
_reconstruct
p130
(cnumpy
ndarray
p131
(I0
tp132
S'b'
p133
tp134
Rp135
(I1
(I5
tp136
cnumpy
dtype
p137
(S'O8'
p138
I0
I1
tp139
Rp140
(I3
S'|'
p141
NNNI-1
I-1
I63
tp142
bI00
(lp143
g26
ag27
ag29
ag30
ag28
atp144
bsS'TREE_LEAF'
p145
(dp146
I1
I00
sI2
I00
sI3
I00
sI4
I01
sI5
I00
sI6
I01
sI7
I01
sI8
I01
sI9
I01
ssS'num_pass_'
p147
(dp148
I1
I71
sI2
I43
sI3
I36
sI4
I9
sI5
I27
sI6
I9
sI7
I18
sI8
I7
sI9
I28
ssS'error'
p149
(dp150
I1
F60.56338028169014
sI2
F51.16279069767442
sI3
F41.66666666666667
sI4
F11.11111111111111
sI5
F22.22222222222222
sI6
F33.33333333333333
sI7
F0.0
sI8
F57.14285714285714
sI9
F3.571428571428571
ssS'pvalue'
p151
g42
sS'class_names'
p152
g135
sS'n_node_samples'
p153
g148
sb.