ccopy_reg
_reconstructor
p0
(cmlx
tree_
p1
c__builtin__
object
p2
Ntp3
Rp4
(dp5
S'decision_rules_'
p6
(dp7
I4
S'P1799 %in% c("A", "G", "R", "T") & P1731 %in% c("C", "G", "Y") & P1974 %in% c("A", "NA", "W")'
p8
sI5
S'P1799 %in% c("A", "G", "R", "T") & P1731 %in% c("C", "G", "Y") & P1974 %in% c("NA", "G", "T")'
p9
sI6
S'P1799 %in% c("A", "G", "R", "T") & P1731 %in% c("T")'
p10
sI7
S'P1799 %in% c("C")'
p11
ssS'significant_feature_weight_'
p12
(dp13
S'P1731'
p14
F0.39085624873777425
sS'P1974'
p15
F0.24474979354299775
sS'P1799'
p16
F0.8497358382381777
ssS'children_left'
p17
(dp18
I1
I2
sI2
I3
sI3
I4
sI4
NsI5
NsI6
NsI7
NssS'ACCx_'
p19
F0.6056338028169015
sS'ACC_'
p20
F0.7183098591549295
sS'value'
p21
(dp22
I1
(dp23
S'A'
p24
F22.0
sS'C'
p25
F9.0
sS'M'
p26
F1.0
sS'T'
p27
F7.0
sS'G'
p28
F32.0
ssI2
(dp29
g24
F21.0
sg25
F9.0
sg26
F1.0
sg27
F7.0
sg28
F6.0
ssI3
(dp30
g24
F17.0
sg25
F8.0
sg26
F1.0
sg27
F1.0
sg28
F6.0
ssI4
(dp31
g24
F15.0
sg25
F4.0
sg26
F1.0
sg27
F0.0
sg28
F6.0
ssI5
(dp32
g24
F2.0
sg25
F4.0
sg26
F0.0
sg27
F1.0
sg28
F0.0
ssI6
(dp33
g24
F4.0
sg25
F1.0
sg26
F0.0
sg27
F6.0
sg28
F0.0
ssI7
(dp34
g24
F1.0
sg25
F0.0
sg26
F0.0
sg27
F0.0
sg28
F26.0
sssS'tprob_'
p35
(dp36
I4
F0.36619718309859156
sI5
F0.09859154929577464
sI6
F0.15492957746478872
sI7
F0.38028169014084506
ssS'threshold'
p37
(dp38
I1
I0
sI2
F1.1990856696453302e-07
sI3
F9.72440190816215e-07
ssS'children'
p39
(dp40
I1
c__builtin__
set
p41
((lp42
I2
aI7
atp43
Rp44
sI2
g41
((lp45
I3
aI6
atp46
Rp47
sI3
g41
((lp48
I4
aI5
atp49
Rp50
sI4
g41
((lp51
tp52
Rp53
sI5
g41
((lp54
tp55
Rp56
sI6
g41
((lp57
tp58
Rp59
sI7
g41
((lp60
tp61
Rp62
ssS'children_right'
p63
(dp64
I1
I7
sI2
I6
sI3
I5
sI4
NsI5
NsI6
NsI7
NssS'feature'
p65
(dp66
I1
g16
sI2
g14
sI3
g15
sI4
S'4'
p67
sI5
S'5'
p68
sI6
S'6'
p69
sI7
S'7'
p70
ssS'nodes'
p71
crpy2.robjects.robject
_reduce_robjectmixin
p72
(S'X\n\x00\x00\x00\x02\x00\x03\x05\x03\x00\x02\x03\x00\x00\x00\x00\r\x00\x00\x00\x07\x00\x00\x00\x01\x00\x00\x00\x02\x00\x00\x00\x03\x00\x00\x00\x04\x00\x00\x00\x05\x00\x00\x00\x06\x00\x00\x00\x07'
p73
I13
crpy2.rinterface._rinterface
unserialize
p74
crpy2.robjects.vectors
IntVector
p75
tp76
Rp77
(dp78
S'ro'
p79
g0
(crpy2.robjects.vectors
VectorOperationsDelegator
p80
g2
Ntp81
Rp82
(dp83
S'_parent'
p84
g77
sbsS'rx'
p85
g0
(crpy2.robjects.vectors
ExtractDelegator
p86
g2
Ntp87
Rp88
(dp89
g84
g77
sbsS'rx2'
p90
g0
(crpy2.robjects.vectors
DoubleExtractDelegator
p91
g2
Ntp92
Rp93
(dp94
g84
g77
sbsbsS'response_var_'
p95
S'P870'
p96
sS'edge_cond_'
p97
(dp98
(I1
I2
tp99
(lp100
g24
aS'R'
p101
ag27
ag28
as(I2
I6
tp102
(lp103
S'T'
p104
as(I2
I3
tp105
(lp106
S'Y'
p107
ag25
ag28
as(I1
I7
tp108
(lp109
S'C'
p110
as(I3
I4
tp111
(lp112
g24
aS'W'
p113
as(I3
I5
tp114
(lp115
g27
ag28
assS'class_pred_'
p116
g22
sS'CLASSES'
p117
cnumpy.core.multiarray
_reconstruct
p118
(cnumpy
ndarray
p119
(I0
tp120
S'b'
p121
tp122
Rp123
(I1
(I5
tp124
cnumpy
dtype
p125
(S'O8'
p126
I0
I1
tp127
Rp128
(I3
S'|'
p129
NNNI-1
I-1
I63
tp130
bI00
(lp131
g24
ag25
ag28
ag26
ag27
atp132
bsS'TREE_LEAF'
p133
(dp134
I1
I00
sI2
I00
sI3
I00
sI4
I01
sI5
I01
sI6
I01
sI7
I01
ssS'num_pass_'
p135
(dp136
I1
I71
sI2
I44
sI3
I33
sI4
I26
sI5
I7
sI6
I11
sI7
I27
ssS'error'
p137
(dp138
I1
F54.92957746478873
sI2
F52.27272727272727
sI3
F48.484848484848484
sI4
F42.30769230769231
sI5
F42.857142857142854
sI6
F45.45454545454546
sI7
F3.7037037037037033
ssS'pvalue'
p139
g38
sS'class_names'
p140
g123
sS'n_node_samples'
p141
g136
sb.