ccopy_reg
_reconstructor
p0
(cmlx
tree_
p1
c__builtin__
object
p2
Ntp3
Rp4
(dp5
S'decision_rules_'
p6
(dp7
I3
S'P1986 %in% c("A", "C", "R") & P3363 %in% c("A")'
p8
sI4
S'P1986 %in% c("A", "C", "R") & P3363 %in% c("C", "G", "T", "Y")'
p9
sI6
S'P1986 %in% c("G", "T") & P1413 %in% c("A", "C", "T")'
p10
sI7
S'P1986 %in% c("G", "T") & P1413 %in% c("G")'
p11
ssS'significant_feature_weight_'
p12
(dp13
S'P1986'
p14
F0.9982146201560502
sS'P1413'
p15
F0.4902930742168111
sS'P3363'
p16
F0.4772161973507104
ssS'children_left'
p17
(dp18
I1
I2
sI2
I3
sI3
NsI4
NsI5
I6
sI6
NsI7
NssS'ACCx_'
p19
F0.7746478873239436
sS'ACC_'
p20
F0.8169014084507042
sS'value'
p21
(dp22
I1
(dp23
S'A'
p24
F2.0
sS'C'
p25
F29.0
sS'R'
p26
F1.0
sS'T'
p27
F16.0
sS'G'
p28
F23.0
ssI2
(dp29
g24
F1.0
sg25
F17.0
sg26
F1.0
sg27
F14.0
sg28
F1.0
ssI3
(dp30
g24
F0.0
sg25
F5.0
sg26
F0.0
sg27
F13.0
sg28
F0.0
ssI4
(dp31
g24
F1.0
sg25
F12.0
sg26
F1.0
sg27
F1.0
sg28
F1.0
ssI5
(dp32
g24
F1.0
sg25
F12.0
sg26
F0.0
sg27
F2.0
sg28
F22.0
ssI6
(dp33
g24
F1.0
sg25
F11.0
sg26
F0.0
sg27
F2.0
sg28
F0.0
ssI7
(dp34
g24
F0.0
sg25
F1.0
sg26
F0.0
sg27
F0.0
sg28
F22.0
sssS'tprob_'
p35
(dp36
I3
F0.2535211267605634
sI4
F0.22535211267605634
sI6
F0.19718309859154928
sI7
F0.323943661971831
ssS'threshold'
p37
(dp38
I1
I0
sI2
F7.28972437968878e-13
sI5
F2.43817188660955e-10
ssS'children'
p39
(dp40
I1
c__builtin__
set
p41
((lp42
I2
aI5
atp43
Rp44
sI2
g41
((lp45
I3
aI4
atp46
Rp47
sI3
g41
((lp48
tp49
Rp50
sI4
g41
((lp51
tp52
Rp53
sI5
g41
((lp54
I6
aI7
atp55
Rp56
sI6
g41
((lp57
tp58
Rp59
sI7
g41
((lp60
tp61
Rp62
ssS'children_right'
p63
(dp64
I1
I5
sI2
I4
sI3
NsI4
NsI5
I7
sI6
NsI7
NssS'feature'
p65
(dp66
I1
g14
sI2
g16
sI3
S'3'
p67
sI4
S'4'
p68
sI5
g15
sI6
S'6'
p69
sI7
S'7'
p70
ssS'nodes'
p71
crpy2.robjects.robject
_reduce_robjectmixin
p72
(S'X\n\x00\x00\x00\x02\x00\x03\x05\x03\x00\x02\x03\x00\x00\x00\x00\r\x00\x00\x00\x07\x00\x00\x00\x01\x00\x00\x00\x02\x00\x00\x00\x03\x00\x00\x00\x04\x00\x00\x00\x05\x00\x00\x00\x06\x00\x00\x00\x07'
p73
I13
crpy2.rinterface._rinterface
unserialize
p74
crpy2.robjects.vectors
IntVector
p75
tp76
Rp77
(dp78
S'ro'
p79
g0
(crpy2.robjects.vectors
VectorOperationsDelegator
p80
g2
Ntp81
Rp82
(dp83
S'_parent'
p84
g77
sbsS'rx'
p85
g0
(crpy2.robjects.vectors
ExtractDelegator
p86
g2
Ntp87
Rp88
(dp89
g84
g77
sbsS'rx2'
p90
g0
(crpy2.robjects.vectors
DoubleExtractDelegator
p91
g2
Ntp92
Rp93
(dp94
g84
g77
sbsbsS'response_var_'
p95
S'P3669'
p96
sS'edge_cond_'
p97
(dp98
(I1
I2
tp99
(lp100
g24
ag25
ag26
as(I5
I6
tp101
(lp102
g24
ag25
ag27
as(I5
I7
tp103
(lp104
S'G'
p105
as(I1
I5
tp106
(lp107
g27
ag28
as(I2
I3
tp108
(lp109
S'A'
p110
as(I2
I4
tp111
(lp112
S'Y'
p113
ag25
ag27
ag28
assS'class_pred_'
p114
g22
sS'CLASSES'
p115
cnumpy.core.multiarray
_reconstruct
p116
(cnumpy
ndarray
p117
(I0
tp118
S'b'
p119
tp120
Rp121
(I1
(I5
tp122
cnumpy
dtype
p123
(S'O8'
p124
I0
I1
tp125
Rp126
(I3
S'|'
p127
NNNI-1
I-1
I63
tp128
bI00
(lp129
g24
ag25
ag28
ag26
ag27
atp130
bsS'TREE_LEAF'
p131
(dp132
I1
I00
sI2
I00
sI3
I01
sI4
I01
sI5
I00
sI6
I01
sI7
I01
ssS'num_pass_'
p133
(dp134
I1
I71
sI2
I34
sI3
I18
sI4
I16
sI5
I37
sI6
I14
sI7
I23
ssS'error'
p135
(dp136
I1
F59.1549295774648
sI2
F49.99999999999999
sI3
F27.77777777777778
sI4
F25.0
sI5
F40.54054054054054
sI6
F21.428571428571427
sI7
F4.3478260869565215
ssS'pvalue'
p137
g38
sS'class_names'
p138
g121
sS'n_node_samples'
p139
g134
sb.