ccopy_reg
_reconstructor
p0
(cmlx
tree_
p1
c__builtin__
object
p2
Ntp3
Rp4
(dp5
S'decision_rules_'
p6
(dp7
I3
S'P1708 %in% c("A", "G", "N") & P1676 %in% c("A", "G", "N", "T")'
p8
sI5
S'P1708 %in% c("A", "G", "N") & P1676 %in% c("C") & P2571 %in% c("A", "C", "NA")'
p9
sI6
S'P1708 %in% c("A", "G", "N") & P1676 %in% c("C") & P2571 %in% c("NA", "T")'
p10
sI7
S'P1708 %in% c("C")'
p11
ssS'significant_feature_weight_'
p12
(dp13
S'P1708'
p14
F0.8869274587157906
sS'P1676'
p15
F0.3486038453036923
sS'P2571'
p16
F0.23174594643639423
ssS'children_left'
p17
(dp18
I1
I2
sI2
I3
sI3
NsI4
I5
sI5
NsI6
NsI7
NssS'ACCx_'
p19
F0.8873239436619719
sS'ACC_'
p20
F0.8732394366197183
sS'value'
p21
(dp22
I1
(dp23
S'A'
p24
F32.0
sS'C'
p25
F8.0
sS'T'
p26
F27.0
sS'G'
p27
F3.0
sS'N'
p28
F1.0
ssI2
(dp29
g24
F1.0
sg25
F8.0
sg26
F27.0
sg27
F3.0
sg28
F1.0
ssI3
(dp30
g24
F1.0
sg25
F4.0
sg26
F1.0
sg27
F3.0
sg28
F1.0
ssI4
(dp31
g24
F0.0
sg25
F4.0
sg26
F26.0
sg27
F0.0
sg28
F0.0
ssI5
(dp32
g24
F0.0
sg25
F4.0
sg26
F3.0
sg27
F0.0
sg28
F0.0
ssI6
(dp33
g24
F0.0
sg25
F0.0
sg26
F23.0
sg27
F0.0
sg28
F0.0
ssI7
(dp34
g24
F31.0
sg25
F0.0
sg26
F0.0
sg27
F0.0
sg28
F0.0
sssS'tprob_'
p35
(dp36
I3
F0.14084507042253522
sI5
F0.09859154929577464
sI6
F0.323943661971831
sI7
F0.43661971830985913
ssS'threshold'
p37
(dp38
I1
I0
sI2
F1.6076029396572302e-13
sI4
F0.00246070643907259
ssS'children'
p39
(dp40
I1
c__builtin__
set
p41
((lp42
I2
aI7
atp43
Rp44
sI2
g41
((lp45
I3
aI4
atp46
Rp47
sI3
g41
((lp48
tp49
Rp50
sI4
g41
((lp51
I5
aI6
atp52
Rp53
sI5
g41
((lp54
tp55
Rp56
sI6
g41
((lp57
tp58
Rp59
sI7
g41
((lp60
tp61
Rp62
ssS'children_right'
p63
(dp64
I1
I7
sI2
I4
sI3
NsI4
I6
sI5
NsI6
NsI7
NssS'feature'
p65
(dp66
I1
g14
sI2
g15
sI3
S'3'
p67
sI4
g16
sI5
S'5'
p68
sI6
S'6'
p69
sI7
S'7'
p70
ssS'nodes'
p71
crpy2.robjects.robject
_reduce_robjectmixin
p72
(S'X\n\x00\x00\x00\x02\x00\x03\x05\x03\x00\x02\x03\x00\x00\x00\x00\r\x00\x00\x00\x07\x00\x00\x00\x01\x00\x00\x00\x02\x00\x00\x00\x03\x00\x00\x00\x04\x00\x00\x00\x05\x00\x00\x00\x06\x00\x00\x00\x07'
p73
I13
crpy2.rinterface._rinterface
unserialize
p74
crpy2.robjects.vectors
IntVector
p75
tp76
Rp77
(dp78
S'ro'
p79
g0
(crpy2.robjects.vectors
VectorOperationsDelegator
p80
g2
Ntp81
Rp82
(dp83
S'_parent'
p84
g77
sbsS'rx'
p85
g0
(crpy2.robjects.vectors
ExtractDelegator
p86
g2
Ntp87
Rp88
(dp89
g84
g77
sbsS'rx2'
p90
g0
(crpy2.robjects.vectors
DoubleExtractDelegator
p91
g2
Ntp92
Rp93
(dp94
g84
g77
sbsbsS'response_var_'
p95
S'P3714'
p96
sS'edge_cond_'
p97
(dp98
(I1
I2
tp99
(lp100
g24
ag27
ag28
as(I4
I6
tp101
(lp102
g26
as(I4
I5
tp103
(lp104
g24
ag25
as(I2
I3
tp105
(lp106
g24
ag26
ag27
ag28
as(I1
I7
tp107
(lp108
S'C'
p109
as(I2
I4
tp110
(lp111
S'C'
p112
assS'class_pred_'
p113
g22
sS'CLASSES'
p114
cnumpy.core.multiarray
_reconstruct
p115
(cnumpy
ndarray
p116
(I0
tp117
S'b'
p118
tp119
Rp120
(I1
(I5
tp121
cnumpy
dtype
p122
(S'O8'
p123
I0
I1
tp124
Rp125
(I3
S'|'
p126
NNNI-1
I-1
I63
tp127
bI00
(lp128
g24
ag25
ag27
ag28
ag26
atp129
bsS'TREE_LEAF'
p130
(dp131
I1
I00
sI2
I00
sI3
I01
sI4
I00
sI5
I01
sI6
I01
sI7
I01
ssS'num_pass_'
p132
(dp133
I1
I71
sI2
I40
sI3
I10
sI4
I30
sI5
I7
sI6
I23
sI7
I31
ssS'error'
p134
(dp135
I1
F54.92957746478873
sI2
F32.5
sI3
F60.0
sI4
F13.333333333333334
sI5
F42.857142857142854
sI6
F0.0
sI7
F0.0
ssS'pvalue'
p136
g38
sS'class_names'
p137
g120
sS'n_node_samples'
p138
g133
sb.