ccopy_reg
_reconstructor
p0
(cmlx
tree_
p1
c__builtin__
object
p2
Ntp3
Rp4
(dp5
S'decision_rules_'
p6
(dp7
I8
S'P2142 %in% c("A", "C", "G") & P3402 %in% c("C", "G", "T")'
p8
sI9
S'P2142 %in% c("T")'
p9
sI5
S'P2142 %in% c("A", "C", "G") & P3402 %in% c("A") & P3042 %in% c("A", "C", "G") & P1601 %in% c("A", "G", "T")'
p10
sI6
S'P2142 %in% c("A", "C", "G") & P3402 %in% c("A") & P3042 %in% c("A", "C", "G") & P1601 %in% c("C")'
p11
sI7
S'P2142 %in% c("A", "C", "G") & P3402 %in% c("A") & P3042 %in% c("T")'
p12
ssS'significant_feature_weight_'
p13
(dp14
S'P1601'
p15
F0.19079973178417514
sS'P3402'
p16
F0.34337562685166323
sS'P2142'
p17
F0.5064114263168151
sS'P3042'
p18
F0.6137575868321651
ssS'children_left'
p19
(dp20
I1
I9
sI2
I8
sI3
I4
sI4
I5
sI5
NsI6
NsI7
NsI8
NsI9
NssS'ACCx_'
p21
F0.7464788732394366
sS'ACC_'
p22
F0.8591549295774648
sS'value'
p23
(dp24
I1
(dp25
S'A'
p26
F6.0
sS'C'
p27
F49.0
sS'T'
p28
F15.0
sS'G'
p29
F1.0
ssI2
(dp30
g26
F6.0
sg27
F47.0
sg28
F5.0
sg29
F1.0
ssI3
(dp31
g26
F3.0
sg27
F47.0
sg28
F1.0
sg29
F0.0
ssI4
(dp32
g26
F3.0
sg27
F19.0
sg28
F1.0
sg29
F0.0
ssI5
(dp33
g26
F3.0
sg27
F3.0
sg28
F1.0
sg29
F0.0
ssI6
(dp34
g26
F0.0
sg27
F16.0
sg28
F0.0
sg29
F0.0
ssI7
(dp35
g26
F0.0
sg27
F28.0
sg28
F0.0
sg29
F0.0
ssI8
(dp36
g26
F3.0
sg27
F0.0
sg28
F4.0
sg29
F1.0
ssI9
(dp37
g26
F0.0
sg27
F2.0
sg28
F10.0
sg29
F0.0
sssS'tprob_'
p38
(dp39
I8
F0.11267605633802817
sI9
F0.16901408450704225
sI5
F0.09859154929577464
sI6
F0.22535211267605634
sI7
F0.39436619718309857
ssS'threshold'
p40
(dp41
I1
I0
sI2
I0
sI3
F1.2212453270876698e-15
sI4
F0.00036103844156931697
ssS'children'
p42
(dp43
I1
c__builtin__
set
p44
((lp45
I9
aI2
atp46
Rp47
sI2
g44
((lp48
I8
aI3
atp49
Rp50
sI3
g44
((lp51
I4
aI7
atp52
Rp53
sI4
g44
((lp54
I5
aI6
atp55
Rp56
sI5
g44
((lp57
tp58
Rp59
sI6
g44
((lp60
tp61
Rp62
sI7
g44
((lp63
tp64
Rp65
sI8
g44
((lp66
tp67
Rp68
sI9
g44
((lp69
tp70
Rp71
ssS'children_right'
p72
(dp73
I1
I2
sI2
I3
sI3
I7
sI4
I6
sI5
NsI6
NsI7
NsI8
NsI9
NssS'feature'
p74
(dp75
I1
g17
sI2
g16
sI3
g18
sI4
g15
sI5
S'5'
p76
sI6
S'6'
p77
sI7
S'7'
p78
sI8
S'8'
p79
sI9
S'9'
p80
ssS'nodes'
p81
crpy2.robjects.robject
_reduce_robjectmixin
p82
(S'X\n\x00\x00\x00\x02\x00\x03\x05\x03\x00\x02\x03\x00\x00\x00\x00\r\x00\x00\x00\t\x00\x00\x00\x01\x00\x00\x00\x02\x00\x00\x00\x03\x00\x00\x00\x04\x00\x00\x00\x05\x00\x00\x00\x06\x00\x00\x00\x07\x00\x00\x00\x08\x00\x00\x00\t'
p83
I13
crpy2.rinterface._rinterface
unserialize
p84
crpy2.robjects.vectors
IntVector
p85
tp86
Rp87
(dp88
S'ro'
p89
g0
(crpy2.robjects.vectors
VectorOperationsDelegator
p90
g2
Ntp91
Rp92
(dp93
S'_parent'
p94
g87
sbsS'rx'
p95
g0
(crpy2.robjects.vectors
ExtractDelegator
p96
g2
Ntp97
Rp98
(dp99
g94
g87
sbsS'rx2'
p100
g0
(crpy2.robjects.vectors
DoubleExtractDelegator
p101
g2
Ntp102
Rp103
(dp104
g94
g87
sbsbsS'response_var_'
p105
S'P1851'
p106
sS'edge_cond_'
p107
(dp108
(I1
I2
tp109
(lp110
g26
ag27
ag29
as(I4
I6
tp111
(lp112
S'C'
p113
as(I4
I5
tp114
(lp115
g26
ag28
ag29
as(I2
I8
tp116
(lp117
g27
ag28
ag29
as(I2
I3
tp118
(lp119
S'A'
p120
as(I1
I9
tp121
(lp122
S'T'
p123
as(I3
I7
tp124
(lp125
S'T'
p126
as(I3
I4
tp127
(lp128
g26
ag27
ag29
assS'class_pred_'
p129
g24
sS'CLASSES'
p130
cnumpy.core.multiarray
_reconstruct
p131
(cnumpy
ndarray
p132
(I0
tp133
S'b'
p134
tp135
Rp136
(I1
(I4
tp137
cnumpy
dtype
p138
(S'O8'
p139
I0
I1
tp140
Rp141
(I3
S'|'
p142
NNNI-1
I-1
I63
tp143
bI00
(lp144
g26
ag27
ag29
ag28
atp145
bsS'TREE_LEAF'
p146
(dp147
I1
I00
sI2
I00
sI3
I00
sI4
I00
sI5
I01
sI6
I01
sI7
I01
sI8
I01
sI9
I01
ssS'num_pass_'
p148
(dp149
I1
I71
sI2
I59
sI3
I51
sI4
I23
sI5
I7
sI6
I16
sI7
I28
sI8
I8
sI9
I12
ssS'error'
p150
(dp151
I1
F30.985915492957744
sI2
F20.338983050847457
sI3
F7.8431372549019605
sI4
F17.391304347826086
sI5
F57.14285714285714
sI6
F0.0
sI7
F0.0
sI8
F50.0
sI9
F16.666666666666664
ssS'pvalue'
p152
g41
sS'class_names'
p153
g136
sS'n_node_samples'
p154
g149
sb.