ccopy_reg
_reconstructor
p0
(cmlx
tree_
p1
c__builtin__
object
p2
Ntp3
Rp4
(dp5
S'decision_rules_'
p6
(dp7
I3
S'P1706 %in% c("A", "G", "N") & P1706 %in% c("A", "NA", "N")'
p8
sI4
S'P1706 %in% c("A", "G", "N") & P1706 %in% c("NA", "G")'
p9
sI5
S'P1706 %in% c("C")'
p10
ssS'significant_feature_weight_'
p11
(dp12
S'P1706'
p13
F1.407458794840667
ssS'children_left'
p14
(dp15
I1
I2
sI2
I3
sI3
NsI4
NsI5
NssS'ACCx_'
p16
F0.8873239436619719
sS'ACC_'
p17
F0.971830985915493
sS'value'
p18
(dp19
I1
(dp20
S'A'
p21
F9.0
sS'C'
p22
F34.0
sS'T'
p23
F27.0
sS'N'
p24
F1.0
ssI2
(dp25
g21
F9.0
sg22
F34.0
sg23
F0.0
sg24
F1.0
ssI3
(dp26
g21
F9.0
sg22
F1.0
sg23
F0.0
sg24
F1.0
ssI4
(dp27
g21
F0.0
sg22
F33.0
sg23
F0.0
sg24
F0.0
ssI5
(dp28
g21
F0.0
sg22
F0.0
sg23
F27.0
sg24
F0.0
sssS'tprob_'
p29
(dp30
I3
F0.15492957746478872
sI4
F0.4647887323943662
sI5
F0.38028169014084506
ssS'threshold'
p31
(dp32
I1
I0
sI2
F6.46926956449079e-13
ssS'children'
p33
(dp34
I1
c__builtin__
set
p35
((lp36
I2
aI5
atp37
Rp38
sI2
g35
((lp39
I3
aI4
atp40
Rp41
sI3
g35
((lp42
tp43
Rp44
sI4
g35
((lp45
tp46
Rp47
sI5
g35
((lp48
tp49
Rp50
ssS'children_right'
p51
(dp52
I1
I5
sI2
I4
sI3
NsI4
NsI5
NssS'feature'
p53
(dp54
I1
S'P1706'
p55
sI2
g13
sI3
S'3'
p56
sI4
S'4'
p57
sI5
S'5'
p58
ssS'nodes'
p59
crpy2.robjects.robject
_reduce_robjectmixin
p60
(S'X\n\x00\x00\x00\x02\x00\x03\x05\x03\x00\x02\x03\x00\x00\x00\x00\r\x00\x00\x00\x05\x00\x00\x00\x01\x00\x00\x00\x02\x00\x00\x00\x03\x00\x00\x00\x04\x00\x00\x00\x05'
p61
I13
crpy2.rinterface._rinterface
unserialize
p62
crpy2.robjects.vectors
IntVector
p63
tp64
Rp65
(dp66
S'ro'
p67
g0
(crpy2.robjects.vectors
VectorOperationsDelegator
p68
g2
Ntp69
Rp70
(dp71
S'_parent'
p72
g65
sbsS'rx'
p73
g0
(crpy2.robjects.vectors
ExtractDelegator
p74
g2
Ntp75
Rp76
(dp77
g72
g65
sbsS'rx2'
p78
g0
(crpy2.robjects.vectors
DoubleExtractDelegator
p79
g2
Ntp80
Rp81
(dp82
g72
g65
sbsbsS'response_var_'
p83
S'P830'
p84
sS'edge_cond_'
p85
(dp86
(I1
I2
tp87
(lp88
g21
aS'G'
p89
ag24
as(I1
I5
tp90
(lp91
S'C'
p92
as(I2
I3
tp93
(lp94
g21
ag24
as(I2
I4
tp95
(lp96
g89
assS'class_pred_'
p97
g19
sS'CLASSES'
p98
cnumpy.core.multiarray
_reconstruct
p99
(cnumpy
ndarray
p100
(I0
tp101
S'b'
p102
tp103
Rp104
(I1
(I4
tp105
cnumpy
dtype
p106
(S'O8'
p107
I0
I1
tp108
Rp109
(I3
S'|'
p110
NNNI-1
I-1
I63
tp111
bI00
(lp112
g21
ag22
ag24
ag23
atp113
bsS'TREE_LEAF'
p114
(dp115
I1
I00
sI2
I00
sI3
I01
sI4
I01
sI5
I01
ssS'num_pass_'
p116
(dp117
I1
I71
sI2
I44
sI3
I11
sI4
I33
sI5
I27
ssS'error'
p118
(dp119
I1
F52.112676056338024
sI2
F22.72727272727273
sI3
F18.181818181818183
sI4
F0.0
sI5
F0.0
ssS'pvalue'
p120
g32
sS'class_names'
p121
g104
sS'n_node_samples'
p122
g117
sb.