ccopy_reg
_reconstructor
p0
(cmlx
tree_
p1
c__builtin__
object
p2
Ntp3
Rp4
(dp5
S'decision_rules_'
p6
(dp7
I3
S'P4854 %in% c("A", "C", "T") & P1096 %in% c("A", "C", "G")'
p8
sI4
S'P4854 %in% c("A", "C", "T") & P1096 %in% c("T")'
p9
sI5
S'P4854 %in% c("G")'
p10
ssS'significant_feature_weight_'
p11
(dp12
S'P4854'
p13
F0.36049669376970145
sS'P1096'
p14
F0.31155471134916823
ssS'children_left'
p15
(dp16
I1
I2
sI2
I3
sI3
NsI4
NsI5
NssS'ACCx_'
p17
F0.15492957746478875
sS'ACC_'
p18
F0.9577464788732395
sS'value'
p19
(dp20
I1
(dp21
S'C'
p22
F59.0
sS'T'
p23
F12.0
ssI2
(dp24
g22
F59.0
sg23
F4.0
ssI3
(dp25
g22
F3.0
sg23
F4.0
ssI4
(dp26
g22
F56.0
sg23
F0.0
ssI5
(dp27
g22
F0.0
sg23
F8.0
sssS'tprob_'
p28
(dp29
I3
F0.09859154929577464
sI4
F0.7887323943661971
sI5
F0.11267605633802817
ssS'threshold'
p30
(dp31
I1
F3.2645927324770303e-06
sI2
F1.07328279597141e-09
ssS'children'
p32
(dp33
I1
c__builtin__
set
p34
((lp35
I2
aI5
atp36
Rp37
sI2
g34
((lp38
I3
aI4
atp39
Rp40
sI3
g34
((lp41
tp42
Rp43
sI4
g34
((lp44
tp45
Rp46
sI5
g34
((lp47
tp48
Rp49
ssS'children_right'
p50
(dp51
I1
I5
sI2
I4
sI3
NsI4
NsI5
NssS'feature'
p52
(dp53
I1
g13
sI2
g14
sI3
S'3'
p54
sI4
S'4'
p55
sI5
S'5'
p56
ssS'nodes'
p57
crpy2.robjects.robject
_reduce_robjectmixin
p58
(S'X\n\x00\x00\x00\x02\x00\x03\x05\x03\x00\x02\x03\x00\x00\x00\x00\r\x00\x00\x00\x05\x00\x00\x00\x01\x00\x00\x00\x02\x00\x00\x00\x03\x00\x00\x00\x04\x00\x00\x00\x05'
p59
I13
crpy2.rinterface._rinterface
unserialize
p60
crpy2.robjects.vectors
IntVector
p61
tp62
Rp63
(dp64
S'ro'
p65
g0
(crpy2.robjects.vectors
VectorOperationsDelegator
p66
g2
Ntp67
Rp68
(dp69
S'_parent'
p70
g63
sbsS'rx'
p71
g0
(crpy2.robjects.vectors
ExtractDelegator
p72
g2
Ntp73
Rp74
(dp75
g70
g63
sbsS'rx2'
p76
g0
(crpy2.robjects.vectors
DoubleExtractDelegator
p77
g2
Ntp78
Rp79
(dp80
g70
g63
sbsbsS'response_var_'
p81
S'P57'
p82
sS'edge_cond_'
p83
(dp84
(I1
I2
tp85
(lp86
S'A'
p87
ag22
ag23
as(I1
I5
tp88
(lp89
S'G'
p90
as(I2
I3
tp91
(lp92
g87
ag22
aS'G'
p93
as(I2
I4
tp94
(lp95
S'T'
p96
assS'class_pred_'
p97
g20
sS'CLASSES'
p98
cnumpy.core.multiarray
_reconstruct
p99
(cnumpy
ndarray
p100
(I0
tp101
S'b'
p102
tp103
Rp104
(I1
(I2
tp105
cnumpy
dtype
p106
(S'O8'
p107
I0
I1
tp108
Rp109
(I3
S'|'
p110
NNNI-1
I-1
I63
tp111
bI00
(lp112
g22
ag23
atp113
bsS'TREE_LEAF'
p114
(dp115
I1
I00
sI2
I00
sI3
I01
sI4
I01
sI5
I01
ssS'num_pass_'
p116
(dp117
I1
I71
sI2
I63
sI3
I7
sI4
I56
sI5
I8
ssS'error'
p118
(dp119
I1
F16.901408450704224
sI2
F6.349206349206349
sI3
F42.857142857142854
sI4
F0.0
sI5
F0.0
ssS'pvalue'
p120
g31
sS'class_names'
p121
g104
sS'n_node_samples'
p122
g117
sb.