ccopy_reg
_reconstructor
p0
(cmlx
tree_
p1
c__builtin__
object
p2
Ntp3
Rp4
(dp5
S'decision_rules_'
p6
(dp7
I3
S'P4790 %in% c("A", "G", "T") & P3960 %in% c("A", "C", "G")'
p8
sI4
S'P4790 %in% c("A", "G", "T") & P3960 %in% c("T")'
p9
sI6
S'P4790 %in% c("C") & P90 %in% c("C", "Y")'
p10
sI7
S'P4790 %in% c("C") & P90 %in% c("T")'
p11
ssS'significant_feature_weight_'
p12
(dp13
S'P90'
p14
F0.0
sS'P4790'
p15
F0.8997978715100388
sS'P3960'
p16
F0.24864215838045306
ssS'children_left'
p17
(dp18
I1
I2
sI2
I3
sI3
NsI4
NsI5
I6
sI6
NsI7
NssS'ACCx_'
p19
F0.9295774647887324
sS'ACC_'
p20
F0.971830985915493
sS'value'
p21
(dp22
I1
(dp23
S'A'
p24
F63.0
sS'T'
p25
F1.0
sS'G'
p26
F7.0
ssI2
(dp27
g24
F27.0
sg25
F1.0
sg26
F6.0
ssI3
(dp28
g24
F0.0
sg25
F1.0
sg26
F6.0
ssI4
(dp29
g24
F27.0
sg25
F0.0
sg26
F0.0
ssI5
(dp30
g24
F36.0
sg25
F0.0
sg26
F1.0
ssI6
(dp31
g24
F13.0
sg25
F0.0
sg26
F1.0
ssI7
(dp32
g24
F23.0
sg25
F0.0
sg26
F0.0
sssS'tprob_'
p33
(dp34
I3
F0.09859154929577464
sI4
F0.38028169014084506
sI6
F0.19718309859154928
sI7
F0.323943661971831
ssS'threshold'
p35
(dp36
I1
F1.77635683940025e-15
sI2
F1.3165884049648502e-08
sI5
F7.43956841232629e-05
ssS'children'
p37
(dp38
I1
c__builtin__
set
p39
((lp40
I2
aI5
atp41
Rp42
sI2
g39
((lp43
I3
aI4
atp44
Rp45
sI3
g39
((lp46
tp47
Rp48
sI4
g39
((lp49
tp50
Rp51
sI5
g39
((lp52
I6
aI7
atp53
Rp54
sI6
g39
((lp55
tp56
Rp57
sI7
g39
((lp58
tp59
Rp60
ssS'children_right'
p61
(dp62
I1
I5
sI2
I4
sI3
NsI4
NsI5
I7
sI6
NsI7
NssS'feature'
p63
(dp64
I1
g15
sI2
g16
sI3
S'3'
p65
sI4
S'4'
p66
sI5
g14
sI6
S'6'
p67
sI7
S'7'
p68
ssS'nodes'
p69
crpy2.robjects.robject
_reduce_robjectmixin
p70
(S'X\n\x00\x00\x00\x02\x00\x03\x05\x03\x00\x02\x03\x00\x00\x00\x00\r\x00\x00\x00\x07\x00\x00\x00\x01\x00\x00\x00\x02\x00\x00\x00\x03\x00\x00\x00\x04\x00\x00\x00\x05\x00\x00\x00\x06\x00\x00\x00\x07'
p71
I13
crpy2.rinterface._rinterface
unserialize
p72
crpy2.robjects.vectors
IntVector
p73
tp74
Rp75
(dp76
S'ro'
p77
g0
(crpy2.robjects.vectors
VectorOperationsDelegator
p78
g2
Ntp79
Rp80
(dp81
S'_parent'
p82
g75
sbsS'rx'
p83
g0
(crpy2.robjects.vectors
ExtractDelegator
p84
g2
Ntp85
Rp86
(dp87
g82
g75
sbsS'rx2'
p88
g0
(crpy2.robjects.vectors
DoubleExtractDelegator
p89
g2
Ntp90
Rp91
(dp92
g82
g75
sbsbsS'response_var_'
p93
S'P4724'
p94
sS'edge_cond_'
p95
(dp96
(I1
I2
tp97
(lp98
g24
ag25
ag26
as(I5
I6
tp99
(lp100
S'Y'
p101
aS'C'
p102
as(I5
I7
tp103
(lp104
S'T'
p105
as(I1
I5
tp106
(lp107
S'C'
p108
as(I2
I3
tp109
(lp110
g24
ag102
ag26
as(I2
I4
tp111
(lp112
S'T'
p113
assS'class_pred_'
p114
g22
sS'CLASSES'
p115
cnumpy.core.multiarray
_reconstruct
p116
(cnumpy
ndarray
p117
(I0
tp118
S'b'
p119
tp120
Rp121
(I1
(I3
tp122
cnumpy
dtype
p123
(S'O8'
p124
I0
I1
tp125
Rp126
(I3
S'|'
p127
NNNI-1
I-1
I63
tp128
bI00
(lp129
g24
ag26
ag25
atp130
bsS'TREE_LEAF'
p131
(dp132
I1
I00
sI2
I00
sI3
I01
sI4
I01
sI5
I00
sI6
I01
sI7
I01
ssS'num_pass_'
p133
(dp134
I1
I71
sI2
I34
sI3
I7
sI4
I27
sI5
I37
sI6
I14
sI7
I23
ssS'error'
p135
(dp136
I1
F11.267605633802816
sI2
F20.58823529411765
sI3
F14.285714285714285
sI4
F0.0
sI5
F2.7027027027027026
sI6
F7.142857142857142
sI7
F0.0
ssS'pvalue'
p137
g36
sS'class_names'
p138
g121
sS'n_node_samples'
p139
g134
sb.