ccopy_reg
_reconstructor
p0
(cmlx
tree_
p1
c__builtin__
object
p2
Ntp3
Rp4
(dp5
S'decision_rules_'
p6
(dp7
I8
S'P1209 %in% c("C", "G", "T") & P2238 %in% c("A", "C", "T") & P3197 %in% c("T") & P4638 %in% c("NA", "G")'
p8
sI9
S'P1209 %in% c("C", "G", "T") & P2238 %in% c("G")'
p9
sI2
S'P1209 %in% c("A")'
p10
sI5
S'P1209 %in% c("C", "G", "T") & P2238 %in% c("A", "C", "T") & P3197 %in% c("A", "C", "G")'
p11
sI7
S'P1209 %in% c("C", "G", "T") & P2238 %in% c("A", "C", "T") & P3197 %in% c("T") & P4638 %in% c("A", "NA")'
p12
ssS'significant_feature_weight_'
p13
(dp14
S'P2238'
p15
F0.8495416732144839
sS'P3197'
p16
F0.355819100649734
sS'P4638'
p17
F0.37558681275602857
sS'P1209'
p18
F0.39992064273342554
ssS'children_left'
p19
(dp20
I1
I2
sI2
NsI3
I9
sI4
I5
sI5
NsI6
I8
sI7
NsI8
NsI9
NssS'ACCx_'
p21
F0.8732394366197183
sS'ACC_'
p22
F0.9295774647887324
sS'value'
p23
(dp24
I1
(dp25
S'A'
p26
F27.0
sS'C'
p27
F23.0
sS'T'
p28
F13.0
sS'G'
p29
F8.0
ssI2
(dp30
g26
F0.0
sg27
F0.0
sg28
F0.0
sg29
F8.0
ssI3
(dp31
g26
F27.0
sg27
F23.0
sg28
F13.0
sg29
F0.0
ssI4
(dp32
g26
F2.0
sg27
F23.0
sg28
F13.0
sg29
F0.0
ssI5
(dp33
g26
F2.0
sg27
F3.0
sg28
F3.0
sg29
F0.0
ssI6
(dp34
g26
F0.0
sg27
F20.0
sg28
F10.0
sg29
F0.0
ssI7
(dp35
g26
F0.0
sg27
F20.0
sg28
F0.0
sg29
F0.0
ssI8
(dp36
g26
F0.0
sg27
F0.0
sg28
F10.0
sg29
F0.0
ssI9
(dp37
g26
F25.0
sg27
F0.0
sg28
F0.0
sg29
F0.0
sssS'tprob_'
p38
(dp39
I8
F0.14084507042253522
sI9
F0.352112676056338
sI2
F0.11267605633802817
sI5
F0.11267605633802817
sI7
F0.28169014084507044
ssS'threshold'
p40
(dp41
I1
F8.881784197001249e-15
sI3
F1.2953527139814e-11
sI4
F0.000314670471679768
sI6
F0.00035350550422974503
ssS'children'
p42
(dp43
I1
c__builtin__
set
p44
((lp45
I2
aI3
atp46
Rp47
sI2
g44
((lp48
tp49
Rp50
sI3
g44
((lp51
I9
aI4
atp52
Rp53
sI4
g44
((lp54
I5
aI6
atp55
Rp56
sI5
g44
((lp57
tp58
Rp59
sI6
g44
((lp60
I8
aI7
atp61
Rp62
sI7
g44
((lp63
tp64
Rp65
sI8
g44
((lp66
tp67
Rp68
sI9
g44
((lp69
tp70
Rp71
ssS'children_right'
p72
(dp73
I1
I3
sI2
NsI3
I4
sI4
I6
sI5
NsI6
I7
sI7
NsI8
NsI9
NssS'feature'
p74
(dp75
I1
g18
sI2
S'2'
p76
sI3
g15
sI4
g16
sI5
S'5'
p77
sI6
g17
sI7
S'7'
p78
sI8
S'8'
p79
sI9
S'9'
p80
ssS'nodes'
p81
crpy2.robjects.robject
_reduce_robjectmixin
p82
(S'X\n\x00\x00\x00\x02\x00\x03\x05\x03\x00\x02\x03\x00\x00\x00\x00\r\x00\x00\x00\t\x00\x00\x00\x01\x00\x00\x00\x02\x00\x00\x00\x03\x00\x00\x00\x04\x00\x00\x00\x05\x00\x00\x00\x06\x00\x00\x00\x07\x00\x00\x00\x08\x00\x00\x00\t'
p83
I13
crpy2.rinterface._rinterface
unserialize
p84
crpy2.robjects.vectors
IntVector
p85
tp86
Rp87
(dp88
S'ro'
p89
g0
(crpy2.robjects.vectors
VectorOperationsDelegator
p90
g2
Ntp91
Rp92
(dp93
S'_parent'
p94
g87
sbsS'rx'
p95
g0
(crpy2.robjects.vectors
ExtractDelegator
p96
g2
Ntp97
Rp98
(dp99
g94
g87
sbsS'rx2'
p100
g0
(crpy2.robjects.vectors
DoubleExtractDelegator
p101
g2
Ntp102
Rp103
(dp104
g94
g87
sbsbsS'response_var_'
p105
S'P1623'
p106
sS'edge_cond_'
p107
(dp108
(I1
I2
tp109
(lp110
S'A'
p111
as(I1
I3
tp112
(lp113
g27
ag28
ag29
as(I6
I7
tp114
(lp115
g26
as(I4
I6
tp116
(lp117
S'T'
p118
as(I4
I5
tp119
(lp120
g26
ag27
ag29
as(I3
I9
tp121
(lp122
S'G'
p123
as(I3
I4
tp124
(lp125
g26
ag27
ag28
as(I6
I8
tp126
(lp127
g29
assS'class_pred_'
p128
g24
sS'CLASSES'
p129
cnumpy.core.multiarray
_reconstruct
p130
(cnumpy
ndarray
p131
(I0
tp132
S'b'
p133
tp134
Rp135
(I1
(I4
tp136
cnumpy
dtype
p137
(S'O8'
p138
I0
I1
tp139
Rp140
(I3
S'|'
p141
NNNI-1
I-1
I63
tp142
bI00
(lp143
g26
ag27
ag29
ag28
atp144
bsS'TREE_LEAF'
p145
(dp146
I1
I00
sI2
I01
sI3
I00
sI4
I00
sI5
I01
sI6
I00
sI7
I01
sI8
I01
sI9
I01
ssS'num_pass_'
p147
(dp148
I1
I71
sI2
I8
sI3
I63
sI4
I38
sI5
I8
sI6
I30
sI7
I20
sI8
I10
sI9
I25
ssS'error'
p149
(dp150
I1
F61.9718309859155
sI2
F0.0
sI3
F57.14285714285714
sI4
F39.473684210526315
sI5
F62.5
sI6
F33.33333333333333
sI7
F0.0
sI8
F0.0
sI9
F0.0
ssS'pvalue'
p151
g41
sS'class_names'
p152
g135
sS'n_node_samples'
p153
g148
sb.