ccopy_reg
_reconstructor
p0
(cmlx
tree_
p1
c__builtin__
object
p2
Ntp3
Rp4
(dp5
S'decision_rules_'
p6
(dp7
I2
S'P2340 %in% c("A")'
p8
sI5
S'P2340 %in% c("C", "G", "T", "Y") & P3361 %in% c("A", "G", "R") & P813 %in% c("A", "N")'
p9
sI6
S'P2340 %in% c("C", "G", "T", "Y") & P3361 %in% c("A", "G", "R") & P813 %in% c("G", "R", "T")'
p10
sI7
S'P2340 %in% c("C", "G", "T", "Y") & P3361 %in% c("T")'
p11
ssS'significant_feature_weight_'
p12
(dp13
S'P813'
p14
F0.0
sS'P3361'
p15
F0.27881603999990484
sS'P2340'
p16
F0.8497358382381777
ssS'children_left'
p17
(dp18
I1
I2
sI2
NsI3
I4
sI4
I5
sI5
NsI6
NsI7
NssS'ACCx_'
p19
F0.9295774647887324
sS'ACC_'
p20
F0.9436619718309859
sS'value'
p21
(dp22
I1
(dp23
S'A'
p24
F33.0
sS'R'
p25
F1.0
sS'T'
p26
F7.0
sS'G'
p27
F30.0
ssI2
(dp28
g24
F0.0
sg25
F0.0
sg26
F0.0
sg27
F27.0
ssI3
(dp29
g24
F33.0
sg25
F1.0
sg26
F7.0
sg27
F3.0
ssI4
(dp30
g24
F33.0
sg25
F1.0
sg26
F0.0
sg27
F3.0
ssI5
(dp31
g24
F18.0
sg25
F0.0
sg26
F0.0
sg27
F0.0
ssI6
(dp32
g24
F15.0
sg25
F1.0
sg26
F0.0
sg27
F3.0
ssI7
(dp33
g24
F0.0
sg25
F0.0
sg26
F7.0
sg27
F0.0
sssS'tprob_'
p34
(dp35
I2
F0.38028169014084506
sI5
F0.2535211267605634
sI6
F0.2676056338028169
sI7
F0.09859154929577464
ssS'threshold'
p36
(dp37
I1
I0
sI3
F2.7644553313166404e-14
sI4
F9.587048266368471e-09
ssS'children'
p38
(dp39
I1
c__builtin__
set
p40
((lp41
I2
aI3
atp42
Rp43
sI2
g40
((lp44
tp45
Rp46
sI3
g40
((lp47
I4
aI7
atp48
Rp49
sI4
g40
((lp50
I5
aI6
atp51
Rp52
sI5
g40
((lp53
tp54
Rp55
sI6
g40
((lp56
tp57
Rp58
sI7
g40
((lp59
tp60
Rp61
ssS'children_right'
p62
(dp63
I1
I3
sI2
NsI3
I7
sI4
I6
sI5
NsI6
NsI7
NssS'feature'
p64
(dp65
I1
g16
sI2
S'2'
p66
sI3
g15
sI4
g14
sI5
S'5'
p67
sI6
S'6'
p68
sI7
S'7'
p69
ssS'nodes'
p70
crpy2.robjects.robject
_reduce_robjectmixin
p71
(S'X\n\x00\x00\x00\x02\x00\x03\x05\x03\x00\x02\x03\x00\x00\x00\x00\r\x00\x00\x00\x07\x00\x00\x00\x01\x00\x00\x00\x02\x00\x00\x00\x03\x00\x00\x00\x04\x00\x00\x00\x05\x00\x00\x00\x06\x00\x00\x00\x07'
p72
I13
crpy2.rinterface._rinterface
unserialize
p73
crpy2.robjects.vectors
IntVector
p74
tp75
Rp76
(dp77
S'ro'
p78
g0
(crpy2.robjects.vectors
VectorOperationsDelegator
p79
g2
Ntp80
Rp81
(dp82
S'_parent'
p83
g76
sbsS'rx'
p84
g0
(crpy2.robjects.vectors
ExtractDelegator
p85
g2
Ntp86
Rp87
(dp88
g83
g76
sbsS'rx2'
p89
g0
(crpy2.robjects.vectors
DoubleExtractDelegator
p90
g2
Ntp91
Rp92
(dp93
g83
g76
sbsbsS'response_var_'
p94
S'P2408'
p95
sS'edge_cond_'
p96
(dp97
(I1
I2
tp98
(lp99
S'A'
p100
as(I1
I3
tp101
(lp102
S'Y'
p103
aS'C'
p104
ag26
ag27
as(I4
I6
tp105
(lp106
g25
ag26
ag27
as(I4
I5
tp107
(lp108
g24
aS'N'
p109
as(I3
I7
tp110
(lp111
S'T'
p112
as(I3
I4
tp113
(lp114
g24
ag25
ag27
assS'class_pred_'
p115
g22
sS'CLASSES'
p116
cnumpy.core.multiarray
_reconstruct
p117
(cnumpy
ndarray
p118
(I0
tp119
S'b'
p120
tp121
Rp122
(I1
(I4
tp123
cnumpy
dtype
p124
(S'O8'
p125
I0
I1
tp126
Rp127
(I3
S'|'
p128
NNNI-1
I-1
I63
tp129
bI00
(lp130
g24
ag27
ag25
ag26
atp131
bsS'TREE_LEAF'
p132
(dp133
I1
I00
sI2
I01
sI3
I00
sI4
I00
sI5
I01
sI6
I01
sI7
I01
ssS'num_pass_'
p134
(dp135
I1
I71
sI2
I27
sI3
I44
sI4
I37
sI5
I18
sI6
I19
sI7
I7
ssS'error'
p136
(dp137
I1
F53.52112676056338
sI2
F0.0
sI3
F25.0
sI4
F10.81081081081081
sI5
F0.0
sI6
F21.052631578947366
sI7
F0.0
ssS'pvalue'
p138
g37
sS'class_names'
p139
g122
sS'n_node_samples'
p140
g135
sb.