ccopy_reg
_reconstructor
p0
(cmlx
tree_
p1
c__builtin__
object
p2
Ntp3
Rp4
(dp5
S'decision_rules_'
p6
(dp7
I8
S'P2258 %in% c("A", "G", "T") & P2701 %in% c("G", "T") & P2409 %in% c("C", "G") & P1803 %in% c("C", "NA", "T")'
p8
sI9
S'P2258 %in% c("C")'
p9
sI3
S'P2258 %in% c("A", "G", "T") & P2701 %in% c("A", "C")'
p10
sI5
S'P2258 %in% c("A", "G", "T") & P2701 %in% c("G", "T") & P2409 %in% c("A", "T")'
p11
sI7
S'P2258 %in% c("A", "G", "T") & P2701 %in% c("G", "T") & P2409 %in% c("C", "G") & P1803 %in% c("A", "NA")'
p12
ssS'significant_feature_weight_'
p13
(dp14
S'P2258'
p15
F0.8497358382381777
sS'P1803'
p16
F0.0
sS'P2409'
p17
F0.3532546373239136
sS'P2701'
p18
F0.2788160399999049
ssS'children_left'
p19
(dp20
I1
I9
sI2
I3
sI3
NsI4
I5
sI5
NsI6
I8
sI7
NsI8
NsI9
NssS'ACCx_'
p21
F0.7464788732394366
sS'ACC_'
p22
F0.8873239436619719
sS'value'
p23
(dp24
I1
(dp25
S'A'
p26
F28.0
sS'C'
p27
F31.0
sS'T'
p28
F8.0
sS'G'
p29
F4.0
ssI2
(dp30
g26
F2.0
sg27
F31.0
sg28
F8.0
sg29
F3.0
ssI3
(dp31
g26
F0.0
sg27
F4.0
sg28
F0.0
sg29
F3.0
ssI4
(dp32
g26
F2.0
sg27
F27.0
sg28
F8.0
sg29
F0.0
ssI5
(dp33
g26
F2.0
sg27
F0.0
sg28
F6.0
sg29
F0.0
ssI6
(dp34
g26
F0.0
sg27
F27.0
sg28
F2.0
sg29
F0.0
ssI7
(dp35
g26
F0.0
sg27
F21.0
sg28
F0.0
sg29
F0.0
ssI8
(dp36
g26
F0.0
sg27
F6.0
sg28
F2.0
sg29
F0.0
ssI9
(dp37
g26
F26.0
sg27
F0.0
sg28
F0.0
sg29
F1.0
sssS'tprob_'
p38
(dp39
I8
F0.11267605633802817
sI9
F0.38028169014084506
sI3
F0.09859154929577464
sI5
F0.11267605633802817
sI7
F0.29577464788732394
ssS'threshold'
p40
(dp41
I1
F2.2204460492503099e-16
sI2
F3.9211443703113204e-07
sI4
F1.0596320820788198e-07
sI6
F0.00405378063974993
ssS'children'
p42
(dp43
I1
c__builtin__
set
p44
((lp45
I9
aI2
atp46
Rp47
sI2
g44
((lp48
I3
aI4
atp49
Rp50
sI3
g44
((lp51
tp52
Rp53
sI4
g44
((lp54
I5
aI6
atp55
Rp56
sI5
g44
((lp57
tp58
Rp59
sI6
g44
((lp60
I8
aI7
atp61
Rp62
sI7
g44
((lp63
tp64
Rp65
sI8
g44
((lp66
tp67
Rp68
sI9
g44
((lp69
tp70
Rp71
ssS'children_right'
p72
(dp73
I1
I2
sI2
I4
sI3
NsI4
I6
sI5
NsI6
I7
sI7
NsI8
NsI9
NssS'feature'
p74
(dp75
I1
g15
sI2
g18
sI3
S'3'
p76
sI4
g17
sI5
S'5'
p77
sI6
g16
sI7
S'7'
p78
sI8
S'8'
p79
sI9
S'9'
p80
ssS'nodes'
p81
crpy2.robjects.robject
_reduce_robjectmixin
p82
(S'X\n\x00\x00\x00\x02\x00\x03\x05\x03\x00\x02\x03\x00\x00\x00\x00\r\x00\x00\x00\t\x00\x00\x00\x01\x00\x00\x00\x02\x00\x00\x00\x03\x00\x00\x00\x04\x00\x00\x00\x05\x00\x00\x00\x06\x00\x00\x00\x07\x00\x00\x00\x08\x00\x00\x00\t'
p83
I13
crpy2.rinterface._rinterface
unserialize
p84
crpy2.robjects.vectors
IntVector
p85
tp86
Rp87
(dp88
S'ro'
p89
g0
(crpy2.robjects.vectors
VectorOperationsDelegator
p90
g2
Ntp91
Rp92
(dp93
S'_parent'
p94
g87
sbsS'rx'
p95
g0
(crpy2.robjects.vectors
ExtractDelegator
p96
g2
Ntp97
Rp98
(dp99
g94
g87
sbsS'rx2'
p100
g0
(crpy2.robjects.vectors
DoubleExtractDelegator
p101
g2
Ntp102
Rp103
(dp104
g94
g87
sbsbsS'response_var_'
p105
S'P702'
p106
sS'edge_cond_'
p107
(dp108
(I1
I2
tp109
(lp110
g26
ag28
ag29
as(I6
I7
tp111
(lp112
g26
as(I4
I6
tp113
(lp114
g27
ag29
as(I4
I5
tp115
(lp116
g26
ag28
as(I2
I3
tp117
(lp118
g26
ag27
as(I1
I9
tp119
(lp120
S'C'
p121
as(I2
I4
tp122
(lp123
g28
ag29
as(I6
I8
tp124
(lp125
g27
ag28
assS'class_pred_'
p126
g24
sS'CLASSES'
p127
cnumpy.core.multiarray
_reconstruct
p128
(cnumpy
ndarray
p129
(I0
tp130
S'b'
p131
tp132
Rp133
(I1
(I4
tp134
cnumpy
dtype
p135
(S'O8'
p136
I0
I1
tp137
Rp138
(I3
S'|'
p139
NNNI-1
I-1
I63
tp140
bI00
(lp141
g26
ag27
ag29
ag28
atp142
bsS'TREE_LEAF'
p143
(dp144
I1
I00
sI2
I00
sI3
I01
sI4
I00
sI5
I01
sI6
I00
sI7
I01
sI8
I01
sI9
I01
ssS'num_pass_'
p145
(dp146
I1
I71
sI2
I44
sI3
I7
sI4
I37
sI5
I8
sI6
I29
sI7
I21
sI8
I8
sI9
I27
ssS'error'
p147
(dp148
I1
F56.33802816901408
sI2
F29.545454545454547
sI3
F42.857142857142854
sI4
F27.027027027027025
sI5
F25.0
sI6
F6.896551724137931
sI7
F0.0
sI8
F25.0
sI9
F3.7037037037037033
ssS'pvalue'
p149
g41
sS'class_names'
p150
g133
sS'n_node_samples'
p151
g146
sb.