ccopy_reg
_reconstructor
p0
(cmlx
tree_
p1
c__builtin__
object
p2
Ntp3
Rp4
(dp5
S'decision_rules_'
p6
(dp7
I2
S'P3201 %in% c("A")'
p8
sI5
S'P3201 %in% c("C", "G", "T", "Y") & P3909 %in% c("A", "G", "T") & P4701 %in% c("A")'
p9
sI6
S'P3201 %in% c("C", "G", "T", "Y") & P3909 %in% c("A", "G", "T") & P4701 %in% c("C", "G", "R", "T")'
p10
sI7
S'P3201 %in% c("C", "G", "T", "Y") & P3909 %in% c("C")'
p11
ssS'significant_feature_weight_'
p12
(dp13
S'P4701'
p14
F0.0
sS'P3909'
p15
F0.4009171090182883
sS'P3201'
p16
F0.9553659798631831
ssS'children_left'
p17
(dp18
I1
I2
sI2
NsI3
I4
sI4
I5
sI5
NsI6
NsI7
NssS'ACCx_'
p19
F0.8028169014084507
sS'ACC_'
p20
F0.8732394366197183
sS'value'
p21
(dp22
I1
(dp23
S'A'
p24
F28.0
sS'C'
p25
F3.0
sS'R'
p26
F1.0
sS'T'
p27
F27.0
sS'G'
p28
F12.0
ssI2
(dp29
g24
F0.0
sg25
F2.0
sg26
F0.0
sg27
F25.0
sg28
F1.0
ssI3
(dp30
g24
F28.0
sg25
F1.0
sg26
F1.0
sg27
F2.0
sg28
F11.0
ssI4
(dp31
g24
F28.0
sg25
F1.0
sg26
F1.0
sg27
F2.0
sg28
F2.0
ssI5
(dp32
g24
F22.0
sg25
F0.0
sg26
F0.0
sg27
F0.0
sg28
F1.0
ssI6
(dp33
g24
F6.0
sg25
F1.0
sg26
F1.0
sg27
F2.0
sg28
F1.0
ssI7
(dp34
g24
F0.0
sg25
F0.0
sg26
F0.0
sg27
F0.0
sg28
F9.0
sssS'tprob_'
p35
(dp36
I2
F0.39436619718309857
sI5
F0.323943661971831
sI6
F0.15492957746478872
sI7
F0.1267605633802817
ssS'threshold'
p37
(dp38
I1
I0
sI3
F1.5663026431411698e-12
sI4
F2.2374915475964502e-08
ssS'children'
p39
(dp40
I1
c__builtin__
set
p41
((lp42
I2
aI3
atp43
Rp44
sI2
g41
((lp45
tp46
Rp47
sI3
g41
((lp48
I4
aI7
atp49
Rp50
sI4
g41
((lp51
I5
aI6
atp52
Rp53
sI5
g41
((lp54
tp55
Rp56
sI6
g41
((lp57
tp58
Rp59
sI7
g41
((lp60
tp61
Rp62
ssS'children_right'
p63
(dp64
I1
I3
sI2
NsI3
I7
sI4
I6
sI5
NsI6
NsI7
NssS'feature'
p65
(dp66
I1
g16
sI2
S'2'
p67
sI3
g15
sI4
g14
sI5
S'5'
p68
sI6
S'6'
p69
sI7
S'7'
p70
ssS'nodes'
p71
crpy2.robjects.robject
_reduce_robjectmixin
p72
(S'X\n\x00\x00\x00\x02\x00\x03\x05\x03\x00\x02\x03\x00\x00\x00\x00\r\x00\x00\x00\x07\x00\x00\x00\x01\x00\x00\x00\x02\x00\x00\x00\x03\x00\x00\x00\x04\x00\x00\x00\x05\x00\x00\x00\x06\x00\x00\x00\x07'
p73
I13
crpy2.rinterface._rinterface
unserialize
p74
crpy2.robjects.vectors
IntVector
p75
tp76
Rp77
(dp78
S'ro'
p79
g0
(crpy2.robjects.vectors
VectorOperationsDelegator
p80
g2
Ntp81
Rp82
(dp83
S'_parent'
p84
g77
sbsS'rx'
p85
g0
(crpy2.robjects.vectors
ExtractDelegator
p86
g2
Ntp87
Rp88
(dp89
g84
g77
sbsS'rx2'
p90
g0
(crpy2.robjects.vectors
DoubleExtractDelegator
p91
g2
Ntp92
Rp93
(dp94
g84
g77
sbsbsS'response_var_'
p95
S'P4188'
p96
sS'edge_cond_'
p97
(dp98
(I1
I2
tp99
(lp100
S'A'
p101
as(I1
I3
tp102
(lp103
S'Y'
p104
ag25
ag27
ag28
as(I4
I6
tp105
(lp106
g25
ag26
ag27
ag28
as(I4
I5
tp107
(lp108
S'A'
p109
as(I3
I7
tp110
(lp111
S'C'
p112
as(I3
I4
tp113
(lp114
g24
ag27
ag28
assS'class_pred_'
p115
g22
sS'CLASSES'
p116
cnumpy.core.multiarray
_reconstruct
p117
(cnumpy
ndarray
p118
(I0
tp119
S'b'
p120
tp121
Rp122
(I1
(I5
tp123
cnumpy
dtype
p124
(S'O8'
p125
I0
I1
tp126
Rp127
(I3
S'|'
p128
NNNI-1
I-1
I63
tp129
bI00
(lp130
g24
ag25
ag28
ag26
ag27
atp131
bsS'TREE_LEAF'
p132
(dp133
I1
I00
sI2
I01
sI3
I00
sI4
I00
sI5
I01
sI6
I01
sI7
I01
ssS'num_pass_'
p134
(dp135
I1
I71
sI2
I28
sI3
I43
sI4
I34
sI5
I23
sI6
I11
sI7
I9
ssS'error'
p136
(dp137
I1
F60.56338028169014
sI2
F10.714285714285714
sI3
F34.88372093023256
sI4
F17.64705882352941
sI5
F4.3478260869565215
sI6
F45.45454545454546
sI7
F0.0
ssS'pvalue'
p138
g38
sS'class_names'
p139
g122
sS'n_node_samples'
p140
g135
sb.