ccopy_reg
_reconstructor
p0
(cmlx
tree_
p1
c__builtin__
object
p2
Ntp3
Rp4
(dp5
S'decision_rules_'
p6
(dp7
I3
S'P1684 %in% c("A", "G", "N", "R") & P2403 %in% c("A", "G", "T", "Y")'
p8
sI4
S'P1684 %in% c("A", "G", "N", "R") & P2403 %in% c("C")'
p9
sI5
S'P1684 %in% c("C", "T")'
p10
ssS'significant_feature_weight_'
p11
(dp12
S'P1684'
p13
F0.9982146201560502
sS'P2403'
p14
F0.383707623300113
ssS'children_left'
p15
(dp16
I1
I2
sI2
I3
sI3
NsI4
NsI5
NssS'ACCx_'
p17
F0.5211267605633803
sS'ACC_'
p18
F0.971830985915493
sS'value'
p19
(dp20
I1
(dp21
S'A'
p22
F29.0
sS'R'
p23
F1.0
sS'T'
p24
F34.0
sS'G'
p25
F7.0
ssI2
(dp26
g22
F29.0
sg23
F1.0
sg24
F0.0
sg25
F7.0
ssI3
(dp27
g22
F1.0
sg23
F1.0
sg24
F0.0
sg25
F7.0
ssI4
(dp28
g22
F28.0
sg23
F0.0
sg24
F0.0
sg25
F0.0
ssI5
(dp29
g22
F0.0
sg23
F0.0
sg24
F34.0
sg25
F0.0
sssS'tprob_'
p30
(dp31
I3
F0.1267605633802817
sI4
F0.39436619718309857
sI5
F0.4788732394366197
ssS'threshold'
p32
(dp33
I1
I0
sI2
F9.94748317051375e-08
ssS'children'
p34
(dp35
I1
c__builtin__
set
p36
((lp37
I2
aI5
atp38
Rp39
sI2
g36
((lp40
I3
aI4
atp41
Rp42
sI3
g36
((lp43
tp44
Rp45
sI4
g36
((lp46
tp47
Rp48
sI5
g36
((lp49
tp50
Rp51
ssS'children_right'
p52
(dp53
I1
I5
sI2
I4
sI3
NsI4
NsI5
NssS'feature'
p54
(dp55
I1
g13
sI2
g14
sI3
S'3'
p56
sI4
S'4'
p57
sI5
S'5'
p58
ssS'nodes'
p59
crpy2.robjects.robject
_reduce_robjectmixin
p60
(S'X\n\x00\x00\x00\x02\x00\x03\x05\x03\x00\x02\x03\x00\x00\x00\x00\r\x00\x00\x00\x05\x00\x00\x00\x01\x00\x00\x00\x02\x00\x00\x00\x03\x00\x00\x00\x04\x00\x00\x00\x05'
p61
I13
crpy2.rinterface._rinterface
unserialize
p62
crpy2.robjects.vectors
IntVector
p63
tp64
Rp65
(dp66
S'ro'
p67
g0
(crpy2.robjects.vectors
VectorOperationsDelegator
p68
g2
Ntp69
Rp70
(dp71
S'_parent'
p72
g65
sbsS'rx'
p73
g0
(crpy2.robjects.vectors
ExtractDelegator
p74
g2
Ntp75
Rp76
(dp77
g72
g65
sbsS'rx2'
p78
g0
(crpy2.robjects.vectors
DoubleExtractDelegator
p79
g2
Ntp80
Rp81
(dp82
g72
g65
sbsbsS'response_var_'
p83
S'P3361'
p84
sS'edge_cond_'
p85
(dp86
(I1
I2
tp87
(lp88
g22
ag23
ag25
aS'N'
p89
as(I1
I5
tp90
(lp91
S'C'
p92
ag24
as(I2
I3
tp93
(lp94
g22
aS'Y'
p95
ag24
ag25
as(I2
I4
tp96
(lp97
S'C'
p98
assS'class_pred_'
p99
g20
sS'CLASSES'
p100
cnumpy.core.multiarray
_reconstruct
p101
(cnumpy
ndarray
p102
(I0
tp103
S'b'
p104
tp105
Rp106
(I1
(I4
tp107
cnumpy
dtype
p108
(S'O8'
p109
I0
I1
tp110
Rp111
(I3
S'|'
p112
NNNI-1
I-1
I63
tp113
bI00
(lp114
g22
ag25
ag23
ag24
atp115
bsS'TREE_LEAF'
p116
(dp117
I1
I00
sI2
I00
sI3
I01
sI4
I01
sI5
I01
ssS'num_pass_'
p118
(dp119
I1
I71
sI2
I37
sI3
I9
sI4
I28
sI5
I34
ssS'error'
p120
(dp121
I1
F52.11267605633803
sI2
F21.62162162162162
sI3
F22.22222222222222
sI4
F0.0
sI5
F0.0
ssS'pvalue'
p122
g33
sS'class_names'
p123
g106
sS'n_node_samples'
p124
g119
sb.