ccopy_reg
_reconstructor
p0
(cmlx
tree_
p1
c__builtin__
object
p2
Ntp3
Rp4
(dp5
S'decision_rules_'
p6
(dp7
I8
S'P2046 %in% c("A", "C", "T") & P2035 %in% c("C", "G", "T") & P555 %in% c("C", "T")'
p8
sI9
S'P2046 %in% c("G")'
p9
sI3
S'P2046 %in% c("A", "C", "T") & P2035 %in% c("A")'
p10
sI6
S'P2046 %in% c("A", "C", "T") & P2035 %in% c("C", "G", "T") & P555 %in% c("A", "G") & P1633 %in% c("A", "NA")'
p11
sI7
S'P2046 %in% c("A", "C", "T") & P2035 %in% c("C", "G", "T") & P555 %in% c("A", "G") & P1633 %in% c("NA", "G", "T")'
p12
ssS'significant_feature_weight_'
p13
(dp14
S'P2046'
p15
F0.7510313895995868
sS'P1633'
p16
F0.44894361815706496
sS'P2035'
p17
F0.41571673892927985
sS'P555'
p18
F0.2654504307807623
ssS'children_left'
p19
(dp20
I1
I9
sI2
I3
sI3
NsI4
I8
sI5
I6
sI6
NsI7
NsI8
NsI9
NssS'ACCx_'
p21
F0.8028169014084507
sS'ACC_'
p22
F0.9577464788732395
sS'value'
p23
(dp24
I1
(dp25
S'A'
p26
F27.0
sS'C'
p27
F17.0
sS'T'
p28
F17.0
sS'G'
p29
F10.0
ssI2
(dp30
g26
F6.0
sg27
F17.0
sg28
F17.0
sg29
F10.0
ssI3
(dp31
g26
F1.0
sg27
F0.0
sg28
F0.0
sg29
F10.0
ssI4
(dp32
g26
F5.0
sg27
F17.0
sg28
F17.0
sg29
F0.0
ssI5
(dp33
g26
F0.0
sg27
F17.0
sg28
F15.0
sg29
F0.0
ssI6
(dp34
g26
F0.0
sg27
F0.0
sg28
F15.0
sg29
F0.0
ssI7
(dp35
g26
F0.0
sg27
F17.0
sg28
F0.0
sg29
F0.0
ssI8
(dp36
g26
F5.0
sg27
F0.0
sg28
F2.0
sg29
F0.0
ssI9
(dp37
g26
F21.0
sg27
F0.0
sg28
F0.0
sg29
F0.0
sssS'tprob_'
p38
(dp39
I8
F0.09859154929577464
sI9
F0.29577464788732394
sI3
F0.15492957746478872
sI6
F0.2112676056338028
sI7
F0.23943661971830985
ssS'threshold'
p40
(dp41
I1
I0
sI2
F6.2172489379008806e-15
sI4
F1.07733909793239e-07
sI5
F0.000905948145680679
ssS'children'
p42
(dp43
I1
c__builtin__
set
p44
((lp45
I9
aI2
atp46
Rp47
sI2
g44
((lp48
I3
aI4
atp49
Rp50
sI3
g44
((lp51
tp52
Rp53
sI4
g44
((lp54
I8
aI5
atp55
Rp56
sI5
g44
((lp57
I6
aI7
atp58
Rp59
sI6
g44
((lp60
tp61
Rp62
sI7
g44
((lp63
tp64
Rp65
sI8
g44
((lp66
tp67
Rp68
sI9
g44
((lp69
tp70
Rp71
ssS'children_right'
p72
(dp73
I1
I2
sI2
I4
sI3
NsI4
I5
sI5
I7
sI6
NsI7
NsI8
NsI9
NssS'feature'
p74
(dp75
I1
g15
sI2
g17
sI3
S'3'
p76
sI4
g18
sI5
g16
sI6
S'6'
p77
sI7
S'7'
p78
sI8
S'8'
p79
sI9
S'9'
p80
ssS'nodes'
p81
crpy2.robjects.robject
_reduce_robjectmixin
p82
(S'X\n\x00\x00\x00\x02\x00\x03\x05\x03\x00\x02\x03\x00\x00\x00\x00\r\x00\x00\x00\t\x00\x00\x00\x01\x00\x00\x00\x02\x00\x00\x00\x03\x00\x00\x00\x04\x00\x00\x00\x05\x00\x00\x00\x06\x00\x00\x00\x07\x00\x00\x00\x08\x00\x00\x00\t'
p83
I13
crpy2.rinterface._rinterface
unserialize
p84
crpy2.robjects.vectors
IntVector
p85
tp86
Rp87
(dp88
S'ro'
p89
g0
(crpy2.robjects.vectors
VectorOperationsDelegator
p90
g2
Ntp91
Rp92
(dp93
S'_parent'
p94
g87
sbsS'rx'
p95
g0
(crpy2.robjects.vectors
ExtractDelegator
p96
g2
Ntp97
Rp98
(dp99
g94
g87
sbsS'rx2'
p100
g0
(crpy2.robjects.vectors
DoubleExtractDelegator
p101
g2
Ntp102
Rp103
(dp104
g94
g87
sbsbsS'response_var_'
p105
S'P1233'
p106
sS'edge_cond_'
p107
(dp108
(I1
I2
tp109
(lp110
g26
ag27
ag28
as(I4
I8
tp111
(lp112
g27
ag28
as(I4
I5
tp113
(lp114
g26
ag29
as(I5
I7
tp115
(lp116
g28
ag29
as(I5
I6
tp117
(lp118
g26
as(I2
I3
tp119
(lp120
S'A'
p121
as(I1
I9
tp122
(lp123
S'G'
p124
as(I2
I4
tp125
(lp126
g27
ag28
ag29
assS'class_pred_'
p127
g24
sS'CLASSES'
p128
cnumpy.core.multiarray
_reconstruct
p129
(cnumpy
ndarray
p130
(I0
tp131
S'b'
p132
tp133
Rp134
(I1
(I4
tp135
cnumpy
dtype
p136
(S'O8'
p137
I0
I1
tp138
Rp139
(I3
S'|'
p140
NNNI-1
I-1
I63
tp141
bI00
(lp142
g26
ag27
ag29
ag28
atp143
bsS'TREE_LEAF'
p144
(dp145
I1
I00
sI2
I00
sI3
I01
sI4
I00
sI5
I00
sI6
I01
sI7
I01
sI8
I01
sI9
I01
ssS'num_pass_'
p146
(dp147
I1
I71
sI2
I50
sI3
I11
sI4
I39
sI5
I32
sI6
I15
sI7
I17
sI8
I7
sI9
I21
ssS'error'
p148
(dp149
I1
F61.97183098591549
sI2
F66.0
sI3
F9.090909090909092
sI4
F56.41025641025641
sI5
F46.875
sI6
F0.0
sI7
F0.0
sI8
F28.57142857142857
sI9
F0.0
ssS'pvalue'
p150
g41
sS'class_names'
p151
g134
sS'n_node_samples'
p152
g147
sb.