ccopy_reg
_reconstructor
p0
(cmlx
tree_
p1
c__builtin__
object
p2
Ntp3
Rp4
(dp5
S'decision_rules_'
p6
(dp7
I3
S'P3972 %in% c("A") & P186 %in% c("A", "T")'
p8
sI4
S'P3972 %in% c("A") & P186 %in% c("C")'
p9
sI6
S'P3972 %in% c("C", "G", "T") & P711 %in% c("A")'
p10
sI7
S'P3972 %in% c("C", "G", "T") & P711 %in% c("C", "G", "T")'
p11
ssS'significant_feature_weight_'
p12
(dp13
S'P711'
p14
F0.4442655573155041
sS'P3972'
p15
F0.9998016068335638
sS'P186'
p16
F0.4068857276203636
ssS'children_left'
p17
(dp18
I1
I2
sI2
I3
sI3
NsI4
NsI5
I6
sI6
NsI7
NssS'ACCx_'
p19
F0.6901408450704225
sS'ACC_'
p20
F0.8450704225352113
sS'value'
p21
(dp22
I1
(dp23
S'A'
p24
F1.0
sS'C'
p25
F20.0
sS'T'
p26
F46.0
sS'G'
p27
F4.0
ssI2
(dp28
g24
F0.0
sg25
F7.0
sg26
F29.0
sg27
F0.0
ssI3
(dp29
g24
F0.0
sg25
F6.0
sg26
F4.0
sg27
F0.0
ssI4
(dp30
g24
F0.0
sg25
F1.0
sg26
F25.0
sg27
F0.0
ssI5
(dp31
g24
F1.0
sg25
F13.0
sg26
F17.0
sg27
F4.0
ssI6
(dp32
g24
F0.0
sg25
F12.0
sg26
F0.0
sg27
F0.0
ssI7
(dp33
g24
F1.0
sg25
F1.0
sg26
F17.0
sg27
F4.0
sssS'tprob_'
p34
(dp35
I3
F0.14084507042253522
sI4
F0.36619718309859156
sI6
F0.16901408450704225
sI7
F0.323943661971831
ssS'threshold'
p36
(dp37
I1
I0
sI2
F0.0024219010702042397
sI5
F1.12135856156215e-11
ssS'children'
p38
(dp39
I1
c__builtin__
set
p40
((lp41
I2
aI5
atp42
Rp43
sI2
g40
((lp44
I3
aI4
atp45
Rp46
sI3
g40
((lp47
tp48
Rp49
sI4
g40
((lp50
tp51
Rp52
sI5
g40
((lp53
I6
aI7
atp54
Rp55
sI6
g40
((lp56
tp57
Rp58
sI7
g40
((lp59
tp60
Rp61
ssS'children_right'
p62
(dp63
I1
I5
sI2
I4
sI3
NsI4
NsI5
I7
sI6
NsI7
NssS'feature'
p64
(dp65
I1
g15
sI2
g16
sI3
S'3'
p66
sI4
S'4'
p67
sI5
g14
sI6
S'6'
p68
sI7
S'7'
p69
ssS'nodes'
p70
crpy2.robjects.robject
_reduce_robjectmixin
p71
(S'X\n\x00\x00\x00\x02\x00\x03\x05\x03\x00\x02\x03\x00\x00\x00\x00\r\x00\x00\x00\x07\x00\x00\x00\x01\x00\x00\x00\x02\x00\x00\x00\x03\x00\x00\x00\x04\x00\x00\x00\x05\x00\x00\x00\x06\x00\x00\x00\x07'
p72
I13
crpy2.rinterface._rinterface
unserialize
p73
crpy2.robjects.vectors
IntVector
p74
tp75
Rp76
(dp77
S'ro'
p78
g0
(crpy2.robjects.vectors
VectorOperationsDelegator
p79
g2
Ntp80
Rp81
(dp82
S'_parent'
p83
g76
sbsS'rx'
p84
g0
(crpy2.robjects.vectors
ExtractDelegator
p85
g2
Ntp86
Rp87
(dp88
g83
g76
sbsS'rx2'
p89
g0
(crpy2.robjects.vectors
DoubleExtractDelegator
p90
g2
Ntp91
Rp92
(dp93
g83
g76
sbsbsS'response_var_'
p94
S'P1398'
p95
sS'edge_cond_'
p96
(dp97
(I1
I2
tp98
(lp99
S'A'
p100
as(I5
I6
tp101
(lp102
S'A'
p103
as(I5
I7
tp104
(lp105
g25
ag26
ag27
as(I1
I5
tp106
(lp107
g25
ag26
ag27
as(I2
I3
tp108
(lp109
g24
ag26
as(I2
I4
tp110
(lp111
S'C'
p112
assS'class_pred_'
p113
g22
sS'CLASSES'
p114
cnumpy.core.multiarray
_reconstruct
p115
(cnumpy
ndarray
p116
(I0
tp117
S'b'
p118
tp119
Rp120
(I1
(I4
tp121
cnumpy
dtype
p122
(S'O8'
p123
I0
I1
tp124
Rp125
(I3
S'|'
p126
NNNI-1
I-1
I63
tp127
bI00
(lp128
g24
ag25
ag27
ag26
atp129
bsS'TREE_LEAF'
p130
(dp131
I1
I00
sI2
I00
sI3
I01
sI4
I01
sI5
I00
sI6
I01
sI7
I01
ssS'num_pass_'
p132
(dp133
I1
I71
sI2
I36
sI3
I10
sI4
I26
sI5
I35
sI6
I12
sI7
I23
ssS'error'
p134
(dp135
I1
F35.21126760563381
sI2
F19.444444444444446
sI3
F40.0
sI4
F3.8461538461538463
sI5
F51.42857142857143
sI6
F0.0
sI7
F26.08695652173913
ssS'pvalue'
p136
g37
sS'class_names'
p137
g120
sS'n_node_samples'
p138
g133
sb.