ccopy_reg
_reconstructor
p0
(cmlx
tree_
p1
c__builtin__
object
p2
Ntp3
Rp4
(dp5
S'decision_rules_'
p6
(dp7
I8
S'P4317 %in% c("C") & P832 %in% c("T") & P4042 %in% c("A", "NA")'
p8
sI9
S'P4317 %in% c("C") & P832 %in% c("T") & P4042 %in% c("C", "NA", "T", "Y")'
p9
sI3
S'P4317 %in% c("A", "G", "T") & P1029 %in% c("A")'
p10
sI4
S'P4317 %in% c("A", "G", "T") & P1029 %in% c("C", "G", "T")'
p11
sI6
S'P4317 %in% c("C") & P832 %in% c("A", "C", "G", "N")'
p12
ssS'significant_feature_weight_'
p13
(dp14
S'P832'
p15
F0.0
sS'P1029'
p16
F0.27887316978797594
sS'P4317'
p17
F0.7295736627355681
sS'P4042'
p18
F0.0
ssS'children_left'
p19
(dp20
I1
I2
sI2
I3
sI3
NsI4
NsI5
I6
sI6
NsI7
I8
sI8
NsI9
NssS'ACCx_'
p21
F0.7746478873239436
sS'ACC_'
p22
F0.8309859154929577
sS'value'
p23
(dp24
I1
(dp25
S'A'
p26
F47.0
sS'C'
p27
F4.0
sS'T'
p28
F5.0
sS'G'
p29
F15.0
ssI2
(dp30
g26
F2.0
sg27
F4.0
sg28
F4.0
sg29
F10.0
ssI3
(dp31
g26
F0.0
sg27
F1.0
sg28
F0.0
sg29
F10.0
ssI4
(dp32
g26
F2.0
sg27
F3.0
sg28
F4.0
sg29
F0.0
ssI5
(dp33
g26
F45.0
sg27
F0.0
sg28
F1.0
sg29
F5.0
ssI6
(dp34
g26
F3.0
sg27
F0.0
sg28
F1.0
sg29
F3.0
ssI7
(dp35
g26
F42.0
sg27
F0.0
sg28
F0.0
sg29
F2.0
ssI8
(dp36
g26
F25.0
sg27
F0.0
sg28
F0.0
sg29
F0.0
ssI9
(dp37
g26
F17.0
sg27
F0.0
sg28
F0.0
sg29
F2.0
sssS'tprob_'
p38
(dp39
I8
F0.352112676056338
sI9
F0.2676056338028169
sI3
F0.15492957746478872
sI4
F0.1267605633802817
sI6
F0.09859154929577464
ssS'threshold'
p40
(dp41
I1
I0
sI2
F0.000347830698318674
sI5
F4.18699408477607e-10
sI7
F0.00289877109124892
ssS'children'
p42
(dp43
I1
c__builtin__
set
p44
((lp45
I2
aI5
atp46
Rp47
sI2
g44
((lp48
I3
aI4
atp49
Rp50
sI3
g44
((lp51
tp52
Rp53
sI4
g44
((lp54
tp55
Rp56
sI5
g44
((lp57
I6
aI7
atp58
Rp59
sI6
g44
((lp60
tp61
Rp62
sI7
g44
((lp63
I8
aI9
atp64
Rp65
sI8
g44
((lp66
tp67
Rp68
sI9
g44
((lp69
tp70
Rp71
ssS'children_right'
p72
(dp73
I1
I5
sI2
I4
sI3
NsI4
NsI5
I7
sI6
NsI7
I9
sI8
NsI9
NssS'feature'
p74
(dp75
I1
g17
sI2
g16
sI3
S'3'
p76
sI4
S'4'
p77
sI5
g15
sI6
S'6'
p78
sI7
g18
sI8
S'8'
p79
sI9
S'9'
p80
ssS'nodes'
p81
crpy2.robjects.robject
_reduce_robjectmixin
p82
(S'X\n\x00\x00\x00\x02\x00\x03\x05\x03\x00\x02\x03\x00\x00\x00\x00\r\x00\x00\x00\t\x00\x00\x00\x01\x00\x00\x00\x02\x00\x00\x00\x03\x00\x00\x00\x04\x00\x00\x00\x05\x00\x00\x00\x06\x00\x00\x00\x07\x00\x00\x00\x08\x00\x00\x00\t'
p83
I13
crpy2.rinterface._rinterface
unserialize
p84
crpy2.robjects.vectors
IntVector
p85
tp86
Rp87
(dp88
S'ro'
p89
g0
(crpy2.robjects.vectors
VectorOperationsDelegator
p90
g2
Ntp91
Rp92
(dp93
S'_parent'
p94
g87
sbsS'rx'
p95
g0
(crpy2.robjects.vectors
ExtractDelegator
p96
g2
Ntp97
Rp98
(dp99
g94
g87
sbsS'rx2'
p100
g0
(crpy2.robjects.vectors
DoubleExtractDelegator
p101
g2
Ntp102
Rp103
(dp104
g94
g87
sbsbsS'response_var_'
p105
S'P3537'
p106
sS'edge_cond_'
p107
(dp108
(I1
I2
tp109
(lp110
g26
ag28
ag29
as(I5
I6
tp111
(lp112
g26
ag27
ag29
aS'N'
p113
as(I5
I7
tp114
(lp115
S'T'
p116
as(I1
I5
tp117
(lp118
S'C'
p119
as(I2
I3
tp120
(lp121
S'A'
p122
as(I7
I8
tp123
(lp124
g26
as(I2
I4
tp125
(lp126
g27
ag28
ag29
as(I7
I9
tp127
(lp128
S'Y'
p129
ag27
ag28
assS'class_pred_'
p130
g24
sS'CLASSES'
p131
cnumpy.core.multiarray
_reconstruct
p132
(cnumpy
ndarray
p133
(I0
tp134
S'b'
p135
tp136
Rp137
(I1
(I4
tp138
cnumpy
dtype
p139
(S'O8'
p140
I0
I1
tp141
Rp142
(I3
S'|'
p143
NNNI-1
I-1
I63
tp144
bI00
(lp145
g26
ag27
ag29
ag28
atp146
bsS'TREE_LEAF'
p147
(dp148
I1
I00
sI2
I00
sI3
I01
sI4
I01
sI5
I00
sI6
I01
sI7
I00
sI8
I01
sI9
I01
ssS'num_pass_'
p149
(dp150
I1
I71
sI2
I20
sI3
I11
sI4
I9
sI5
I51
sI6
I7
sI7
I44
sI8
I25
sI9
I19
ssS'error'
p151
(dp152
I1
F33.80281690140845
sI2
F50.0
sI3
F9.090909090909092
sI4
F55.55555555555555
sI5
F11.764705882352942
sI6
F57.14285714285714
sI7
F4.545454545454546
sI8
F0.0
sI9
F10.526315789473683
ssS'pvalue'
p153
g41
sS'class_names'
p154
g137
sS'n_node_samples'
p155
g150
sb.